 PhysXCommon_64

 Timestamp is 65799b3b (Wed Dec 13 22:53:31 2023)

 Preferred load address is 0000000180000000

 Start         Length     Name                   Class
 0001:00000000 00003530H .text$di                CODE
 0001:00003530 001b2d70H .text$mn                CODE
 0001:001b62a0 00000036H .text$mn$00             CODE
 0001:001b62d6 0000009aH .text$x                 CODE
 0001:001b6370 0000000fH .text$yd                CODE
 0002:00000000 000001b0H .idata$5                DATA
 0002:000001b0 00000038H .00cfg                  DATA
 0002:000001e8 00000008H .CRT$XCA                DATA
 0002:000001f0 000019d0H .CRT$XCU                DATA
 0002:00001bc0 00000008H .CRT$XCZ                DATA
 0002:00001bc8 00000008H .CRT$XIA                DATA
 0002:00001bd0 00000008H .CRT$XIZ                DATA
 0002:00001bd8 00000008H .CRT$XPA                DATA
 0002:00001be0 00000008H .CRT$XPZ                DATA
 0002:00001be8 00000008H .CRT$XTA                DATA
 0002:00001bf0 00000010H .CRT$XTZ                DATA
 0002:00001bf8 00000000H .gehcont$y              DATA
 0002:00001bf8 00000000H .gfids$y                DATA
 0002:00001c00 00007580H .rdata                  DATA
 0002:00009180 00000000H .rdata$CastGuardVftablesA DATA
 0002:00009180 00000000H .rdata$CastGuardVftablesC DATA
 0002:00009180 00000074H .rdata$r                DATA
 0002:000091f4 00000160H .rdata$voltmd           DATA
 0002:00009354 000003e4H .rdata$zzzdbg           DATA
 0002:00009738 00000008H .rtc$IAA                DATA
 0002:00009740 00000008H .rtc$IZZ                DATA
 0002:00009748 00000008H .rtc$TAA                DATA
 0002:00009750 00000008H .rtc$TZZ                DATA
 0002:00009758 00013b68H .xdata                  DATA
 0002:0001d2c0 00000020H .didat$2                DATA
 0002:0001d2e0 00000020H .didat$3                DATA
 0002:0001d300 000000c8H .didat$4                DATA
 0002:0001d3c8 00000418H .didat$6                DATA
 0002:0001d7e0 000000d0H .didat$7                DATA
 0002:0001d8b0 0000c614H .edata                  DATA
 0002:00029ec4 00000078H .idata$2                DATA
 0002:00029f3c 00000014H .idata$3                DATA
 0002:00029f50 000001b0H .idata$4                DATA
 0002:0002a100 00000436H .idata$6                DATA
 0003:00000000 00001230H .data                   DATA
 0003:00001230 00001188H .data$r                 DATA
 0003:000023b8 00000020H .data$rs                DATA
 0003:000023d8 000000c8H .didat$5                DATA
 0003:000024a0 000034e8H .bss                    DATA
 0004:00000000 0000ae0cH .pdata                  DATA
 0005:00000000 00002208H _RDATA                  DATA
 0006:00000000 000000a0H .rsrc$01                DATA
 0006:000000a0 000004b0H .rsrc$02                DATA

  Address         Publics by Value              Rva+Base               Lib:Object

 0000:00000000       __AbsoluteZero             0000000000000000     <absolute>
 0000:00000000       ___safe_se_handler_count   0000000000000000     <absolute>
 0000:00000000       ___safe_se_handler_table   0000000000000000     <absolute>
 0000:00000000       __arm64x_extra_rfe_table   0000000000000000     <absolute>
 0000:00000000       __arm64x_extra_rfe_table_size 0000000000000000     <absolute>
 0000:00000000       __arm64x_native_entrypoint 0000000000000000     <absolute>
 0000:00000000       __arm64x_redirection_metadata 0000000000000000     <absolute>
 0000:00000000       __arm64x_redirection_metadata_count 0000000000000000     <absolute>
 0000:00000000       __dynamic_value_reloc_table 0000000000000000     <absolute>
 0000:00000000       __enclave_config           0000000000000000     <absolute>
 0000:00000000       __guard_check_icall_a64n_fptr 0000000000000000     <absolute>
 0000:00000000       __guard_eh_cont_count      0000000000000000     <absolute>
 0000:00000000       __guard_eh_cont_table      0000000000000000     <absolute>
 0000:00000000       __guard_fids_count         0000000000000000     <absolute>
 0000:00000000       __guard_fids_table         0000000000000000     <absolute>
 0000:00000000       __guard_iat_count          0000000000000000     <absolute>
 0000:00000000       __guard_iat_table          0000000000000000     <absolute>
 0000:00000000       __guard_longjmp_count      0000000000000000     <absolute>
 0000:00000000       __guard_longjmp_table      0000000000000000     <absolute>
 0000:00000000       __hybrid_auxiliary_delayload_iat 0000000000000000     <absolute>
 0000:00000000       __hybrid_auxiliary_delayload_iat_copy 0000000000000000     <absolute>
 0000:00000000       __hybrid_auxiliary_iat     0000000000000000     <absolute>
 0000:00000000       __hybrid_auxiliary_iat_copy 0000000000000000     <absolute>
 0000:00000000       __hybrid_code_map          0000000000000000     <absolute>
 0000:00000000       __hybrid_code_map_count    0000000000000000     <absolute>
 0000:00000000       __x64_code_ranges_to_entry_points 0000000000000000     <absolute>
 0000:00000000       __x64_code_ranges_to_entry_points_count 0000000000000000     <absolute>
 0000:00000100       __guard_flags              0000000000000100     <absolute>
 0000:00000000       __ImageBase                0000000180000000     <linker-defined>
 0001:00003530       ??0PtrTable@Cm@physx@@QEAA@W4PxEMPTY@2@@Z 0000000180004530 f i CmPtrTable.obj
 0001:00003550       ??0PtrTable@Cm@physx@@QEAA@XZ 0000000180004550 f   CmPtrTable.obj
 0001:00003560       ??1AABBTreeBuildNode@Gu@physx@@QEAA@XZ 0000000180004560 f   GuMeshFactory.obj
 0001:00003560       ??1BigConvexDataBuilder@physx@@QEAA@XZ 0000000180004560 f   GuCookingBigConvexDataBuilder.obj
 0001:00003560       ??1Box@Gu@physx@@QEAA@XZ   0000000180004560 f   GuBox.obj
 0001:00003560       ??1HeightFieldData@Gu@physx@@QEAA@XZ 0000000180004560 f   GuCCTSweepTests.obj
 0001:00003560       ??1PtrTable@Cm@physx@@QEAA@XZ 0000000180004560 f   CmPtrTable.obj
 0001:00003560       ?build@CompanionPrunerIncremental@@UEAAXXZ 0000000180004560 f   GuSecondaryPruner.obj
 0001:00003560       ?checkTreeLeaf@IncrementalAABBTree@Gu@physx@@QEAAXPEAVIncrementalAABBTreeNode@23@I@Z 0000000180004560 f   GuIncrementalAABBTree.obj
 0001:00003560       ?execute@?$PxThreadT@V?$PxReflectionAllocator@VPxThreadImpl@physx@@@physx@@@physx@@UEAAXXZ 0000000180004560 f   GuSDF.obj
 0001:00003560       ?execute@PxRunnable@physx@@UEAAXXZ 0000000180004560 f   GuSDF.obj
 0001:00003560       ?merge@BucketPruner@Gu@physx@@UEAAXPEBX@Z 0000000180004560 f   GuBucketPruner.obj
 0001:00003560       ?merge@IncrementalAABBPruner@Gu@physx@@UEAAXPEBX@Z 0000000180004560 f   GuIncrementalAABBPruner.obj
 0001:00003560       ?onMeshIndexFormatChange@TriangleMeshBuilder@physx@@UEAAXXZ 0000000180004560 f   GuCookingTriangleMesh.obj
 0001:00003560       ?profile@Callback@RTree@Gu@physx@@UEAAXXZ 0000000180004560 f   GuMidphaseRTree.obj
 0001:00003560       ?purge@BucketPruner@Gu@physx@@UEAAXXZ 0000000180004560 f   GuBucketPruner.obj
 0001:00003560       ?requiresObjects@ConvexMesh@Gu@physx@@UEAAXAEAVPxProcessPxBaseCallback@3@@Z 0000000180004560 f   GuConvexMesh.obj
 0001:00003560       ?requiresObjects@HeightField@Gu@physx@@UEAAXAEAVPxProcessPxBaseCallback@3@@Z 0000000180004560 f   GuHeightField.obj
 0001:00003560       ?requiresObjects@SoftBodyMesh@Gu@physx@@UEAAXAEAVPxProcessPxBaseCallback@3@@Z 0000000180004560 f   GuTetrahedronMesh.obj
 0001:00003560       ?requiresObjects@TriangleMesh@Gu@physx@@UEAAXAEAVPxProcessPxBaseCallback@3@@Z 0000000180004560 f   GuTriangleMesh.obj
 0001:00003560       ?swapIndex@CompanionPrunerAABBTree@@UEAAXII@Z 0000000180004560 f   GuSecondaryPruner.obj
 0001:00003560       ?swapIndex@CompanionPrunerBucket@@UEAAXII@Z 0000000180004560 f   GuSecondaryPruner.obj
 0001:00003560       ?timeStampChange@CompanionPrunerAABBTree@@UEAAXXZ 0000000180004560 f   GuSecondaryPruner.obj
 0001:00003560       ?timeStampChange@CompanionPrunerBucket@@UEAAXXZ 0000000180004560 f   GuSecondaryPruner.obj
 0001:00003560       ?visualize@BasePruner@Gu@physx@@UEBAXAEAVPxRenderOutput@3@II@Z 0000000180004560 f   GuIncrementalAABBPruner.obj
 0001:00003560       _guard_check_icall_nop     0000000180004560 f   MSVCRT:guard_support.obj
 0001:00003570       ??4AABBTreeBounds@Gu@physx@@QEAAAEAV012@AEBV012@@Z 0000000180004570 f i GuMeshFactory.obj
 0001:00003570       ??4CmModuleUpdateLoader@Cm@physx@@QEAAAEAV012@AEBV012@@Z 0000000180004570 f i CmWindowsModuleUpdateLoader.obj
 0001:00003570       ??4PtrTable@Cm@physx@@QEAAAEAU012@AEBU012@@Z 0000000180004570 f i CmPtrTable.obj
 0001:00003580       ?add@PtrTable@Cm@physx@@QEAAXPEAXAEAVPtrTableStorageManager@23@@Z 0000000180004580 f   CmPtrTable.obj
 0001:00003690       ?clear@PtrTable@Cm@physx@@QEAAXAEAVPtrTableStorageManager@23@@Z 0000000180004690 f   CmPtrTable.obj
 0001:00003700       ?exportExtraData@PtrTable@Cm@physx@@QEAAXAEAVPxSerializationContext@3@@Z 0000000180004700 f   CmPtrTable.obj
 0001:00003750       ?find@PtrTable@Cm@physx@@QEBAIPEBX@Z 0000000180004750 f   CmPtrTable.obj
 0001:00003780       ?getBinaryMetaData@PtrTable@Cm@physx@@SAXAEAVPxOutputStream@3@@Z 0000000180004780 f   CmPtrTable.obj
 0001:00003970       ?getCount@PtrTable@Cm@physx@@QEBAIXZ 0000000180004970 f i CmPtrTable.obj
 0001:00003980       ?getPtrs@PtrTable@Cm@physx@@QEAAPEAPEAXXZ 0000000180004980 f i CmPtrTable.obj
 0001:00003980       ?getPtrs@PtrTable@Cm@physx@@QEBAPEBQEAXXZ 0000000180004980 f i CmPtrTable.obj
 0001:00003990       ?importExtraData@PtrTable@Cm@physx@@QEAAXAEAVPxDeserializationContext@3@@Z 0000000180004990 f   CmPtrTable.obj
 0001:000039c0       ?realloc@PtrTable@Cm@physx@@AEAAXIIAEAVPtrTableStorageManager@23@@Z 00000001800049c0 f   CmPtrTable.obj
 0001:00003a50       ?replaceWithLast@PtrTable@Cm@physx@@QEAAXIAEAVPtrTableStorageManager@23@@Z 0000000180004a50 f   CmPtrTable.obj
 0001:00003b50       ??_ECollection@Cm@physx@@UEAAPEAXI@Z 0000000180004b50 f i CmCollection.obj
 0001:00003b50       ??_GCollection@Cm@physx@@UEAAPEAXI@Z 0000000180004b50 f i CmCollection.obj
 0001:00003c00       ??_EPxCollection@physx@@MEAAPEAXI@Z 0000000180004c00 f i CmCollection.obj
 0001:00003c00       ??_GPxCollection@physx@@MEAAPEAXI@Z 0000000180004c00 f i CmCollection.obj
 0001:00003c30       ?add@Collection@Cm@physx@@UEAAXAEAVPxBase@3@_K@Z 0000000180004c30 f   CmCollection.obj
 0001:00003d20       ?add@Collection@Cm@physx@@UEAAXAEAVPxCollection@3@@Z 0000000180004d20 f   CmCollection.obj
 0001:00003ec0       ?addId@Collection@Cm@physx@@UEAAXAEAVPxBase@3@_K@Z 0000000180004ec0 f   CmCollection.obj
 0001:00003ff0       ?contains@Collection@Cm@physx@@UEBA_NAEAVPxBase@3@@Z 0000000180004ff0 f   CmCollection.obj
 0001:000040a0       ?create@?$PxHashBase@V?$PxPair@$$CB_KPEAVPxBase@physx@@@physx@@_KU?$PxHash@_K@2@UGetKey@?$PxHashMapBase@_KPEAVPxBase@physx@@U?$PxHash@_K@2@VPxAllocator@2@@2@VPxAllocator@2@$00@physx@@QEAAPEAV?$PxPair@$$CB_KPEAVPxBase@physx@@@2@AEB_KAEA_N@Z 00000001800050a0 f i CmCollection.obj
 0001:000040a0       ?create@?$PxHashBase@V?$PxPair@QEAVPxBase@physx@@_K@physx@@PEAVPxBase@2@U?$PxHash@PEAVPxBase@physx@@@2@UGetKey@?$PxHashMapBase@PEAVPxBase@physx@@_KU?$PxHash@PEAVPxBase@physx@@@2@VPxAllocator@2@@2@VPxAllocator@2@$00@physx@@QEAAPEAV?$PxPair@QEAVPxBase@physx@@_K@2@AEBQEAVPxBase@2@AEA_N@Z 00000001800050a0 f i CmCollection.obj
 0001:00004230       ?erase@?$PxHashBase@V?$PxPair@$$CB_KPEAVPxBase@physx@@@physx@@_KU?$PxHash@_K@2@UGetKey@?$PxHashMapBase@_KPEAVPxBase@physx@@U?$PxHash@_K@2@VPxAllocator@2@@2@VPxAllocator@2@$00@physx@@QEAA_NAEB_K@Z 0000000180005230 f i CmCollection.obj
 0001:00004230       ?erase@?$PxHashBase@V?$PxPair@QEAVPxBase@physx@@_K@physx@@PEAVPxBase@2@U?$PxHash@PEAVPxBase@physx@@@2@UGetKey@?$PxHashMapBase@PEAVPxBase@physx@@_KU?$PxHash@PEAVPxBase@physx@@@2@VPxAllocator@2@@2@VPxAllocator@2@$00@physx@@QEAA_NAEBQEAVPxBase@2@@Z 0000000180005230 f i CmCollection.obj
 0001:000043e0       ?find@?$PxHashMapBase@_KPEAVPxBase@physx@@U?$PxHash@_K@2@VPxAllocator@2@@physx@@QEBAPEBV?$PxPair@$$CB_KPEAVPxBase@physx@@@2@AEB_K@Z 00000001800053e0 f i CmCollection.obj
 0001:00004480       ?find@Collection@Cm@physx@@UEBAPEAVPxBase@3@_K@Z 0000000180005480 f   CmCollection.obj
 0001:000044b0       ?getId@Collection@Cm@physx@@UEBA_KAEBVPxBase@3@@Z 00000001800054b0 f   CmCollection.obj
 0001:00004560       ?getIds@Collection@Cm@physx@@UEBAIPEA_KII@Z 0000000180005560 f   CmCollection.obj
 0001:00004630       ?getNbIds@Collection@Cm@physx@@UEBAIXZ 0000000180005630 f   CmCollection.obj
 0001:00004640       ?getNbObjects@Collection@Cm@physx@@UEBAIXZ 0000000180005640 f   CmCollection.obj
 0001:00004650       ?getObject@Collection@Cm@physx@@UEBAAEAVPxBase@3@I@Z 0000000180005650 f   CmCollection.obj
 0001:00004660       ?getObjects@Collection@Cm@physx@@UEBAIPEAPEAVPxBase@3@II@Z 0000000180005660 f   CmCollection.obj
 0001:000046a0       ?release@Collection@Cm@physx@@UEAAXXZ 00000001800056a0 f i CmCollection.obj
 0001:000046c0       ?remove@Collection@Cm@physx@@UEAAXAEAVPxBase@3@@Z 00000001800056c0 f   CmCollection.obj
 0001:000047b0       ?remove@Collection@Cm@physx@@UEAAXAEAVPxCollection@3@@Z 00000001800057b0 f   CmCollection.obj
 0001:000048c0       ?removeId@Collection@Cm@physx@@UEAAX_K@Z 00000001800058c0 f   CmCollection.obj
 0001:00004940       ?reserveInternal@?$PxHashBase@V?$PxPair@$$CB_KPEAVPxBase@physx@@@physx@@_KU?$PxHash@_K@2@UGetKey@?$PxHashMapBase@_KPEAVPxBase@physx@@U?$PxHash@_K@2@VPxAllocator@2@@2@VPxAllocator@2@$00@physx@@AEAAXI@Z 0000000180005940 f i CmCollection.obj
 0001:00004940       ?reserveInternal@?$PxHashBase@V?$PxPair@QEAVPxBase@physx@@_K@physx@@PEAVPxBase@2@U?$PxHash@PEAVPxBase@physx@@@2@UGetKey@?$PxHashMapBase@PEAVPxBase@physx@@_KU?$PxHash@PEAVPxBase@physx@@@2@VPxAllocator@2@@2@VPxAllocator@2@$00@physx@@AEAAXI@Z 0000000180005940 f i CmCollection.obj
 0001:00004b20       PxCreateCollection         0000000180005b20 f   CmCollection.obj
 0001:00004c10       ??0RadixSort@Cm@physx@@QEAA@XZ 0000000180005c10 f   CmRadixSort.obj
 0001:00004c40       ??0RadixSortBuffered@Cm@physx@@QEAA@XZ 0000000180005c40 f   CmRadixSort.obj
 0001:00004c70       ??1RadixSort@Cm@physx@@UEAA@XZ 0000000180005c70 f   CmRadixSort.obj
 0001:00004c80       ??1RadixSortBuffered@Cm@physx@@UEAA@XZ 0000000180005c80 f   CmRadixSort.obj
 0001:00004cb0       ??_ERadixSort@Cm@physx@@UEAAPEAXI@Z 0000000180005cb0 f i CmRadixSort.obj
 0001:00004d40       ??_ERadixSortBuffered@Cm@physx@@UEAAPEAXI@Z 0000000180005d40 f i CmRadixSort.obj
 0001:00004e30       ?CheckResize@RadixSortBuffered@Cm@physx@@AEAAXI@Z 0000000180005e30 f i CmRadixSort.obj
 0001:00004e70       ?GetNbHits@RadixSort@Cm@physx@@QEBAIXZ 0000000180005e70 f i CmRadixSort.obj
 0001:00004e80       ?GetNbTotalCalls@RadixSort@Cm@physx@@QEBAIXZ 0000000180005e80 f i CmRadixSort.obj
 0001:00004e90       ?GetRanks@RadixSort@Cm@physx@@QEBAPEBIXZ 0000000180005e90 f i CmRadixSort.obj
 0001:00004e90       ?getGridModelInvMass@SoftBodyAuxData@Gu@physx@@UEAAPEAMXZ 0000000180005e90 f i GuTetrahedronMesh.obj
 0001:00004e90       ?getHeightField@HeightFieldUtil@Gu@physx@@QEBAAEBVHeightField@23@XZ 0000000180005e90 f i GuCCTSweepTests.obj
 0001:00004e90       ?getSimulationMesh@SoftBodyMesh@Gu@physx@@UEAAPEAVPxTetrahedronMesh@3@XZ 0000000180005e90 f i GuTetrahedronMesh.obj
 0001:00004e90       ?getSimulationMesh@SoftBodyMesh@Gu@physx@@UEBAPEBVPxTetrahedronMesh@3@XZ 0000000180005e90 f i GuTetrahedronMesh.obj
 0001:00004ea0       ?GetRecyclable@RadixSort@Cm@physx@@QEBAPEAIXZ 0000000180005ea0 f i CmRadixSort.obj
 0001:00004ea0       ?GetValencies@BigConvexData@physx@@QEBAPEBUValency@Gu@2@XZ 0000000180005ea0 f i GuMetaData.obj
 0001:00004ea0       ?getCollisionMesh@SoftBodyMesh@Gu@physx@@UEAAPEAVPxTetrahedronMesh@3@XZ 0000000180005ea0 f i GuTetrahedronMesh.obj
 0001:00004ea0       ?getCollisionMesh@SoftBodyMesh@Gu@physx@@UEBAPEBVPxTetrahedronMesh@3@XZ 0000000180005ea0 f i GuTetrahedronMesh.obj
 0001:00004ea0       ?getHeightFieldGeometry@HeightFieldUtil@Gu@physx@@QEBAAEBVPxHeightFieldGeometry@3@XZ 0000000180005ea0 f i GuCCTSweepTests.obj
 0001:00004ea0       ?getObjects@PruningPool@Gu@physx@@QEBAPEAUPrunerPayload@23@XZ 0000000180005ea0 f i GuIncrementalAABBPrunerCore.obj
 0001:00004ea0       ?getPos@AABBTreeBuildNode@Gu@physx@@QEBAPEBV123@XZ 0000000180005ea0 f i GuMeshFactory.obj
 0001:00004ea0       ?getVertices@TetrahedronMesh@Gu@physx@@UEBAPEBV?$PxVec3T@M@3@XZ 0000000180005ea0 f i GuTetrahedronMesh.obj
 0001:00004ea0       ?getVertices@TriangleMesh@Gu@physx@@UEBAPEBV?$PxVec3T@M@3@XZ 0000000180005ea0 f i GuTriangleMesh.obj
 0001:00004eb0       ?Resize@RadixSortBuffered@Cm@physx@@AEAA_NI@Z 0000000180005eb0 f   CmRadixSort.obj
 0001:00004fb0       ?SetBuffers@RadixSort@Cm@physx@@QEAA_NPEAI00PEAPEAI@Z 0000000180005fb0 f   CmRadixSort.obj
 0001:00004ff0       ?Sort@RadixSort@Cm@physx@@QEAAAEAV123@PEBIIW4RadixHint@23@@Z 0000000180005ff0 f   CmRadixSort.obj
 0001:000056a0       ?Sort@RadixSort@Cm@physx@@QEAAAEAV123@PEBMI@Z 00000001800066a0 f   CmRadixSort.obj
 0001:00005e40       ?Sort@RadixSortBuffered@Cm@physx@@QEAAAEAV123@PEBIIW4RadixHint@23@@Z 0000000180006e40 f   CmRadixSort.obj
 0001:00005ee0       ?Sort@RadixSortBuffered@Cm@physx@@QEAAAEAV123@PEBMI@Z 0000000180006ee0 f   CmRadixSort.obj
 0001:00005f70       ?invalidateRanks@RadixSort@Cm@physx@@QEAAXXZ 0000000180006f70 f i CmRadixSort.obj
 0001:00005f80       ?reset@RadixSortBuffered@Cm@physx@@QEAAXXZ 0000000180006f80 f   CmRadixSort.obj
 0001:00006000       ?ReadHeader@Cm@physx@@YA_NEEEEAEAIAEA_NAEAVPxInputStream@2@@Z 0000000180007000 f   CmSerialize.obj
 0001:00006160       ?ReadIndices@Cm@physx@@YAXGIPEAGAEAVPxInputStream@2@_N@Z 0000000180007160 f   CmSerialize.obj
 0001:000062f0       ?StoreIndices@Cm@physx@@YAXGIPEBGAEAVPxOutputStream@2@_N@Z 00000001800072f0 f   CmSerialize.obj
 0001:000063e0       ?WriteHeader@Cm@physx@@YA_NEEEEI_NAEAVPxOutputStream@2@@Z 00000001800073e0 f   CmSerialize.obj
 0001:00006510       ?computeMaxIndex@physx@@YAGPEBGI@Z 0000000180007510 f   CmSerialize.obj
 0001:00006540       ?computeMaxIndex@physx@@YAIPEBII@Z 0000000180007540 f   CmSerialize.obj
 0001:00006570       ?readByteBuffer@physx@@YAXPEAEIAEAVPxInputStream@1@@Z 0000000180007570 f   CmSerialize.obj
 0001:00006570       ?writeByteBuffer@physx@@YAXPEBEIAEAVPxOutputStream@1@@Z 0000000180007570 f   CmSerialize.obj
 0001:00006590       ?readChunk@physx@@YAXAEAC000AEAVPxInputStream@1@@Z 0000000180007590 f   CmSerialize.obj
 0001:00006610       ?readDword@physx@@YAI_NAEAVPxInputStream@1@@Z 0000000180007610 f   CmSerialize.obj
 0001:00006670       ?readFloat@physx@@YAM_NAEAVPxInputStream@1@@Z 0000000180007670 f   CmSerialize.obj
 0001:000066d0       ?readFloatBuffer@physx@@YA_NPEAMI_NAEAVPxInputStream@1@@Z 00000001800076d0 f   CmSerialize.obj
 0001:00006750       ?readHeader@physx@@YA_NCCCCAEAIAEA_NAEAVPxInputStream@1@@Z 0000000180007750 f   CmSerialize.obj
 0001:000068a0       ?readIndices@physx@@YAXIIPEAIAEAVPxInputStream@1@_N@Z 00000001800078a0 f   CmSerialize.obj
 0001:000069d0       ?readWord@physx@@YAG_NAEAVPxInputStream@1@@Z 00000001800079d0 f   CmSerialize.obj
 0001:00006a10       ?readWordBuffer@physx@@YAXPEAGI_NAEAVPxInputStream@1@@Z 0000000180007a10 f   CmSerialize.obj
 0001:00006a80       ?storeIndices@physx@@YAXIIPEBIAEAVPxOutputStream@1@_N@Z 0000000180007a80 f   CmSerialize.obj
 0001:00006c10       ?writeDword@physx@@YAXI_NAEAVPxOutputStream@1@@Z 0000000180007c10 f   CmSerialize.obj
 0001:00006c60       ?writeFloat@physx@@YAXM_NAEAVPxOutputStream@1@@Z 0000000180007c60 f   CmSerialize.obj
 0001:00006cb0       ?writeFloatBuffer@physx@@YAXPEBMI_NAEAVPxOutputStream@1@@Z 0000000180007cb0 f   CmSerialize.obj
 0001:00006d50       ?writeHeader@physx@@YA_NCCCCI_NAEAVPxOutputStream@1@@Z 0000000180007d50 f   CmSerialize.obj
 0001:00006e80       ?writeWord@physx@@YAXG_NAEAVPxOutputStream@1@@Z 0000000180007e80 f   CmSerialize.obj
 0001:00006ec0       ?writeWordBuffer@physx@@YAXPEBGI_NAEAVPxOutputStream@1@@Z 0000000180007ec0 f   CmSerialize.obj
 0001:00006f40       ??6PxRenderOutput@physx@@QEAAAEAV01@AEBV?$PxTransformT@M@1@@Z 0000000180007f40 f i CmVisualization.obj
 0001:000070c0       ??6PxRenderOutput@physx@@QEAAAEAV01@AEBV?$PxVec3T@M@1@@Z 00000001800080c0 f i CmVisualization.obj
 0001:000073b0       ?renderOutputDebugArrow@Cm@physx@@YAXAEAVPxRenderOutput@2@AEBUPxDebugArrow@2@@Z 00000001800083b0 f   CmVisualization.obj
 0001:00007750       ?renderOutputDebugBasis@Cm@physx@@YAXAEAVPxRenderOutput@2@AEBUPxDebugBasis@2@@Z 0000000180008750 f   CmVisualization.obj
 0001:00007ce0       ?renderOutputDebugBox@Cm@physx@@YAXAEAVPxRenderOutput@2@AEBVPxBounds3@2@@Z 0000000180008ce0 f   CmVisualization.obj
 0001:00007f50       ?renderOutputDebugCircle@Cm@physx@@YAXAEAVPxRenderOutput@2@IM@Z 0000000180008f50 f   CmVisualization.obj
 0001:00008030       ?visualizeAngularLimit@Cm@physx@@YAXAEAVPxRenderOutput@2@MAEBV?$PxTransformT@M@2@MM@Z 0000000180009030 f   CmVisualization.obj
 0001:000081c0       ?visualizeDoubleCone@Cm@physx@@YAXAEAVPxRenderOutput@2@MAEBV?$PxTransformT@M@2@M@Z 00000001800091c0 f   CmVisualization.obj
 0001:000083e0       ?visualizeJointFrames@Cm@physx@@YAXAEAVPxRenderOutput@2@MAEBV?$PxTransformT@M@2@1@Z 00000001800093e0 f   CmVisualization.obj
 0001:00008ee0       ?visualizeLimitCone@Cm@physx@@YAXAEAVPxRenderOutput@2@MAEBV?$PxTransformT@M@2@MM@Z 0000000180009ee0 f   CmVisualization.obj
 0001:00009110       ?visualizeLinearLimit@Cm@physx@@YAXAEAVPxRenderOutput@2@MAEBV?$PxTransformT@M@2@1M@Z 000000018000a110 f   CmVisualization.obj
 0001:00009700       ??0CmModuleUpdateLoader@Cm@physx@@QEAA@PEBD@Z 000000018000a700 f   CmWindowsModuleUpdateLoader.obj
 0001:00009740       ??1CmModuleUpdateLoader@Cm@physx@@QEAA@XZ 000000018000a740 f   CmWindowsModuleUpdateLoader.obj
 0001:00009770       ?LoadModule@CmModuleUpdateLoader@Cm@physx@@QEAAPEAUHINSTANCE__@@PEBD0@Z 000000018000a770 f   CmWindowsModuleUpdateLoader.obj
 0001:000097e0       __local_stdio_printf_options 000000018000a7e0 f i CmWindowsModuleUpdateLoader.obj
 0001:000097f0       printf                     000000018000a7f0 f i CmWindowsModuleUpdateLoader.obj
 0001:00009850       ?commonDelayHook@@YAP6A_JXZIPEAUDelayLoadInfo@@@Z 000000018000a850 f   CmWindowsDelayLoadHook.obj
 0001:00009930       PxSetPhysXCommonDelayLoadHook 000000018000a930 f   CmWindowsDelayLoadHook.obj
 0001:00009940       ??0?$PxQuatT@M@physx@@QEAA@AEBV?$PxMat33T@M@1@@Z 000000018000a940 f i GuBox.obj
 0001:00009b40       ??0Box@Gu@physx@@QEAA@AEBV012@@Z 000000018000ab40 f i GuBox.obj
 0001:00009b40       ??4Box@Gu@physx@@QEAAAEBV012@AEBV012@@Z 000000018000ab40 f i GuBox.obj
 0001:00009ba0       ??0Box@Gu@physx@@QEAA@AEBV?$PxVec3T@M@2@0AEBV?$PxMat33T@M@2@@Z 000000018000aba0 f i GuBox.obj
 0001:00009c10       ??0AABBTreeBuildNode@Gu@physx@@QEAA@XZ 000000018000ac10 f i GuMeshFactory.obj
 0001:00009c10       ??0BigConvexData@physx@@QEAA@W4PxEMPTY@1@@Z 000000018000ac10 f i GuMetaData.obj
 0001:00009c10       ??0Box@Gu@physx@@QEAA@XZ   000000018000ac10 f i GuBox.obj
 0001:00009c10       ??0HeightFieldData@Gu@physx@@QEAA@W4PxEMPTY@2@@Z 000000018000ac10 f i GuCCTSweepTests.obj
 0001:00009c10       ?getAABB@AABBTreeBuildNode@Gu@physx@@QEBAAEBVPxBounds3@3@XZ 000000018000ac10 f i GuMeshFactory.obj
 0001:00009c10       ?getPaddedBounds@HeightFieldData@Gu@physx@@QEBAAEBVCenterExtentsPadded@23@XZ 000000018000ac10 f i GuCCTSweepTests.obj
 0001:00009c20       ?computeAABBExtent@Box@Gu@physx@@QEBA?AV?$PxVec3T@M@3@XZ 000000018000ac20 f i GuBox.obj
 0001:00009ce0       ?computeBoxPoints@Box@Gu@physx@@QEBAXPEIAV?$PxVec3T@M@3@@Z 000000018000ace0 f i GuBox.obj
 0001:00009d20       ?computeOBBPoints@Gu@physx@@YAXPEIAV?$PxVec3T@M@2@AEBV32@1111@Z 000000018000ad20 f   GuBox.obj
 0001:00009fa0       ?create@Box@Gu@physx@@QEAAXAEBVCapsule@23@@Z 000000018000afa0 f   GuBox.obj
 0001:0000a1d0       ?getBoxEdges@Gu@physx@@YAPEBEXZ 000000018000b1d0 f   GuBox.obj
 0001:0000a1e0       ?getTransform@Box@Gu@physx@@QEBA?AV?$PxTransformT@M@3@XZ 000000018000b1e0 f i GuBox.obj
 0001:0000a240       ?isValid@Box@Gu@physx@@QEBA_NXZ 000000018000b240 f i GuBox.obj
 0001:0000a260       ?rotate@Box@Gu@physx@@QEBA?AV?$PxVec3T@M@3@AEBV43@@Z 000000018000b260 f i GuBox.obj
 0001:0000a2f0       ?rotateInv@Box@Gu@physx@@QEBA?AV?$PxVec3T@M@3@AEBV43@@Z 000000018000b2f0 f i GuBox.obj
 0001:0000a380       ?setAxes@Box@Gu@physx@@QEAAXAEBV?$PxVec3T@M@3@00@Z 000000018000b380 f i GuBox.obj
 0001:0000a3c0       ?setEmpty@Box@Gu@physx@@QEAAXXZ 000000018000b3c0 f i GuBox.obj
 0001:0000a400       ?transform@Box@Gu@physx@@QEBA?AV?$PxVec3T@M@3@AEBV43@@Z 000000018000b400 f i GuBox.obj
 0001:0000a4a0       ?PxComputeBasisVectors@physx@@YAXAEBV?$PxVec3T@M@1@0AEAV21@11@Z 000000018000b4a0 f i GuCapsule.obj
 0001:0000a640       ?computeBoxAroundCapsule@Gu@physx@@YAXAEBVCapsule@12@AEAVBox@12@@Z 000000018000b640 f   GuCapsule.obj
 0001:0000a790       ??0HeightFieldData@Gu@physx@@QEAA@$$QEAU012@@Z 000000018000b790 f i GuCCTSweepTests.obj
 0001:0000a790       ??0HeightFieldData@Gu@physx@@QEAA@AEBU012@@Z 000000018000b790 f i GuCCTSweepTests.obj
 0001:0000a790       ??4HeightFieldData@Gu@physx@@QEAAAEAU012@$$QEAU012@@Z 000000018000b790 f i GuCCTSweepTests.obj
 0001:0000a790       ??4HeightFieldData@Gu@physx@@QEAAAEAU012@AEBU012@@Z 000000018000b790 f i GuCCTSweepTests.obj
 0001:0000a7f0       ??0HeightFieldData@Gu@physx@@QEAA@XZ 000000018000b7f0 f i GuCCTSweepTests.obj
 0001:0000a800       ??0HeightFieldTraceUtil@Gu@physx@@QEAA@AEBVPxHeightFieldGeometry@2@@Z 000000018000b800 f i GuCCTSweepTests.obj
 0001:0000a800       ??0HeightFieldUtil@Gu@physx@@QEAA@AEBVPxHeightFieldGeometry@2@@Z 000000018000b800 f i GuCCTSweepTests.obj
 0001:0000a840       ??4AABBTreeBuildParams@Gu@physx@@QEAAAEAV012@AEBV012@@Z 000000018000b840 f i GuMeshFactory.obj
 0001:0000a840       ??4HeightFieldTraceUtil@Gu@physx@@QEAAAEAV012@$$QEAV012@@Z 000000018000b840 f i GuCCTSweepTests.obj
 0001:0000a840       ??4HeightFieldTraceUtil@Gu@physx@@QEAAAEAV012@AEBV012@@Z 000000018000b840 f i GuCCTSweepTests.obj
 0001:0000a840       ??4HeightFieldUtil@Gu@physx@@QEAAAEAV012@AEBV012@@Z 000000018000b840 f i GuCCTSweepTests.obj
 0001:0000a860       ??4HeightFieldUtil@Gu@physx@@QEAAAEAV012@$$QEAV012@@Z 000000018000b860 f i GuCCTSweepTests.obj
 0001:0000a8c0       ??_EEntityReport@Gu@physx@@UEAAPEAXI@Z 000000018000b8c0 f i GuSweepsHF.obj
 0001:0000a8c0       ??_EOverlapCallback@PxBVH@physx@@UEAAPEAXI@Z 000000018000b8c0 f i GuQuerySystem.obj
 0001:0000a8c0       ??_EOverlapReport@Gu@physx@@UEAAPEAXI@Z 000000018000b8c0 f i GuCCTSweepTests.obj
 0001:0000a8c0       ??_ERaycastCallback@PxBVH@physx@@UEAAPEAXI@Z 000000018000b8c0 f i GuQuerySystem.obj
 0001:0000a8c0       ??_ERemapCallback@RTreeCooker@physx@@UEAAPEAXI@Z 000000018000b8c0 f i GuCookingTriangleMesh.obj
 0001:0000a8c0       ??_GEntityReport@Gu@physx@@UEAAPEAXI@Z 000000018000b8c0 f i GuSweepsHF.obj
 0001:0000a8c0       ??_GOverlapCallback@PxBVH@physx@@UEAAPEAXI@Z 000000018000b8c0 f i GuQuerySystem.obj
 0001:0000a8c0       ??_GOverlapReport@Gu@physx@@UEAAPEAXI@Z 000000018000b8c0 f i GuCCTSweepTests.obj
 0001:0000a8c0       ??_GRaycastCallback@PxBVH@physx@@UEAAPEAXI@Z 000000018000b8c0 f i GuQuerySystem.obj
 0001:0000a8c0       ??_GRemapCallback@RTreeCooker@physx@@UEAAPEAXI@Z 000000018000b8c0 f i GuCookingTriangleMesh.obj
 0001:0000a8f0       ??_H@YAXPEAX_K1P6APEAX0@Z@Z 000000018000b8f0 f i GuCCTSweepTests.obj
 0001:0000a940       ?ceilUp@HeightFieldTraceUtil@Gu@physx@@SAMM@Z 000000018000b940 f i GuCCTSweepTests.obj
 0001:0000a980       ?floorDown@HeightFieldTraceUtil@Gu@physx@@SAMM@Z 000000018000b980 f i GuCCTSweepTests.obj
 0001:0000a9c0       ?getHeightAtShapePoint@HeightFieldUtil@Gu@physx@@QEBAMMM@Z 000000018000b9c0 f i GuCCTSweepTests.obj
 0001:0000aa20       ?getHeightInternal2@HeightField@Gu@physx@@QEBAMIMM@Z 000000018000ba20 f i GuCCTSweepTests.obj
 0001:0000ab90       ?getNormalAtShapePoint@HeightFieldUtil@Gu@physx@@QEBA?AV?$PxVec3T@M@3@MM@Z 000000018000bb90 f i GuCCTSweepTests.obj
 0001:0000ac50       ?getNormal_2@HeightField@Gu@physx@@QEBA?AV?$PxVec3T@M@3@IMMMMM@Z 000000018000bc50 f i GuCCTSweepTests.obj
 0001:0000ad70       ?getOneOverColumnScale@HeightFieldUtil@Gu@physx@@QEBAMXZ 000000018000bd70 f i GuCCTSweepTests.obj
 0001:0000ad80       ?getOneOverHeightScale@HeightFieldUtil@Gu@physx@@QEBAMXZ 000000018000bd80 f i GuCCTSweepTests.obj
 0001:0000ad90       ?getOneOverRowScale@HeightFieldUtil@Gu@physx@@QEBAMXZ 000000018000bd90 f i GuCCTSweepTests.obj
 0001:0000ada0       ?hf2shapen@HeightFieldUtil@Gu@physx@@QEBA?AV?$PxVec3T@M@3@AEBV43@@Z 000000018000bda0 f i GuCCTSweepTests.obj
 0001:0000ada0       ?shape2hfp@HeightFieldUtil@Gu@physx@@QEBA?AV?$PxVec3T@M@3@AEBV43@@Z 000000018000bda0 f i GuCCTSweepTests.obj
 0001:0000ade0       ?hf2shapep@HeightFieldUtil@Gu@physx@@QEBA?AV?$PxVec3T@M@3@AEBV43@@Z 000000018000bde0 f i GuCCTSweepTests.obj
 0001:0000ae20       ?hf2worldn@HeightFieldUtil@Gu@physx@@QEBA?AV?$PxVec3T@M@3@AEBV?$PxTransformT@M@3@AEBV43@@Z 000000018000be20 f i GuCCTSweepTests.obj
 0001:0000af90       ?hf2worldp@HeightFieldUtil@Gu@physx@@QEBA?AV?$PxVec3T@M@3@AEBV?$PxTransformT@M@3@AEBV43@@Z 000000018000bf90 f i GuCCTSweepTests.obj
 0001:0000b110       ?overlapAABBTriangles0to1@HeightFieldUtil@Gu@physx@@QEBAXAEBV?$PxTransformT@M@3@AEBVPxBounds3@3@AEAVOverlapReport@23@I@Z 000000018000c110 f i GuCCTSweepTests.obj
 0001:0000b4b0       ?overlapAABBTriangles@HeightFieldUtil@Gu@physx@@QEBAXAEBV?$PxTransformT@M@3@0AEBVPxBounds3@3@AEAVOverlapReport@23@I@Z 000000018000c4b0 f i GuCCTSweepTests.obj
 0001:0000bad0       ?overlapAABBTriangles@HeightFieldUtil@Gu@physx@@QEBAXAEBV?$PxTransformT@M@3@AEBVPxBounds3@3@AEAVOverlapReport@23@I@Z 000000018000cad0 f i GuCCTSweepTests.obj
 0001:0000c1b0       ?sweepBoxTriangles_Precise@Gu@physx@@YA_NIPEBVPxTriangle@2@_NAEBVPxBoxGeometry@2@AEBV?$PxTransformT@M@2@AEBV?$PxVec3T@M@2@MAEAUPxGeomSweepHit@2@PEBIMV?$PxFlags@W4Enum@PxHitFlag@physx@@G@2@@Z 000000018000d1b0 f   GuCCTSweepTests.obj
 0001:0000cf30       ?sweepBox_BoxGeom_Precise@@YA_NAEBVPxGeometry@physx@@AEBV?$PxTransformT@M@2@AEBVPxBoxGeometry@2@1AEBVBox@Gu@2@AEBV?$PxVec3T@M@2@MAEAUPxGeomSweepHit@2@V?$PxFlags@W4Enum@PxHitFlag@physx@@G@2@MPEAUPxQueryThreadContext@2@@Z 000000018000df30 f   GuCCTSweepTests.obj
 0001:0000d0f0       ?sweepBox_CapsuleGeom_Precise@@YA_NAEBVPxGeometry@physx@@AEBV?$PxTransformT@M@2@AEBVPxBoxGeometry@2@1AEBVBox@Gu@2@AEBV?$PxVec3T@M@2@MAEAUPxGeomSweepHit@2@V?$PxFlags@W4Enum@PxHitFlag@physx@@G@2@MPEAUPxQueryThreadContext@2@@Z 000000018000e0f0 f   GuCCTSweepTests.obj
 0001:0000d4c0       ?sweepBox_HeightFieldGeom_Precise@@YA_NAEBVPxGeometry@physx@@AEBV?$PxTransformT@M@2@AEBVPxBoxGeometry@2@1AEBVBox@Gu@2@AEBV?$PxVec3T@M@2@MAEAUPxGeomSweepHit@2@V?$PxFlags@W4Enum@PxHitFlag@physx@@G@2@MPEAUPxQueryThreadContext@2@@Z 000000018000e4c0 f   GuCCTSweepTests.obj
 0001:0000dce0       ?sweepBox_SphereGeom_Precise@@YA_NAEBVPxGeometry@physx@@AEBV?$PxTransformT@M@2@AEBVPxBoxGeometry@2@1AEBVBox@Gu@2@AEBV?$PxVec3T@M@2@MAEAUPxGeomSweepHit@2@V?$PxFlags@W4Enum@PxHitFlag@physx@@G@2@MPEAUPxQueryThreadContext@2@@Z 000000018000ece0 f   GuCCTSweepTests.obj
 0001:0000dfc0       ?sweepCapsule_BoxGeom_Precise@@YA_NAEBVPxGeometry@physx@@AEBV?$PxTransformT@M@2@AEBVPxCapsuleGeometry@2@1AEBVCapsule@Gu@2@AEBV?$PxVec3T@M@2@MAEAUPxGeomSweepHit@2@V?$PxFlags@W4Enum@PxHitFlag@physx@@G@2@MPEAUPxQueryThreadContext@2@@Z 000000018000efc0 f   GuCCTSweepTests.obj
 0001:0000e650       ??0?$CacheMap@UCachedEdge@Gu@physx@@$0IA@@Gu@physx@@QEAA@XZ 000000018000f650 f i GuGeometryQuery.obj
 0001:0000e710       ??0?$CacheMap@UCachedVertex@Gu@physx@@$0IA@@Gu@physx@@QEAA@XZ 000000018000f710 f i GuGeometryQuery.obj
 0001:0000e7d0       ??0MultiplePersistentContactManifold@Gu@physx@@QEAA@XZ 000000018000f7d0 f i GuGeometryQuery.obj
 0001:0000e830       ??0PCMMeshContactGeneration@Gu@physx@@QEAA@AEBT__m128@@0AEBVPxTransformV@aos@2@1AEAVMultiplePersistentContactManifold@12@AEAVPxContactBuffer@2@PEAV?$PxInlineArray@I$0DMA@V?$PxReflectionAllocator@I@physx@@@2@PEAVPxRenderOutput@2@@Z 000000018000f830 f i GuGeometryQuery.obj
 0001:0000f160       ??0PolygonalBox@Gu@physx@@QEAA@AEBV012@@Z 0000000180010160 f i GuGeometryQuery.obj
 0001:0000f3e0       ??4MultiplePersistentContactManifold@Gu@physx@@QEAAAEAV012@$$QEAV012@@Z 00000001800103e0 f i GuGeometryQuery.obj
 0001:0000f6f0       ??4MultiplePersistentContactManifold@Gu@physx@@QEAAAEAV012@AEBV012@@Z 00000001800106f0 f i GuGeometryQuery.obj
 0001:0000f710       ??_E?$SupportLocalImpl@VBoxV@Gu@physx@@@Gu@physx@@UEAAPEAXI@Z 0000000180010710 f i GuGeometryQuery.obj
 0001:0000f710       ??_E?$SupportLocalImpl@VConvexHullNoScaleV@Gu@physx@@@Gu@physx@@UEAAPEAXI@Z 0000000180010710 f i GuMTD.obj
 0001:0000f710       ??_E?$SupportLocalImpl@VConvexHullV@Gu@physx@@@Gu@physx@@UEAAPEAXI@Z 0000000180010710 f i GuGeometryQuery.obj
 0001:0000f710       ??_E?$SupportLocalImpl@VTriangleV@Gu@physx@@@Gu@physx@@UEAAPEAXI@Z 0000000180010710 f i GuPCMContactConvexCommon.obj
 0001:0000f710       ??_G?$SupportLocalImpl@VBoxV@Gu@physx@@@Gu@physx@@UEAAPEAXI@Z 0000000180010710 f i GuGeometryQuery.obj
 0001:0000f710       ??_G?$SupportLocalImpl@VConvexHullNoScaleV@Gu@physx@@@Gu@physx@@UEAAPEAXI@Z 0000000180010710 f i GuMTD.obj
 0001:0000f710       ??_G?$SupportLocalImpl@VConvexHullV@Gu@physx@@@Gu@physx@@UEAAPEAXI@Z 0000000180010710 f i GuGeometryQuery.obj
 0001:0000f710       ??_G?$SupportLocalImpl@VTriangleV@Gu@physx@@@Gu@physx@@UEAAPEAXI@Z 0000000180010710 f i GuPCMContactConvexCommon.obj
 0001:0000f740       ??_ESupportLocal@Gu@physx@@UEAAPEAXI@Z 0000000180010740 f i GuGeometryQuery.obj
 0001:0000f740       ??_GSupportLocal@Gu@physx@@UEAAPEAXI@Z 0000000180010740 f i GuGeometryQuery.obj
 0001:0000f770       ?clearManifold@MultiplePersistentContactManifold@Gu@physx@@QEAAXXZ 0000000180010770 f i GuGeometryQuery.obj
 0001:0000f7d0       ?computeGeomBounds@PxGeometryQuery@physx@@SAXAEAVPxBounds3@2@AEBVPxGeometry@2@AEBV?$PxTransformT@M@2@MMV?$PxFlags@W4Enum@PxGeometryQueryFlag@physx@@I@2@@Z 00000001800107d0 f   GuGeometryQuery.obj
 0001:0000f850       ?computePenetration@PxGeometryQuery@physx@@SA_NAEAV?$PxVec3T@M@2@AEAMAEBVPxGeometry@2@AEBV?$PxTransformT@M@2@23V?$PxFlags@W4Enum@PxGeometryQueryFlag@physx@@I@2@@Z 0000000180010850 f   GuGeometryQuery.obj
 0001:0000f9d0       ?doSupport@?$SupportLocalImpl@VBoxV@Gu@physx@@@Gu@physx@@UEBA?AT__m128@@AEBT4@@Z 00000001800109d0 f i GuGeometryQuery.obj
 0001:0000fa00       ?doSupport@?$SupportLocalImpl@VBoxV@Gu@physx@@@Gu@physx@@UEBAXAEBT__m128@@AEAT4@1@Z 0000000180010a00 f i GuGeometryQuery.obj
 0001:0000fa50       ?doSupport@?$SupportLocalImpl@VConvexHullV@Gu@physx@@@Gu@physx@@UEBA?AT__m128@@AEBT4@@Z 0000000180010a50 f i GuGeometryQuery.obj
 0001:0000fb30       ?doSupport@?$SupportLocalImpl@VConvexHullV@Gu@physx@@@Gu@physx@@UEBAXAEBT__m128@@AEAT4@1@Z 0000000180010b30 f i GuGeometryQuery.obj
 0001:0000fe90       ?generateTriangleContacts@PxGeometryQuery@physx@@SA_NAEBVPxGeometry@2@AEBV?$PxTransformT@M@2@QEBV?$PxVec3T@M@2@IMMMAEAVPxContactBuffer@2@@Z 0000000180010e90 f   GuGeometryQuery.obj
 0001:00011830       ?getEmptyManifold@MultiplePersistentContactManifold@Gu@physx@@QEAAPEAVSinglePersistentContactManifold@23@XZ 0000000180012830 f i GuGeometryQuery.obj
 0001:00011850       ?getManifold@MultiplePersistentContactManifold@Gu@physx@@QEAAPEAVSinglePersistentContactManifold@23@I@Z 0000000180012850 f i GuGeometryQuery.obj
 0001:00011850       ?getManifold@MultiplePersistentContactManifold@Gu@physx@@QEBAPEBVSinglePersistentContactManifold@23@I@Z 0000000180012850 f i GuGeometryQuery.obj
 0001:00011870       ?getUniqueID@PxCustomGeometry@physx@@SAIXZ 0000000180012870 f   GuGeometryQuery.obj
 0001:00011890       ?hillClimbing@ConvexHullV@Gu@physx@@QEBAIAEBT__m128@@@Z 0000000180012890 f i GuGeometryQuery.obj
 0001:00011ac0       ?initialize@MultiplePersistentContactManifold@Gu@physx@@QEAAXXZ 0000000180012ac0 f i GuGeometryQuery.obj
 0001:00011b20       ?invalidate@MultiplePersistentContactManifold@Gu@physx@@QEBAIAEBVPxTransformV@aos@3@AEBT__m128@@1@Z 0000000180012b20 f i GuGeometryQuery.obj
 0001:00011b90       ?invalidate@MultiplePersistentContactManifold@Gu@physx@@QEBAIAEBVPxTransformV@aos@3@AEBT__m128@@@Z 0000000180012b90 f i GuGeometryQuery.obj
 0001:00011c00       ?isUnit@?$PxQuatT@M@physx@@QEBA_NXZ 0000000180012c00 f i GuGeometryQuery.obj
 0001:00011cd0       ?isValid@PxGeometryQuery@physx@@SA_NAEBVPxGeometry@2@@Z 0000000180012cd0 f   GuGeometryQuery.obj
 0001:00011fd0       ?maxTransformPositionDelta@MultiplePersistentContactManifold@Gu@physx@@QEBA?AT__m128@@AEBT4@@Z 0000000180012fd0 f i GuGeometryQuery.obj
 0001:00012010       ?maxTransformQuatDelta@MultiplePersistentContactManifold@Gu@physx@@QEBA?AT__m128@@AEBT4@@Z 0000000180013010 f i GuGeometryQuery.obj
 0001:00012050       ?overlap@PxGeometryQuery@physx@@SA_NAEBVPxGeometry@2@AEBV?$PxTransformT@M@2@01V?$PxFlags@W4Enum@PxGeometryQueryFlag@physx@@I@2@PEAUPxQueryThreadContext@2@@Z 0000000180013050 f   GuGeometryQuery.obj
 0001:00012120       ?pointDistance@PxGeometryQuery@physx@@SAMAEBV?$PxVec3T@M@2@AEBVPxGeometry@2@AEBV?$PxTransformT@M@2@PEAV32@PEAIV?$PxFlags@W4Enum@PxGeometryQueryFlag@physx@@I@2@@Z 0000000180013120 f   GuGeometryQuery.obj
 0001:000128b0       ?populateVerts@?$SupportLocalImpl@VBoxV@Gu@physx@@@Gu@physx@@UEBAXPEBEIPEBV?$PxVec3T@M@3@PEAT__m128@@@Z 00000001800138b0 f i GuGeometryQuery.obj
 0001:000128f0       ?populateVerts@?$SupportLocalImpl@VConvexHullV@Gu@physx@@@Gu@physx@@UEBAXPEBEIPEBV?$PxVec3T@M@3@PEAT__m128@@@Z 00000001800138f0 f i GuGeometryQuery.obj
 0001:00012950       ?raycast@PxGeometryQuery@physx@@SAIAEBV?$PxVec3T@M@2@0AEBVPxGeometry@2@AEBV?$PxTransformT@M@2@MV?$PxFlags@W4Enum@PxHitFlag@physx@@G@2@IPEIAUPxGeomRaycastHit@2@IV?$PxFlags@W4Enum@PxGeometryQueryFlag@physx@@I@2@PEAUPxQueryThreadContext@2@@Z 0000000180013950 f   GuGeometryQuery.obj
 0001:00012a50       ?reduceManifoldContactsInDifferentPatches@MultiplePersistentContactManifold@Gu@physx@@QEBAIPEAPEAUPCMContactPatch@23@IPEAVMeshPersistentContact@23@IAEBT__m128@@@Z 0000000180013a50 f i GuGeometryQuery.obj
 0001:00012bc0       ?refineContactPatchConnective@MultiplePersistentContactManifold@Gu@physx@@QEBAXPEAPEAUPCMContactPatch@23@IPEAVMeshPersistentContact@23@AEBT__m128@@@Z 0000000180013bc0 f i GuGeometryQuery.obj
 0001:00012cb0       ?refreshManifold@MultiplePersistentContactManifold@Gu@physx@@QEAAXAEBVPxMatTransformV@aos@3@AEBT__m128@@1@Z 0000000180013cb0 f i GuGeometryQuery.obj
 0001:00012db0       ?setRelativeTransform@MultiplePersistentContactManifold@Gu@physx@@QEAAXAEBVPxTransformV@aos@3@@Z 0000000180013db0 f i GuGeometryQuery.obj
 0001:00012dc0       ?supportVertexIndex@ConvexHullV@Gu@physx@@QEBAIAEBT__m128@@@Z 0000000180013dc0 f i GuGeometryQuery.obj
 0001:00013040       ?sweep@PxGeometryQuery@physx@@SA_NAEBV?$PxVec3T@M@2@MAEBVPxGeometry@2@AEBV?$PxTransformT@M@2@12AEAUPxGeomSweepHit@2@V?$PxFlags@W4Enum@PxHitFlag@physx@@G@2@MV?$PxFlags@W4Enum@PxGeometryQueryFlag@physx@@I@2@PEAUPxQueryThreadContext@2@@Z 0000000180014040 f   GuGeometryQuery.obj
 0001:000134d0       ?computeBoxPoints@Gu@physx@@YAXAEBVPxBounds3@2@PEIAV?$PxVec3T@M@2@@Z 00000001800144d0 f   GuInternal.obj
 0001:00013570       ?computeSweptBox@Gu@physx@@YAXAEAVBox@12@AEBV?$PxVec3T@M@2@1AEBV?$PxMat33T@M@2@1M@Z 0000000180014570 f   GuInternal.obj
 0001:00013ab0       ?getPlane@Gu@physx@@YA?AVPxPlane@2@AEBV?$PxTransformT@M@2@@Z 0000000180014ab0 f   GuInternal.obj
 0001:00013f00       ??_ECallbackRaycast@RTree@Gu@physx@@UEAAPEAXI@Z 0000000180014f00 f i GuMidphaseRTree.obj
 0001:00013f00       ??_ECallbackRefit@RTree@Gu@physx@@UEAAPEAXI@Z 0000000180014f00 f i GuTriangleMeshRTree.obj
 0001:00013f00       ??_EPxInsertionCallback@physx@@MEAAPEAXI@Z 0000000180014f00 f i GuMeshFactory.obj
 0001:00013f00       ??_GCallbackRaycast@RTree@Gu@physx@@UEAAPEAXI@Z 0000000180014f00 f i GuMidphaseRTree.obj
 0001:00013f00       ??_GCallbackRefit@RTree@Gu@physx@@UEAAPEAXI@Z 0000000180014f00 f i GuTriangleMeshRTree.obj
 0001:00013f00       ??_GPxInsertionCallback@physx@@MEAAPEAXI@Z 0000000180014f00 f i GuMeshFactory.obj
 0001:00013f30       ??$copy@V?$PxReflectionAllocator@USlab@NodeAllocator@Gu@physx@@@physx@@@?$PxArray@USlab@NodeAllocator@Gu@physx@@V?$PxReflectionAllocator@USlab@NodeAllocator@Gu@physx@@@4@@physx@@IEAAXAEBV01@@Z 0000000180014f30 f i GuMeshFactory.obj
 0001:00013ff0       ??0AABBTreeBounds@Gu@physx@@QEAA@XZ 0000000180014ff0 f i GuMeshFactory.obj
 0001:00014000       ??0AABBTreeBuildNode@Gu@physx@@QEAA@AEBV012@@Z 0000000180015000 f i GuMeshFactory.obj
 0001:00014000       ??4AABBTreeBuildNode@Gu@physx@@QEAAAEAV012@AEBV012@@Z 0000000180015000 f i GuMeshFactory.obj
 0001:00014040       ??0AABBTreeBuildParams@Gu@physx@@QEAA@IIPEBVAABBTreeBounds@12@W4BVHBuildStrategy@12@@Z 0000000180015040 f i GuMeshFactory.obj
 0001:00014060       ??0MeshFactory@Gu@physx@@QEAA@XZ 0000000180015060 f   GuMeshFactory.obj
 0001:00014260       ??0NodeAllocator@Gu@physx@@QEAA@AEBV012@@Z 0000000180015260 f i GuMeshFactory.obj
 0001:000142a0       ??0TriangleMeshData@Gu@physx@@QEAA@XZ 00000001800152a0 f i GuMeshFactory.obj
 0001:000143c0       ??1AABBTreeBounds@Gu@physx@@QEAA@XZ 00000001800153c0 f i GuMeshFactory.obj
 0001:000143d0       ??1AABBTreeBuildParams@Gu@physx@@QEAA@XZ 00000001800153d0 f i GuMeshFactory.obj
 0001:000143d0       ?reset@AABBTreeBuildParams@Gu@physx@@QEAAXXZ 00000001800153d0 f i GuMeshFactory.obj
 0001:00014420       ??1CollisionMeshMappingData@Gu@physx@@UEAA@XZ 0000000180015420 f i GuMeshFactory.obj
 0001:00014570       ??1MeshDataBase@Gu@physx@@UEAA@XZ 0000000180015570 f i GuMeshFactory.obj
 0001:000146b0       ??1MeshFactory@Gu@physx@@MEAA@XZ 00000001800156b0 f   GuMeshFactory.obj
 0001:000147f0       ??1RTreeTriangleData@Gu@physx@@UEAA@XZ 00000001800157f0 f i GuMeshFactory.obj
 0001:00014860       ??1SoftBodyCollisionData@Gu@physx@@UEAA@XZ 0000000180015860 f i GuMeshFactory.obj
 0001:000149a0       ??1SoftBodySimulationData@Gu@physx@@UEAA@XZ 00000001800159a0 f i GuMeshFactory.obj
 0001:00014ac0       ??1TetrahedronMeshData@Gu@physx@@QEAA@XZ 0000000180015ac0 f i GuMeshFactory.obj
 0001:00014b50       ??1TriangleMeshData@Gu@physx@@UEAA@XZ 0000000180015b50 f i GuMeshFactory.obj
 0001:00014c80       ??4NodeAllocator@Gu@physx@@QEAAAEAV012@AEBV012@@Z 0000000180015c80 f i GuMeshFactory.obj
 0001:00014d30       ??_EMeshFactory@Gu@physx@@MEAAPEAXI@Z 0000000180015d30 f i GuMeshFactory.obj
 0001:00014e50       ??_FAABBTreeBuildParams@Gu@physx@@QEAAXXZ 0000000180015e50 f i GuMeshFactory.obj
 0001:00014e70       ??_EBV4TriangleData@Gu@physx@@UEAAPEAXI@Z 0000000180015e70 f i GuMeshFactory.obj
 0001:00014e70       ??_GBV4TriangleData@Gu@physx@@UEAAPEAXI@Z 0000000180015e70 f i GuMeshFactory.obj
 0001:00014f00       ??_ECollisionMeshMappingData@Gu@physx@@UEAAPEAXI@Z 0000000180015f00 f i GuMeshFactory.obj
 0001:00014f00       ??_GCollisionMeshMappingData@Gu@physx@@UEAAPEAXI@Z 0000000180015f00 f i GuMeshFactory.obj
 0001:00014f70       ??_EMeshDataBase@Gu@physx@@UEAAPEAXI@Z 0000000180015f70 f i GuMeshFactory.obj
 0001:00014f70       ??_GMeshDataBase@Gu@physx@@UEAAPEAXI@Z 0000000180015f70 f i GuMeshFactory.obj
 0001:00014fe0       ??_EPxCollisionMeshMappingData@physx@@UEAAPEAXI@Z 0000000180015fe0 f i GuMeshFactory.obj
 0001:00014fe0       ??_GPxCollisionMeshMappingData@physx@@UEAAPEAXI@Z 0000000180015fe0 f i GuMeshFactory.obj
 0001:00015030       ??_ERTreeTriangleData@Gu@physx@@UEAAPEAXI@Z 0000000180016030 f i GuMeshFactory.obj
 0001:00015030       ??_GRTreeTriangleData@Gu@physx@@UEAAPEAXI@Z 0000000180016030 f i GuMeshFactory.obj
 0001:000150e0       ??_ESoftBodyCollisionData@Gu@physx@@UEAAPEAXI@Z 00000001800160e0 f i GuMeshFactory.obj
 0001:000150e0       ??_GSoftBodyCollisionData@Gu@physx@@UEAAPEAXI@Z 00000001800160e0 f i GuMeshFactory.obj
 0001:00015150       ??_ESoftBodySimulationData@Gu@physx@@UEAAPEAXI@Z 0000000180016150 f i GuMeshFactory.obj
 0001:00015150       ??_GSoftBodySimulationData@Gu@physx@@UEAAPEAXI@Z 0000000180016150 f i GuMeshFactory.obj
 0001:000151c0       ??_ETriangleMeshData@Gu@physx@@UEAAPEAXI@Z 00000001800161c0 f i GuMeshFactory.obj
 0001:000151c0       ??_GTriangleMeshData@Gu@physx@@UEAAPEAXI@Z 00000001800161c0 f i GuMeshFactory.obj
 0001:00015230       ??_V@YAXPEAX_K@Z           0000000180016230 f i MSVCRT:delete_array_size.obj
 0001:00015230       ?__global_delete@@YAXPEAX_K@Z 0000000180016230 f i GuMeshFactory.obj
 0001:00015240       ?addBVH@MeshFactory@Gu@physx@@QEAAXPEAVBVH@23@_N@Z 0000000180016240 f   GuMeshFactory.obj
 0001:000152c0       ?addConvexMesh@MeshFactory@Gu@physx@@QEAAXPEAVConvexMesh@23@_N@Z 00000001800162c0 f   GuMeshFactory.obj
 0001:00015340       ?addFactoryListener@MeshFactory@Gu@physx@@QEAAXAEAVMeshFactoryListener@23@@Z 0000000180016340 f   GuMeshFactory.obj
 0001:000153b0       ?addHeightField@MeshFactory@Gu@physx@@QEAAXPEAVHeightField@23@_N@Z 00000001800163b0 f   GuMeshFactory.obj
 0001:00015430       ?addSoftBodyMesh@MeshFactory@Gu@physx@@QEAAXPEAVSoftBodyMesh@23@_N@Z 0000000180016430 f   GuMeshFactory.obj
 0001:000154b0       ?addTetrahedronMesh@MeshFactory@Gu@physx@@QEAAXPEAVTetrahedronMesh@23@_N@Z 00000001800164b0 f   GuMeshFactory.obj
 0001:00015530       ?addTriangleMesh@MeshFactory@Gu@physx@@QEAAXPEAVTriangleMesh@23@_N@Z 0000000180016530 f   GuMeshFactory.obj
 0001:000155b0       ?allocate@?$PxArray@USlab@NodeAllocator@Gu@physx@@V?$PxReflectionAllocator@USlab@NodeAllocator@Gu@physx@@@4@@physx@@IEAAPEAUSlab@NodeAllocator@Gu@2@I@Z 00000001800165b0 f i GuMeshFactory.obj
 0001:00015640       ?allocateAdjacencies@TriangleMeshData@Gu@physx@@QEAAPEAIXZ 0000000180016640 f i GuMeshFactory.obj
 0001:000156b0       ?allocateExtraTrigData@TriangleMeshData@Gu@physx@@QEAAPEAEXZ 00000001800166b0 f i GuMeshFactory.obj
 0001:00015720       ?allocateFaceRemap@TriangleMeshData@Gu@physx@@QEAAPEAIXZ 0000000180016720 f i GuMeshFactory.obj
 0001:00015790       ?allocateGridModelData@SoftBodySimulationData@Gu@physx@@QEAAXIIIIIII@Z 0000000180016790 f i GuMeshFactory.obj
 0001:00015a10       ?allocateMaterials@TetrahedronMeshData@Gu@physx@@QEAAPEAGXZ 0000000180016a10 f i GuMeshFactory.obj
 0001:00015a80       ?allocateMaterials@TriangleMeshData@Gu@physx@@QEAAPEAGXZ 0000000180016a80 f i GuMeshFactory.obj
 0001:00015af0       ?allocateTetrahedrons@TetrahedronMeshData@Gu@physx@@QEAAXII@Z 0000000180016af0 f i GuMeshFactory.obj
 0001:00015b80       ?allocateTriangles@TriangleMeshData@Gu@physx@@QEAAPEAXI_NI@Z 0000000180016b80 f i GuMeshFactory.obj
 0001:00015c70       ?allocateVertices@MeshDataBase@Gu@physx@@QEAAPEAV?$PxVec3T@M@3@I@Z 0000000180016c70 f i GuMeshFactory.obj
 0001:00015ce0       ?allocateVertices@TetrahedronMeshData@Gu@physx@@QEAAPEAV?$PxVec3T@M@3@II@Z 0000000180016ce0 f i GuMeshFactory.obj
 0001:00015d80       ?allocatemappingData@CollisionMeshMappingData@Gu@physx@@QEAAXIIII@Z 0000000180016d80 f i GuMeshFactory.obj
 0001:00015f60       ?create@?$PxHashBase@PEAVBVH@Gu@physx@@PEAV123@U?$PxHash@PEAVBVH@Gu@physx@@@3@UGetKey@?$PxHashSetBase@PEAVBVH@Gu@physx@@U?$PxHash@PEAVBVH@Gu@physx@@@3@VPxAllocator@3@$00@3@VPxAllocator@3@$00@physx@@QEAAPEAPEAVBVH@Gu@2@AEBQEAV342@AEA_N@Z 0000000180016f60 f i GuMeshFactory.obj
 0001:00015f60       ?create@?$PxHashBase@PEAVConvexMesh@Gu@physx@@PEAV123@U?$PxHash@PEAVConvexMesh@Gu@physx@@@3@UGetKey@?$PxHashSetBase@PEAVConvexMesh@Gu@physx@@U?$PxHash@PEAVConvexMesh@Gu@physx@@@3@VPxAllocator@3@$00@3@VPxAllocator@3@$00@physx@@QEAAPEAPEAVConvexMesh@Gu@2@AEBQEAV342@AEA_N@Z 0000000180016f60 f i GuMeshFactory.obj
 0001:00015f60       ?create@?$PxHashBase@PEAVHeightField@Gu@physx@@PEAV123@U?$PxHash@PEAVHeightField@Gu@physx@@@3@UGetKey@?$PxHashSetBase@PEAVHeightField@Gu@physx@@U?$PxHash@PEAVHeightField@Gu@physx@@@3@VPxAllocator@3@$00@3@VPxAllocator@3@$00@physx@@QEAAPEAPEAVHeightField@Gu@2@AEBQEAV342@AEA_N@Z 0000000180016f60 f i GuMeshFactory.obj
 0001:00015f60       ?create@?$PxHashBase@PEAVSoftBodyMesh@Gu@physx@@PEAV123@U?$PxHash@PEAVSoftBodyMesh@Gu@physx@@@3@UGetKey@?$PxHashSetBase@PEAVSoftBodyMesh@Gu@physx@@U?$PxHash@PEAVSoftBodyMesh@Gu@physx@@@3@VPxAllocator@3@$00@3@VPxAllocator@3@$00@physx@@QEAAPEAPEAVSoftBodyMesh@Gu@2@AEBQEAV342@AEA_N@Z 0000000180016f60 f i GuMeshFactory.obj
 0001:00015f60       ?create@?$PxHashBase@PEAVTetrahedronMesh@Gu@physx@@PEAV123@U?$PxHash@PEAVTetrahedronMesh@Gu@physx@@@3@UGetKey@?$PxHashSetBase@PEAVTetrahedronMesh@Gu@physx@@U?$PxHash@PEAVTetrahedronMesh@Gu@physx@@@3@VPxAllocator@3@$00@3@VPxAllocator@3@$00@physx@@QEAAPEAPEAVTetrahedronMesh@Gu@2@AEBQEAV342@AEA_N@Z 0000000180016f60 f i GuMeshFactory.obj
 0001:00015f60       ?create@?$PxHashBase@PEAVTriangleMesh@Gu@physx@@PEAV123@U?$PxHash@PEAVTriangleMesh@Gu@physx@@@3@UGetKey@?$PxHashSetBase@PEAVTriangleMesh@Gu@physx@@U?$PxHash@PEAVTriangleMesh@Gu@physx@@@3@VPxAllocator@3@$00@3@VPxAllocator@3@$00@physx@@QEAAPEAPEAVTriangleMesh@Gu@2@AEBQEAV342@AEA_N@Z 0000000180016f60 f i GuMeshFactory.obj
 0001:000160f0       ?createBVH@MeshFactory@Gu@physx@@IEAAPEAVPxBVH@3@AEAVBVHData@23@@Z 00000001800170f0 f   GuMeshFactory.obj
 0001:000161e0       ?createBVH@MeshFactory@Gu@physx@@QEAAPEAVPxBVH@3@AEAVPxInputStream@3@@Z 00000001800171e0 f   GuMeshFactory.obj
 0001:00016300       ?createBVH@MeshFactory@Gu@physx@@QEAAPEAVPxBVH@3@PEAX@Z 0000000180017300 f   GuMeshFactory.obj
 0001:00016310       ?createConvexMesh@MeshFactory@Gu@physx@@IEAAPEAVPxConvexMesh@3@AEAUConvexHullInitData@23@@Z 0000000180017310 f   GuMeshFactory.obj
 0001:00016400       ?createConvexMesh@MeshFactory@Gu@physx@@QEAAPEAVPxConvexMesh@3@AEAVPxInputStream@3@@Z 0000000180017400 f   GuMeshFactory.obj
 0001:00016520       ?createConvexMesh@MeshFactory@Gu@physx@@QEAAPEAVPxConvexMesh@3@PEAX@Z 0000000180017520 f   GuMeshFactory.obj
 0001:00016530       ?createHeightField@MeshFactory@Gu@physx@@QEAAPEAVPxHeightField@3@AEAVPxInputStream@3@@Z 0000000180017530 f   GuMeshFactory.obj
 0001:00016650       ?createHeightField@MeshFactory@Gu@physx@@QEAAPEAVPxHeightField@3@PEAX@Z 0000000180017650 f   GuMeshFactory.obj
 0001:00016740       ?createSoftBodyMesh@MeshFactory@Gu@physx@@IEAAPEAVPxSoftBodyMesh@3@AEAVSoftBodyMeshData@23@@Z 0000000180017740 f   GuMeshFactory.obj
 0001:00016830       ?createSoftBodyMesh@MeshFactory@Gu@physx@@QEAAPEAVPxSoftBodyMesh@3@AEAVPxInputStream@3@@Z 0000000180017830 f   GuMeshFactory.obj
 0001:00016e30       ?createSoftBodyMesh@MeshFactory@Gu@physx@@QEAAPEAVPxSoftBodyMesh@3@PEAX@Z 0000000180017e30 f   GuMeshFactory.obj
 0001:00016e40       ?createTetrahedronMesh@MeshFactory@Gu@physx@@IEAAPEAVPxTetrahedronMesh@3@AEAVTetrahedronMeshData@23@@Z 0000000180017e40 f   GuMeshFactory.obj
 0001:00016f30       ?createTetrahedronMesh@MeshFactory@Gu@physx@@QEAAPEAVPxTetrahedronMesh@3@AEAVPxInputStream@3@@Z 0000000180017f30 f   GuMeshFactory.obj
 0001:00016fa0       ?createTetrahedronMesh@MeshFactory@Gu@physx@@QEAAPEAVPxTetrahedronMesh@3@PEAX@Z 0000000180017fa0 f   GuMeshFactory.obj
 0001:00016fb0       ?createTriangleMesh@MeshFactory@Gu@physx@@IEAAPEAVPxTriangleMesh@3@AEAVTriangleMeshData@23@@Z 0000000180017fb0 f   GuMeshFactory.obj
 0001:00017130       ?createTriangleMesh@MeshFactory@Gu@physx@@QEAAPEAVPxTriangleMesh@3@AEAVPxInputStream@3@@Z 0000000180018130 f   GuMeshFactory.obj
 0001:00017190       ?createTriangleMesh@MeshFactory@Gu@physx@@QEAAPEAVPxTriangleMesh@3@PEAX@Z 0000000180018190 f   GuMeshFactory.obj
 0001:000171a0       ?erase@?$PxHashBase@PEAVBVH@Gu@physx@@PEAV123@U?$PxHash@PEAVBVH@Gu@physx@@@3@UGetKey@?$PxHashSetBase@PEAVBVH@Gu@physx@@U?$PxHash@PEAVBVH@Gu@physx@@@3@VPxAllocator@3@$00@3@VPxAllocator@3@$00@physx@@QEAA_NAEBQEAVBVH@Gu@2@@Z 00000001800181a0 f i GuMeshFactory.obj
 0001:000171a0       ?erase@?$PxHashBase@PEAVConvexMesh@Gu@physx@@PEAV123@U?$PxHash@PEAVConvexMesh@Gu@physx@@@3@UGetKey@?$PxHashSetBase@PEAVConvexMesh@Gu@physx@@U?$PxHash@PEAVConvexMesh@Gu@physx@@@3@VPxAllocator@3@$00@3@VPxAllocator@3@$00@physx@@QEAA_NAEBQEAVConvexMesh@Gu@2@@Z 00000001800181a0 f i GuMeshFactory.obj
 0001:000171a0       ?erase@?$PxHashBase@PEAVHeightField@Gu@physx@@PEAV123@U?$PxHash@PEAVHeightField@Gu@physx@@@3@UGetKey@?$PxHashSetBase@PEAVHeightField@Gu@physx@@U?$PxHash@PEAVHeightField@Gu@physx@@@3@VPxAllocator@3@$00@3@VPxAllocator@3@$00@physx@@QEAA_NAEBQEAVHeightField@Gu@2@@Z 00000001800181a0 f i GuMeshFactory.obj
 0001:000171a0       ?erase@?$PxHashBase@PEAVSoftBodyMesh@Gu@physx@@PEAV123@U?$PxHash@PEAVSoftBodyMesh@Gu@physx@@@3@UGetKey@?$PxHashSetBase@PEAVSoftBodyMesh@Gu@physx@@U?$PxHash@PEAVSoftBodyMesh@Gu@physx@@@3@VPxAllocator@3@$00@3@VPxAllocator@3@$00@physx@@QEAA_NAEBQEAVSoftBodyMesh@Gu@2@@Z 00000001800181a0 f i GuMeshFactory.obj
 0001:000171a0       ?erase@?$PxHashBase@PEAVTetrahedronMesh@Gu@physx@@PEAV123@U?$PxHash@PEAVTetrahedronMesh@Gu@physx@@@3@UGetKey@?$PxHashSetBase@PEAVTetrahedronMesh@Gu@physx@@U?$PxHash@PEAVTetrahedronMesh@Gu@physx@@@3@VPxAllocator@3@$00@3@VPxAllocator@3@$00@physx@@QEAA_NAEBQEAVTetrahedronMesh@Gu@2@@Z 00000001800181a0 f i GuMeshFactory.obj
 0001:000171a0       ?erase@?$PxHashBase@PEAVTriangleMesh@Gu@physx@@PEAV123@U?$PxHash@PEAVTriangleMesh@Gu@physx@@@3@UGetKey@?$PxHashSetBase@PEAVTriangleMesh@Gu@physx@@U?$PxHash@PEAVTriangleMesh@Gu@physx@@@3@VPxAllocator@3@$00@3@VPxAllocator@3@$00@physx@@QEAA_NAEBQEAVTriangleMesh@Gu@2@@Z 00000001800181a0 f i GuMeshFactory.obj
 0001:00017320       ?getBVHs@MeshFactory@Gu@physx@@QEBAIPEAPEAVPxBVH@3@II@Z 0000000180018320 f   GuMeshFactory.obj
 0001:000173c0       ?getBounds@AABBTreeBounds@Gu@physx@@QEAAPEAVPxBounds3@3@XZ 00000001800183c0 f i GuMeshFactory.obj
 0001:000173c0       ?getBounds@AABBTreeBounds@Gu@physx@@QEBAPEBVPxBounds3@3@XZ 00000001800183c0 f i GuMeshFactory.obj
 0001:000173d0       ?getConvexMeshes@MeshFactory@Gu@physx@@QEBAIPEAPEAVPxConvexMesh@3@II@Z 00000001800183d0 f   GuMeshFactory.obj
 0001:00017470       ?getHeightFields@MeshFactory@Gu@physx@@QEBAIPEAPEAVPxHeightField@3@II@Z 0000000180018470 f   GuMeshFactory.obj
 0001:00017510       ?getNbBVHs@MeshFactory@Gu@physx@@QEBAIXZ 0000000180018510 f   GuMeshFactory.obj
 0001:00017550       ?getNbConvexMeshes@MeshFactory@Gu@physx@@QEBAIXZ 0000000180018550 f   GuMeshFactory.obj
 0001:00017590       ?getNbHeightFields@MeshFactory@Gu@physx@@QEBAIXZ 0000000180018590 f   GuMeshFactory.obj
 0001:000175d0       ?getNbPrimitives@AABBTreeBuildNode@Gu@physx@@QEBAIXZ 00000001800185d0 f i GuMeshFactory.obj
 0001:000175d0       ?getNbRuntimePrimitives@AABBTreeBuildNode@Gu@physx@@QEBAIXZ 00000001800185d0 f i GuMeshFactory.obj
 0001:000175e0       ?getNbSoftBodyMeshes@MeshFactory@Gu@physx@@QEBAIXZ 00000001800185e0 f   GuMeshFactory.obj
 0001:00017620       ?getNbTetrahedronMeshes@MeshFactory@Gu@physx@@QEBAIXZ 0000000180018620 f   GuMeshFactory.obj
 0001:00017660       ?getNbTriangleMeshes@MeshFactory@Gu@physx@@QEBAIXZ 0000000180018660 f   GuMeshFactory.obj
 0001:000176a0       ?getNeg@AABBTreeBuildNode@Gu@physx@@QEBAPEBV123@XZ 00000001800186a0 f i GuMeshFactory.obj
 0001:000176c0       ?getPrimitives@AABBTreeBuildNode@Gu@physx@@QEAAPEAIPEAI@Z 00000001800186c0 f i GuMeshFactory.obj
 0001:000176c0       ?getPrimitives@AABBTreeBuildNode@Gu@physx@@QEBAPEBIPEBI@Z 00000001800186c0 f i GuMeshFactory.obj
 0001:000176d0       ?getSoftBodyMeshes@MeshFactory@Gu@physx@@QEBAIPEAPEAVPxSoftBodyMesh@3@II@Z 00000001800186d0 f   GuMeshFactory.obj
 0001:00017770       ?getTetrahedronMeshes@MeshFactory@Gu@physx@@QEBAIPEAPEAVPxTetrahedronMesh@3@II@Z 0000000180018770 f   GuMeshFactory.obj
 0001:00017800       ?getTriangleMeshes@MeshFactory@Gu@physx@@QEBAIPEAPEAVPxTriangleMesh@3@II@Z 0000000180018800 f   GuMeshFactory.obj
 0001:00017890       ?growAndPushBack@?$PxArray@PEAVMeshFactoryListener@Gu@physx@@V?$PxReflectionAllocator@PEAVMeshFactoryListener@Gu@physx@@@3@@physx@@IEAAAEAPEAVMeshFactoryListener@Gu@2@AEBQEAV342@@Z 0000000180018890 f i GuMeshFactory.obj
 0001:000179b0       ?isLeaf@AABBTreeBuildNode@Gu@physx@@QEBA_NXZ 00000001800189b0 f i GuMeshFactory.obj
 0001:000193d0       ?moveFrom@AABBTreeBounds@Gu@physx@@QEAAXAEAV123@@Z 000000018001a3d0 f i GuMeshFactory.obj
 0001:000193e0       ?notifyFactoryListener@MeshFactory@Gu@physx@@QEAAXPEBVPxBase@3@G@Z 000000018001a3e0 f   GuMeshFactory.obj
 0001:00019450       ?ownsMemory@AABBTreeBounds@Gu@physx@@QEBA_NXZ 000000018001a450 f i GuMeshFactory.obj
 0001:00019730       ?recreate@?$PxArray@USlab@NodeAllocator@Gu@physx@@V?$PxReflectionAllocator@USlab@NodeAllocator@Gu@physx@@@4@@physx@@IEAAXI@Z 000000018001a730 f i GuMeshFactory.obj
 0001:000197e0       ?release@CollisionMeshMappingData@Gu@physx@@UEAAXXZ 000000018001a7e0 f i GuMeshFactory.obj
 0001:00019800       ?release@MeshFactory@Gu@physx@@QEAAXXZ 000000018001a800 f   GuMeshFactory.obj
 0001:00019900       ?remove@MeshFactory@Gu@physx@@QEAA_NAEAVPxBase@3@@Z 000000018001a900 f   GuMeshFactory.obj
 0001:00019a00       ?removeBVH@MeshFactory@Gu@physx@@QEAA_NAEAVPxBVH@3@@Z 000000018001aa00 f   GuMeshFactory.obj
 0001:00019a50       ?removeConvexMesh@MeshFactory@Gu@physx@@QEAA_NAEAVPxConvexMesh@3@@Z 000000018001aa50 f   GuMeshFactory.obj
 0001:00019aa0       ?removeFactoryListener@MeshFactory@Gu@physx@@QEAAXAEAVMeshFactoryListener@23@@Z 000000018001aaa0 f   GuMeshFactory.obj
 0001:00019b30       ?removeHeightField@MeshFactory@Gu@physx@@QEAA_NAEAVPxHeightField@3@@Z 000000018001ab30 f   GuMeshFactory.obj
 0001:00019b80       ?removeSoftBodyMesh@MeshFactory@Gu@physx@@QEAA_NAEAVPxSoftBodyMesh@3@@Z 000000018001ab80 f   GuMeshFactory.obj
 0001:00019bd0       ?removeTetrahedronMesh@MeshFactory@Gu@physx@@QEAA_NAEAVPxTetrahedronMesh@3@@Z 000000018001abd0 f   GuMeshFactory.obj
 0001:00019c20       ?removeTriangleMesh@MeshFactory@Gu@physx@@QEAA_NAEAVPxTriangleMesh@3@@Z 000000018001ac20 f   GuMeshFactory.obj
 0001:00019c70       ?reserveInternal@?$PxHashBase@PEAVBVH@Gu@physx@@PEAV123@U?$PxHash@PEAVBVH@Gu@physx@@@3@UGetKey@?$PxHashSetBase@PEAVBVH@Gu@physx@@U?$PxHash@PEAVBVH@Gu@physx@@@3@VPxAllocator@3@$00@3@VPxAllocator@3@$00@physx@@AEAAXI@Z 000000018001ac70 f i GuMeshFactory.obj
 0001:00019c70       ?reserveInternal@?$PxHashBase@PEAVConvexMesh@Gu@physx@@PEAV123@U?$PxHash@PEAVConvexMesh@Gu@physx@@@3@UGetKey@?$PxHashSetBase@PEAVConvexMesh@Gu@physx@@U?$PxHash@PEAVConvexMesh@Gu@physx@@@3@VPxAllocator@3@$00@3@VPxAllocator@3@$00@physx@@AEAAXI@Z 000000018001ac70 f i GuMeshFactory.obj
 0001:00019c70       ?reserveInternal@?$PxHashBase@PEAVHeightField@Gu@physx@@PEAV123@U?$PxHash@PEAVHeightField@Gu@physx@@@3@UGetKey@?$PxHashSetBase@PEAVHeightField@Gu@physx@@U?$PxHash@PEAVHeightField@Gu@physx@@@3@VPxAllocator@3@$00@3@VPxAllocator@3@$00@physx@@AEAAXI@Z 000000018001ac70 f i GuMeshFactory.obj
 0001:00019c70       ?reserveInternal@?$PxHashBase@PEAVSoftBodyMesh@Gu@physx@@PEAV123@U?$PxHash@PEAVSoftBodyMesh@Gu@physx@@@3@UGetKey@?$PxHashSetBase@PEAVSoftBodyMesh@Gu@physx@@U?$PxHash@PEAVSoftBodyMesh@Gu@physx@@@3@VPxAllocator@3@$00@3@VPxAllocator@3@$00@physx@@AEAAXI@Z 000000018001ac70 f i GuMeshFactory.obj
 0001:00019c70       ?reserveInternal@?$PxHashBase@PEAVTetrahedronMesh@Gu@physx@@PEAV123@U?$PxHash@PEAVTetrahedronMesh@Gu@physx@@@3@UGetKey@?$PxHashSetBase@PEAVTetrahedronMesh@Gu@physx@@U?$PxHash@PEAVTetrahedronMesh@Gu@physx@@@3@VPxAllocator@3@$00@3@VPxAllocator@3@$00@physx@@AEAAXI@Z 000000018001ac70 f i GuMeshFactory.obj
 0001:00019c70       ?reserveInternal@?$PxHashBase@PEAVTriangleMesh@Gu@physx@@PEAV123@U?$PxHash@PEAVTriangleMesh@Gu@physx@@@3@UGetKey@?$PxHashSetBase@PEAVTriangleMesh@Gu@physx@@U?$PxHash@PEAVTriangleMesh@Gu@physx@@@3@VPxAllocator@3@$00@3@VPxAllocator@3@$00@physx@@AEAAXI@Z 000000018001ac70 f i GuMeshFactory.obj
 0001:00019e40       ?setBounds@AABBTreeBounds@Gu@physx@@QEAAXPEAVPxBounds3@3@@Z 000000018001ae40 f i GuMeshFactory.obj
 0001:00019e50       ?setNbRunTimePrimitives@AABBTreeBuildNode@Gu@physx@@QEAAXI@Z 000000018001ae50 f i GuMeshFactory.obj
 0001:00019e60       ?takeOwnership@AABBTreeBounds@Gu@physx@@QEAAXXZ 000000018001ae60 f i GuMeshFactory.obj
 0001:00019e70       getInsertionCallback       000000018001ae70 f   GuMeshFactory.obj
 0001:00019e80       ??4BigConvexData@physx@@QEAAAEAV01@AEBV01@@Z 000000018001ae80 f i GuMetaData.obj
 0001:00019ea0       ?GetAdjacentVerts@BigConvexData@physx@@QEBAPEBEXZ 000000018001aea0 f i GuMetaData.obj
 0001:00019ea0       ?getSoftBodyAuxData@SoftBodyMesh@Gu@physx@@UEAAPEAVPxSoftBodyAuxData@3@XZ 000000018001aea0 f i GuTetrahedronMesh.obj
 0001:00019ea0       ?getSoftBodyAuxData@SoftBodyMesh@Gu@physx@@UEBAPEBVPxSoftBodyAuxData@3@XZ 000000018001aea0 f i GuTetrahedronMesh.obj
 0001:00019ea0       ?getTransforms@PruningPool@Gu@physx@@QEAAPEAV?$PxTransformT@M@3@XZ 000000018001aea0 f i GuIncrementalAABBPrunerCore.obj
 0001:00019ea0       ?getTransforms@PruningPool@Gu@physx@@QEBAPEBV?$PxTransformT@M@3@XZ 000000018001aea0 f i GuIncrementalAABBPrunerCore.obj
 0001:00019ea0       ?getTriangles@TriangleMesh@Gu@physx@@UEBAPEBXXZ 000000018001aea0 f i GuTriangleMesh.obj
 0001:00019eb0       ?GetNbNeighbors@BigConvexData@physx@@QEBAGI@Z 000000018001aeb0 f i GuMetaData.obj
 0001:00019eb0       ?GetValency@BigConvexData@physx@@QEBAGI@Z 000000018001aeb0 f i GuMetaData.obj
 0001:00019ec0       ?GetNbSamples@BigConvexData@physx@@QEBAIXZ 000000018001aec0 f i GuMetaData.obj
 0001:00019ed0       ?GetNbVerts@BigConvexData@physx@@QEBAIXZ 000000018001aed0 f i GuMetaData.obj
 0001:00019ed0       ?getNbVertices@TetrahedronMesh@Gu@physx@@UEBAIXZ 000000018001aed0 f i GuTetrahedronMesh.obj
 0001:00019ed0       ?getNbVertices@TriangleMesh@Gu@physx@@UEBAIXZ 000000018001aed0 f i GuTriangleMesh.obj
 0001:00019ee0       ?GetNeighbors@BigConvexData@physx@@QEBAPEBEI@Z 000000018001aee0 f i GuMetaData.obj
 0001:00019ef0       ?GetOffset@BigConvexData@physx@@QEBAGI@Z 000000018001aef0 f i GuMetaData.obj
 0001:00019f00       ?GetSubdiv@BigConvexData@physx@@QEBAIXZ 000000018001af00 f i GuMetaData.obj
 0001:00019f10       ?getBinaryMetaData@BV4Tree@Gu@physx@@SAXAEAVPxOutputStream@3@@Z 000000018001af10 f   GuMetaData.obj
 0001:0001a4b0       ?getBinaryMetaData@BV4TriangleMesh@Gu@physx@@SAXAEAVPxOutputStream@3@@Z 000000018001b4b0 f   GuMetaData.obj
 0001:0001a830       ?getBinaryMetaData@BigConvexData@physx@@SAXAEAVPxOutputStream@2@@Z 000000018001b830 f   GuMetaData.obj
 0001:0001aaf0       ?getBinaryMetaData@ConvexMesh@Gu@physx@@SAXAEAVPxOutputStream@3@@Z 000000018001baf0 f   GuMetaData.obj
 0001:0001b190       ?getBinaryMetaData@HeightField@Gu@physx@@SAXAEAVPxOutputStream@3@@Z 000000018001c190 f   GuMetaData.obj
 0001:0001b580       ?getBinaryMetaData@RTree@Gu@physx@@SAXAEAVPxOutputStream@3@@Z 000000018001c580 f   GuMetaData.obj
 0001:0001b8b0       ?getBinaryMetaData@RTreeTriangleMesh@Gu@physx@@SAXAEAVPxOutputStream@3@@Z 000000018001c8b0 f   GuMetaData.obj
 0001:0001b990       ?getBinaryMetaData@SDF@Gu@physx@@SAXAEAVPxOutputStream@3@@Z 000000018001c990 f   GuMetaData.obj
 0001:0001be70       ?getBinaryMetaData@TriangleMesh@Gu@physx@@SAXAEAVPxOutputStream@3@@Z 000000018001ce70 f   GuMetaData.obj
 0001:0001d520       ?doSupport@?$SupportLocalImpl@VConvexHullNoScaleV@Gu@physx@@@Gu@physx@@UEBA?AT__m128@@AEBT4@@Z 000000018001e520 f i GuMTD.obj
 0001:0001d570       ?doSupport@?$SupportLocalImpl@VConvexHullNoScaleV@Gu@physx@@@Gu@physx@@UEBAXAEBT__m128@@AEAT4@1@Z 000000018001e570 f i GuMTD.obj
 0001:0001d6f0       ?populateVerts@?$SupportLocalImpl@VConvexHullNoScaleV@Gu@physx@@@Gu@physx@@UEBAXPEBEIPEBV?$PxVec3T@M@3@PEAT__m128@@@Z 000000018001e6f0 f i GuMTD.obj
 0001:0001d730       ?getInternalData@TriangleMesh@Gu@physx@@UEBA_NAEAUPxTriangleMeshInternalData@3@_N@Z 000000018001e730 f   GuTriangleMesh.obj
 0001:0001d730       ?isDynamic@Pruner@Gu@physx@@UEBA_NXZ 000000018001e730 f   GuIncrementalAABBPruner.obj
 0001:0001f570       ??$gjk@U?$LocalConvex@VCapsuleV@Gu@physx@@@Gu@physx@@U?$LocalConvex@VConvexHullV@Gu@physx@@@23@@Gu@physx@@YA?AW4GjkStatus@01@AEBU?$LocalConvex@VCapsuleV@Gu@physx@@@01@AEBU?$LocalConvex@VConvexHullV@Gu@physx@@@01@AEBT__m128@@2AEAT5@333@Z 0000000180020570 f i GuMTD.obj
 0001:000202d0       ??0SeparatingAxes@Gu@physx@@QEAA@$$QEAV012@@Z 00000001800212d0 f i GuMTD.obj
 0001:000202d0       ??0SeparatingAxes@Gu@physx@@QEAA@AEBV012@@Z 00000001800212d0 f i GuMTD.obj
 0001:000203e0       ??0SeparatingAxes@Gu@physx@@QEAA@XZ 00000001800213e0 f i GuMTD.obj
 0001:000203f0       ??4SeparatingAxes@Gu@physx@@QEAAAEAV012@$$QEAV012@@Z 00000001800213f0 f i GuMTD.obj
 0001:000203f0       ??4SeparatingAxes@Gu@physx@@QEAAAEAV012@AEBV012@@Z 00000001800213f0 f i GuMTD.obj
 0001:00020500       ??_E?$LocalConvex@UCustomConvexV@@@Gu@physx@@UEAAPEAXI@Z 0000000180021500 f i GuGjkQuery.obj
 0001:00020500       ??_E?$LocalConvex@UPointConvexV@@@Gu@physx@@UEAAPEAXI@Z 0000000180021500 f i GuGjkQuery.obj
 0001:00020500       ??_E?$LocalConvex@VBoxV@Gu@physx@@@Gu@physx@@UEAAPEAXI@Z 0000000180021500 f i GuSweepTests.obj
 0001:00020500       ??_E?$LocalConvex@VCapsuleV@Gu@physx@@@Gu@physx@@UEAAPEAXI@Z 0000000180021500 f i GuMTD.obj
 0001:00020500       ??_E?$LocalConvex@VConvexHullNoScaleV@Gu@physx@@@Gu@physx@@UEAAPEAXI@Z 0000000180021500 f i GuPCMContactBoxConvex.obj
 0001:00020500       ??_E?$LocalConvex@VConvexHullV@Gu@physx@@@Gu@physx@@UEAAPEAXI@Z 0000000180021500 f i GuMTD.obj
 0001:00020500       ??_E?$LocalConvex@VTetrahedronV@Gu@physx@@@Gu@physx@@UEAAPEAXI@Z 0000000180021500 f i GuCookingTetrahedronMesh.obj
 0001:00020500       ??_E?$LocalConvex@VTriangleV@Gu@physx@@@Gu@physx@@UEAAPEAXI@Z 0000000180021500 f i GuSweepTests.obj
 0001:00020500       ??_EGjkConvex@Gu@physx@@UEAAPEAXI@Z 0000000180021500 f i GuMTD.obj
 0001:00020500       ??_G?$LocalConvex@UCustomConvexV@@@Gu@physx@@UEAAPEAXI@Z 0000000180021500 f i GuGjkQuery.obj
 0001:00020500       ??_G?$LocalConvex@UPointConvexV@@@Gu@physx@@UEAAPEAXI@Z 0000000180021500 f i GuGjkQuery.obj
 0001:00020500       ??_G?$LocalConvex@VBoxV@Gu@physx@@@Gu@physx@@UEAAPEAXI@Z 0000000180021500 f i GuSweepTests.obj
 0001:00020500       ??_G?$LocalConvex@VCapsuleV@Gu@physx@@@Gu@physx@@UEAAPEAXI@Z 0000000180021500 f i GuMTD.obj
 0001:00020500       ??_G?$LocalConvex@VConvexHullNoScaleV@Gu@physx@@@Gu@physx@@UEAAPEAXI@Z 0000000180021500 f i GuPCMContactBoxConvex.obj
 0001:00020500       ??_G?$LocalConvex@VConvexHullV@Gu@physx@@@Gu@physx@@UEAAPEAXI@Z 0000000180021500 f i GuMTD.obj
 0001:00020500       ??_G?$LocalConvex@VTetrahedronV@Gu@physx@@@Gu@physx@@UEAAPEAXI@Z 0000000180021500 f i GuCookingTetrahedronMesh.obj
 0001:00020500       ??_G?$LocalConvex@VTriangleV@Gu@physx@@@Gu@physx@@UEAAPEAXI@Z 0000000180021500 f i GuSweepTests.obj
 0001:00020500       ??_GGjkConvex@Gu@physx@@UEAAPEAXI@Z 0000000180021500 f i GuMTD.obj
 0001:00024670       ?getAxes@SeparatingAxes@Gu@physx@@QEBAPEBV?$PxVec3T@M@3@XZ 0000000180025670 f i GuMTD.obj
 0001:00024680       ?getCenter@?$LocalConvex@UCustomConvexV@@@Gu@physx@@UEBA?AT__m128@@XZ 0000000180025680 f i GuGjkQuery.obj
 0001:00024680       ?getCenter@?$LocalConvex@UPointConvexV@@@Gu@physx@@UEBA?AT__m128@@XZ 0000000180025680 f i GuGjkQuery.obj
 0001:00024680       ?getCenter@?$LocalConvex@VBoxV@Gu@physx@@@Gu@physx@@UEBA?AT__m128@@XZ 0000000180025680 f i GuSweepTests.obj
 0001:00024680       ?getCenter@?$LocalConvex@VCapsuleV@Gu@physx@@@Gu@physx@@UEBA?AT__m128@@XZ 0000000180025680 f i GuMTD.obj
 0001:00024680       ?getCenter@?$LocalConvex@VConvexHullNoScaleV@Gu@physx@@@Gu@physx@@UEBA?AT__m128@@XZ 0000000180025680 f i GuPCMContactBoxConvex.obj
 0001:00024680       ?getCenter@?$LocalConvex@VConvexHullV@Gu@physx@@@Gu@physx@@UEBA?AT__m128@@XZ 0000000180025680 f i GuMTD.obj
 0001:00024680       ?getCenter@?$LocalConvex@VTetrahedronV@Gu@physx@@@Gu@physx@@UEBA?AT__m128@@XZ 0000000180025680 f i GuCookingTetrahedronMesh.obj
 0001:00024680       ?getCenter@?$LocalConvex@VTriangleV@Gu@physx@@@Gu@physx@@UEBA?AT__m128@@XZ 0000000180025680 f i GuSweepTests.obj
 0001:00024690       ?getCount@BuildStats@Gu@physx@@QEBAIXZ 0000000180025690 f i GuBV4Build.obj
 0001:00024690       ?getNbActiveObjects@PruningPool@Gu@physx@@QEBAIXZ 0000000180025690 f i GuIncrementalAABBPrunerCore.obj
 0001:00024690       ?getNumAxes@SeparatingAxes@Gu@physx@@QEBAIXZ 0000000180025690 f i GuMTD.obj
 0001:000246a0       ?getSweepMargin@?$LocalConvex@VCapsuleV@Gu@physx@@@Gu@physx@@UEBA?AT__m128@@XZ 00000001800256a0 f i GuMTD.obj
 0001:000246a0       ?getSweepMargin@?$RelativeConvex@VCapsuleV@Gu@physx@@@Gu@physx@@UEBA?AT__m128@@XZ 00000001800256a0 f i GuCCDSweepPrimitives.obj
 0001:000246b0       ?getSweepMargin@?$LocalConvex@UCustomConvexV@@@Gu@physx@@UEBA?AT__m128@@XZ 00000001800256b0 f i GuGjkQuery.obj
 0001:000246b0       ?getSweepMargin@?$LocalConvex@UPointConvexV@@@Gu@physx@@UEBA?AT__m128@@XZ 00000001800256b0 f i GuGjkQuery.obj
 0001:000246b0       ?getSweepMargin@?$LocalConvex@VBoxV@Gu@physx@@@Gu@physx@@UEBA?AT__m128@@XZ 00000001800256b0 f i GuSweepTests.obj
 0001:000246b0       ?getSweepMargin@?$LocalConvex@VConvexHullNoScaleV@Gu@physx@@@Gu@physx@@UEBA?AT__m128@@XZ 00000001800256b0 f i GuPCMContactBoxConvex.obj
 0001:000246b0       ?getSweepMargin@?$LocalConvex@VConvexHullV@Gu@physx@@@Gu@physx@@UEBA?AT__m128@@XZ 00000001800256b0 f i GuMTD.obj
 0001:000246b0       ?getSweepMargin@?$RelativeConvex@UCustomConvexV@@@Gu@physx@@UEBA?AT__m128@@XZ 00000001800256b0 f i GuGjkQuery.obj
 0001:000246b0       ?getSweepMargin@?$RelativeConvex@VBoxV@Gu@physx@@@Gu@physx@@UEBA?AT__m128@@XZ 00000001800256b0 f i GuOverlapTests.obj
 0001:000246b0       ?getSweepMargin@?$RelativeConvex@VConvexHullNoScaleV@Gu@physx@@@Gu@physx@@UEBA?AT__m128@@XZ 00000001800256b0 f i GuPCMContactConvexConvex.obj
 0001:000246b0       ?getSweepMargin@?$RelativeConvex@VConvexHullV@Gu@physx@@@Gu@physx@@UEBA?AT__m128@@XZ 00000001800256b0 f i GuOverlapTests.obj
 0001:000246d0       ?getSweepMargin@GjkConvex@Gu@physx@@UEBA?AT__m128@@XZ 00000001800256d0 f i GuMTD.obj
 0001:000246f0       ?pointConvexDistance@@YA_NAEAV?$PxVec3T@M@physx@@0AEAMAEBV12@PEBVConvexMesh@Gu@2@AEBVPxMeshScale@2@AEBUPxTransformPadded@2@@Z 00000001800256f0 f   GuMTD.obj
 0001:00025450       ?reset@SeparatingAxes@Gu@physx@@QEAAXXZ 0000000180026450 f i GuMTD.obj
 0001:00025460       ?support@?$LocalConvex@VCapsuleV@Gu@physx@@@Gu@physx@@UEBA?AT__m128@@AEBT4@@Z 0000000180026460 f i GuMTD.obj
 0001:000254c0       ?support@?$LocalConvex@VCapsuleV@Gu@physx@@@Gu@physx@@UEBA?AT__m128@@AEBT4@AEAH@Z 00000001800264c0 f i GuMTD.obj
 0001:00025530       ?support@?$LocalConvex@VConvexHullV@Gu@physx@@@Gu@physx@@UEBA?AT__m128@@AEBT4@@Z 0000000180026530 f i GuMTD.obj
 0001:00025610       ?support@?$LocalConvex@VConvexHullV@Gu@physx@@@Gu@physx@@UEBA?AT__m128@@AEBT4@AEAH@Z 0000000180026610 f i GuMTD.obj
 0001:000256e0       ?support@GjkConvex@Gu@physx@@UEBA?AT__m128@@AEBT4@@Z 00000001800266e0 f i GuMTD.obj
 0001:00025700       ?support@GjkConvex@Gu@physx@@UEBA?AT__m128@@AEBT4@AEAH@Z 0000000180026700 f i GuMTD.obj
 0001:00025720       ?supportPoint@?$LocalConvex@VCapsuleV@Gu@physx@@@Gu@physx@@UEBA?AT__m128@@H@Z 0000000180026720 f i GuMTD.obj
 0001:00025750       ?supportPoint@?$LocalConvex@VConvexHullV@Gu@physx@@@Gu@physx@@UEBA?AT__m128@@H@Z 0000000180026750 f i GuMTD.obj
 0001:000257a0       ?supportPoint@GjkConvex@Gu@physx@@UEBA?AT__m128@@H@Z 00000001800267a0 f i GuMTD.obj
 0001:000257c0       ?supportPoint@?$RelativeConvex@VBoxV@Gu@physx@@@Gu@physx@@UEBA?AT__m128@@H@Z 00000001800267c0 f i GuOverlapTests.obj
 0001:00025830       ?support@?$RelativeConvex@VBoxV@Gu@physx@@@Gu@physx@@UEBA?AT__m128@@AEBT4@@Z 0000000180026830 f i GuOverlapTests.obj
 0001:000258b0       ?support@?$RelativeConvex@VBoxV@Gu@physx@@@Gu@physx@@UEBA?AT__m128@@AEBT4@AEAH@Z 00000001800268b0 f i GuOverlapTests.obj
 0001:00025940       ?getCenter@?$RelativeConvex@UCustomConvexV@@@Gu@physx@@UEBA?AT__m128@@XZ 0000000180026940 f i GuGjkQuery.obj
 0001:00025940       ?getCenter@?$RelativeConvex@VBoxV@Gu@physx@@@Gu@physx@@UEBA?AT__m128@@XZ 0000000180026940 f i GuOverlapTests.obj
 0001:00025940       ?getCenter@?$RelativeConvex@VCapsuleV@Gu@physx@@@Gu@physx@@UEBA?AT__m128@@XZ 0000000180026940 f i GuCCDSweepPrimitives.obj
 0001:00025940       ?getCenter@?$RelativeConvex@VConvexHullNoScaleV@Gu@physx@@@Gu@physx@@UEBA?AT__m128@@XZ 0000000180026940 f i GuPCMContactConvexConvex.obj
 0001:00025940       ?getCenter@?$RelativeConvex@VConvexHullV@Gu@physx@@@Gu@physx@@UEBA?AT__m128@@XZ 0000000180026940 f i GuOverlapTests.obj
 0001:00025940       ?getCenter@?$RelativeConvex@VTriangleV@Gu@physx@@@Gu@physx@@UEBA?AT__m128@@XZ 0000000180026940 f i GuCCDSweepPrimitives.obj
 0001:00025980       ??_E?$RelativeConvex@UCustomConvexV@@@Gu@physx@@UEAAPEAXI@Z 0000000180026980 f i GuGjkQuery.obj
 0001:00025980       ??_E?$RelativeConvex@VBoxV@Gu@physx@@@Gu@physx@@UEAAPEAXI@Z 0000000180026980 f i GuOverlapTests.obj
 0001:00025980       ??_E?$RelativeConvex@VCapsuleV@Gu@physx@@@Gu@physx@@UEAAPEAXI@Z 0000000180026980 f i GuCCDSweepPrimitives.obj
 0001:00025980       ??_E?$RelativeConvex@VConvexHullNoScaleV@Gu@physx@@@Gu@physx@@UEAAPEAXI@Z 0000000180026980 f i GuPCMContactConvexConvex.obj
 0001:00025980       ??_E?$RelativeConvex@VConvexHullV@Gu@physx@@@Gu@physx@@UEAAPEAXI@Z 0000000180026980 f i GuOverlapTests.obj
 0001:00025980       ??_E?$RelativeConvex@VTriangleV@Gu@physx@@@Gu@physx@@UEAAPEAXI@Z 0000000180026980 f i GuCCDSweepPrimitives.obj
 0001:00025980       ??_G?$RelativeConvex@UCustomConvexV@@@Gu@physx@@UEAAPEAXI@Z 0000000180026980 f i GuGjkQuery.obj
 0001:00025980       ??_G?$RelativeConvex@VBoxV@Gu@physx@@@Gu@physx@@UEAAPEAXI@Z 0000000180026980 f i GuOverlapTests.obj
 0001:00025980       ??_G?$RelativeConvex@VCapsuleV@Gu@physx@@@Gu@physx@@UEAAPEAXI@Z 0000000180026980 f i GuCCDSweepPrimitives.obj
 0001:00025980       ??_G?$RelativeConvex@VConvexHullNoScaleV@Gu@physx@@@Gu@physx@@UEAAPEAXI@Z 0000000180026980 f i GuPCMContactConvexConvex.obj
 0001:00025980       ??_G?$RelativeConvex@VConvexHullV@Gu@physx@@@Gu@physx@@UEAAPEAXI@Z 0000000180026980 f i GuOverlapTests.obj
 0001:00025980       ??_G?$RelativeConvex@VTriangleV@Gu@physx@@@Gu@physx@@UEAAPEAXI@Z 0000000180026980 f i GuCCDSweepPrimitives.obj
 0001:00027b00       ?supportPoint@?$RelativeConvex@VConvexHullV@Gu@physx@@@Gu@physx@@UEBA?AT__m128@@H@Z 0000000180028b00 f i GuOverlapTests.obj
 0001:00027b80       ?support@?$RelativeConvex@VConvexHullV@Gu@physx@@@Gu@physx@@UEBA?AT__m128@@AEBT4@@Z 0000000180028b80 f i GuOverlapTests.obj
 0001:00027cb0       ?support@?$RelativeConvex@VConvexHullV@Gu@physx@@@Gu@physx@@UEBA?AT__m128@@AEBT4@AEAH@Z 0000000180028cb0 f i GuOverlapTests.obj
 0001:00027e40       ??$gjk@U?$RelativeConvex@VBoxV@Gu@physx@@@Gu@physx@@U?$LocalConvex@VConvexHullV@Gu@physx@@@23@@Gu@physx@@YA?AW4GjkStatus@01@AEBU?$RelativeConvex@VBoxV@Gu@physx@@@01@AEBU?$LocalConvex@VConvexHullV@Gu@physx@@@01@AEBT__m128@@2AEAT5@333@Z 0000000180028e40 f i GuOverlapTests.obj
 0001:00028bf0       ??$gjk@U?$RelativeConvex@VConvexHullV@Gu@physx@@@Gu@physx@@U?$LocalConvex@VConvexHullV@Gu@physx@@@23@@Gu@physx@@YA?AW4GjkStatus@01@AEBU?$RelativeConvex@VConvexHullV@Gu@physx@@@01@AEBU?$LocalConvex@VConvexHullV@Gu@physx@@@01@AEBT__m128@@2AEAT5@333@Z 0000000180029bf0 f i GuOverlapTests.obj
 0001:00029a70       ?ComputeCubemapNearestOffset@physx@@YAIAEBV?$PxVec3T@M@1@I@Z 000000018002aa70 f i GuOverlapTests.obj
 0001:00029b70       ?getOverlapFuncTable@Gu@physx@@YAPEAY0L@Q6A_NAEBVPxGeometry@2@AEBV?$PxTransformT@M@2@01PEAUTriggerCache@12@PEAUPxQueryThreadContext@2@@ZXZ 000000018002ab70 f   GuOverlapTests.obj
 0001:0002b730       ?raycast_box@@YAIAEBVPxGeometry@physx@@AEBV?$PxTransformT@M@2@AEBV?$PxVec3T@M@2@2MV?$PxFlags@W4Enum@PxHitFlag@physx@@G@2@IPEIAUPxGeomRaycastHit@2@IPEAUPxQueryThreadContext@2@@Z 000000018002c730 f   GuRaycastTests.obj
 0001:0002bd60       ?raycast_sphere@@YAIAEBVPxGeometry@physx@@AEBV?$PxTransformT@M@2@AEBV?$PxVec3T@M@2@2MV?$PxFlags@W4Enum@PxHitFlag@physx@@G@2@IPEIAUPxGeomRaycastHit@2@IPEAUPxQueryThreadContext@2@@Z 000000018002cd60 f   GuRaycastTests.obj
 0001:0002bef0       ?raycast_capsule@@YAIAEBVPxGeometry@physx@@AEBV?$PxTransformT@M@2@AEBV?$PxVec3T@M@2@2MV?$PxFlags@W4Enum@PxHitFlag@physx@@G@2@IPEIAUPxGeomRaycastHit@2@IPEAUPxQueryThreadContext@2@@Z 000000018002cef0 f   GuRaycastTests.obj
 0001:0002c450       ?raycast_plane@@YAIAEBVPxGeometry@physx@@AEBV?$PxTransformT@M@2@AEBV?$PxVec3T@M@2@2MV?$PxFlags@W4Enum@PxHitFlag@physx@@G@2@IPEIAUPxGeomRaycastHit@2@IPEAUPxQueryThreadContext@2@@Z 000000018002d450 f   GuRaycastTests.obj
 0001:0002c5c0       ?raycast_convexMesh@@YAIAEBVPxGeometry@physx@@AEBV?$PxTransformT@M@2@AEBV?$PxVec3T@M@2@2MV?$PxFlags@W4Enum@PxHitFlag@physx@@G@2@IPEIAUPxGeomRaycastHit@2@IPEAUPxQueryThreadContext@2@@Z 000000018002d5c0 f   GuRaycastTests.obj
 0001:0002d0c0       ?getMidphaseID@RTreeTriangleMesh@Gu@physx@@UEBA?AW4Enum@PxMeshMidPhase@3@XZ 000000018002e0c0 f   GuTriangleMeshRTree.obj
 0001:0002d0c0       ?getMidphaseID@RTreeTriangleMeshBuilder@physx@@UEBA?AW4Enum@PxMeshMidPhase@2@XZ 000000018002e0c0 f   GuCookingTriangleMesh.obj
 0001:0002d0c0       ?getTetrahedraRemap@TetrahedronMesh@Gu@physx@@UEBAPEBIXZ 000000018002e0c0 f   GuTetrahedronMesh.obj
 0001:0002d0c0       ?raycast_hairsystem@@YAIAEBVPxGeometry@physx@@AEBV?$PxTransformT@M@2@AEBV?$PxVec3T@M@2@2MV?$PxFlags@W4Enum@PxHitFlag@physx@@G@2@IPEIAUPxGeomRaycastHit@2@IPEAUPxQueryThreadContext@2@@Z 000000018002e0c0 f   GuRaycastTests.obj
 0001:0002d0c0       ?raycast_particlesystem@@YAIAEBVPxGeometry@physx@@AEBV?$PxTransformT@M@2@AEBV?$PxVec3T@M@2@2MV?$PxFlags@W4Enum@PxHitFlag@physx@@G@2@IPEIAUPxGeomRaycastHit@2@IPEAUPxQueryThreadContext@2@@Z 000000018002e0c0 f   GuRaycastTests.obj
 0001:0002d0c0       ?raycast_softbody@@YAIAEBVPxGeometry@physx@@AEBV?$PxTransformT@M@2@AEBV?$PxVec3T@M@2@2MV?$PxFlags@W4Enum@PxHitFlag@physx@@G@2@IPEIAUPxGeomRaycastHit@2@IPEAUPxQueryThreadContext@2@@Z 000000018002e0c0 f   GuRaycastTests.obj
 0001:0002d0c0       __scrt_stub_for_is_c_termination_complete 000000018002e0c0 f   MSVCRT:ucrt_stubs.obj
 0001:0002d0c0       _is_c_termination_complete 000000018002e0c0 f   MSVCRT:ucrt_stubs.obj
 0001:0002d0d0       ?raycast_triangleMesh@@YAIAEBVPxGeometry@physx@@AEBV?$PxTransformT@M@2@AEBV?$PxVec3T@M@2@2MV?$PxFlags@W4Enum@PxHitFlag@physx@@G@2@IPEIAUPxGeomRaycastHit@2@IPEAUPxQueryThreadContext@2@@Z 000000018002e0d0 f   GuRaycastTests.obj
 0001:0002d160       ?raycast_heightField@@YAIAEBVPxGeometry@physx@@AEBV?$PxTransformT@M@2@AEBV?$PxVec3T@M@2@2MV?$PxFlags@W4Enum@PxHitFlag@physx@@G@2@IPEIAUPxGeomRaycastHit@2@IPEAUPxQueryThreadContext@2@@Z 000000018002e160 f   GuRaycastTests.obj
 0001:0002ebb0       ??Dphysx@@YA?AV?$PxMat34T@M@0@AEBVPxMeshScale@0@AEBV?$PxTransformT@M@0@@Z 000000018002fbb0 f i GuRaycastTests.obj
 0001:0002f6a0       ?getRaycastFuncTable@Gu@physx@@YAAEAY0L@Q6AIAEBVPxGeometry@2@AEBV?$PxTransformT@M@2@AEBV?$PxVec3T@M@2@2MV?$PxFlags@W4Enum@PxHitFlag@physx@@G@2@IPEIAUPxGeomRaycastHit@2@IPEAUPxQueryThreadContext@2@@ZXZ 00000001800306a0 f   GuRaycastTests.obj
 0001:0002f6b0       ??Dphysx@@YA?AV?$PxMat34T@M@0@AEBV?$PxTransformT@M@0@AEBVPxMeshScale@0@@Z 00000001800306b0 f i GuSweepMTD.obj
 0001:0002fc00       ??_E?$MeshHitCallback@UPxGeomRaycastHit@physx@@@Gu@physx@@UEAAPEAXI@Z 0000000180030c00 f i GuSweepMTD.obj
 0001:0002fc00       ??_G?$MeshHitCallback@UPxGeomRaycastHit@physx@@@Gu@physx@@UEAAPEAXI@Z 0000000180030c00 f i GuSweepMTD.obj
 0001:0002fc30       ??_EMeshMTDGenerationCallback@@UEAAPEAXI@Z 0000000180030c30 f i GuSweepMTD.obj
 0001:0002fc30       ??_GMeshMTDGenerationCallback@@UEAAPEAXI@Z 0000000180030c30 f i GuSweepMTD.obj
 0001:0002fc60       ??_EMidPhaseQueryLocalReport@@UEAAPEAXI@Z 0000000180030c60 f i GuSweepMTD.obj
 0001:0002fc60       ??_ERTreeCookerRemap@@UEAAPEAXI@Z 0000000180030c60 f i GuCookingTriangleMesh.obj
 0001:0002fc60       ??_GMidPhaseQueryLocalReport@@UEAAPEAXI@Z 0000000180030c60 f i GuSweepMTD.obj
 0001:0002fc60       ??_GRTreeCookerRemap@@UEAAPEAXI@Z 0000000180030c60 f i GuCookingTriangleMesh.obj
 0001:0002fc90       ?allocate@?$PxArray@IV?$PxReflectionAllocator@I@physx@@@physx@@IEAAPEAII@Z 0000000180030c90 f i GuSweepMTD.obj
 0001:0002fd20       ?computeBox_HeightFieldMTD@Gu@physx@@YA_NAEBVPxHeightFieldGeometry@2@AEBV?$PxTransformT@M@2@AEBVBox@12@1M_NAEAUPxGeomSweepHit@2@@Z 0000000180030d20 f   GuSweepMTD.obj
 0001:00030ae0       ?computeBox_TriangleMeshMTD@Gu@physx@@YA_NAEBVPxTriangleMeshGeometry@2@AEBV?$PxTransformT@M@2@AEBVBox@12@1M_NAEAUPxGeomSweepHit@2@@Z 0000000180031ae0 f   GuSweepMTD.obj
 0001:00031b20       ?computeCapsule_CapsuleMTD@Gu@physx@@YA_NAEBVCapsule@12@0AEAUPxGeomSweepHit@2@@Z 0000000180032b20 f   GuSweepMTD.obj
 0001:00031d60       ?computeCapsule_HeightFieldMTD@Gu@physx@@YA_NAEBVPxHeightFieldGeometry@2@AEBV?$PxTransformT@M@2@AEAVCapsuleV@12@M_NAEAUPxGeomSweepHit@2@@Z 0000000180032d60 f   GuSweepMTD.obj
 0001:00032530       ?computeCapsule_TriangleMeshMTD@Gu@physx@@YA_NAEBVPxTriangleMeshGeometry@2@AEBV?$PxTransformT@M@2@AEAVCapsuleV@12@M_NAEAUPxGeomSweepHit@2@@Z 0000000180033530 f   GuSweepMTD.obj
 0001:00032de0       ?computeConvex_HeightFieldMTD@Gu@physx@@YA_NAEBVPxHeightFieldGeometry@2@AEBV?$PxTransformT@M@2@AEBVPxConvexMeshGeometry@2@1M_NAEAUPxGeomSweepHit@2@@Z 0000000180033de0 f   GuSweepMTD.obj
 0001:000340b0       ?computeConvex_TriangleMeshMTD@Gu@physx@@YA_NAEBVPxTriangleMeshGeometry@2@AEBV?$PxTransformT@M@2@AEBVPxConvexMeshGeometry@2@1M_NAEAUPxGeomSweepHit@2@@Z 00000001800350b0 f   GuSweepMTD.obj
 0001:000356b0       ?computePlane_BoxMTD@Gu@physx@@YA_NAEBVPxPlane@2@AEBVBox@12@AEAUPxGeomSweepHit@2@@Z 00000001800366b0 f   GuSweepMTD.obj
 0001:00035950       ?computePlane_CapsuleMTD@Gu@physx@@YA_NAEBVPxPlane@2@AEBVCapsule@12@AEAUPxGeomSweepHit@2@@Z 0000000180036950 f   GuSweepMTD.obj
 0001:00035a60       ?computePlane_ConvexMTD@Gu@physx@@YA_NAEBVPxPlane@2@AEBVPxConvexMeshGeometry@2@AEBV?$PxTransformT@M@2@AEAUPxGeomSweepHit@2@@Z 0000000180036a60 f   GuSweepMTD.obj
 0001:00036620       ?computeSphere_CapsuleMTD@Gu@physx@@YA_NAEBVSphere@12@AEBVCapsule@12@AEAUPxGeomSweepHit@2@@Z 0000000180037620 f   GuSweepMTD.obj
 0001:000367d0       ?computeSphere_SphereMTD@Gu@physx@@YA_NAEBVSphere@12@0AEAUPxGeomSweepHit@2@@Z 00000001800377d0 f   GuSweepMTD.obj
 0001:000368c0       ?getInverse@?$PxMat33T@M@physx@@QEBA?BV12@XZ 00000001800378c0 f i GuSweepMTD.obj
 0001:00036b10       ?growAndPushBack@?$PxArray@IV?$PxReflectionAllocator@I@physx@@@physx@@IEAAAEAIAEBI@Z 0000000180037b10 f i GuSweepMTD.obj
 0001:00036bd0       ?init@FastVertex2ShapeScaling@Cm@physx@@QEAAXAEBV?$PxVec3T@M@3@AEBV?$PxQuatT@M@3@@Z 0000000180037bd0 f i GuSweepMTD.obj
 0001:000374e0       ?processHit@MeshMTDGenerationCallback@@UEAA_NAEBUPxGeomRaycastHit@physx@@AEBV?$PxVec3T@M@3@11AEAMPEBI@Z 00000001800384e0 f i GuSweepMTD.obj
 0001:00037530       ?recreate@?$PxArray@IV?$PxReflectionAllocator@I@physx@@@physx@@IEAAXI@Z 0000000180038530 f i GuSweepMTD.obj
 0001:000375d0       ?reportTouchedTris@MidPhaseQueryLocalReport@@UEAA_NIPEBI@Z 00000001800385d0 f i GuSweepMTD.obj
 0001:00037640       ??$gjkPenetration@U?$LocalConvex@VCapsuleV@Gu@physx@@@Gu@physx@@U?$LocalConvex@VConvexHullV@Gu@physx@@@23@@Gu@physx@@YA?AW4GjkStatus@01@AEBU?$LocalConvex@VCapsuleV@Gu@physx@@@01@AEBU?$LocalConvex@VConvexHullV@Gu@physx@@@01@AEBT__m128@@2_NPEIAE4AEAEAEAUGjkOutput@01@@Z 0000000180038640 f i GuSweepSharedTests.obj
 0001:000376b0       ??$gjkPenetration@U?$LocalConvex@VCapsuleV@Gu@physx@@@Gu@physx@@U?$LocalConvex@VConvexHullV@Gu@physx@@@23@@Gu@physx@@YA?AW4GjkStatus@01@AEBU?$LocalConvex@VCapsuleV@Gu@physx@@@01@AEBU?$LocalConvex@VConvexHullV@Gu@physx@@@01@AEBT__m128@@2_NPEIAE4PEIAT5@5AEAEAEAUGjkOutput@01@@Z 00000001800386b0 f i GuSweepSharedTests.obj
 0001:00038be0       ??$gjkPenetration@U?$RelativeConvex@VBoxV@Gu@physx@@@Gu@physx@@U?$LocalConvex@VConvexHullV@Gu@physx@@@23@@Gu@physx@@YA?AW4GjkStatus@01@AEBU?$RelativeConvex@VBoxV@Gu@physx@@@01@AEBU?$LocalConvex@VConvexHullV@Gu@physx@@@01@AEBT__m128@@2_NPEIAE4AEAEAEAUGjkOutput@01@@Z 0000000180039be0 f i GuSweepSharedTests.obj
 0001:00038c50       ??$gjkPenetration@U?$RelativeConvex@VBoxV@Gu@physx@@@Gu@physx@@U?$LocalConvex@VConvexHullV@Gu@physx@@@23@@Gu@physx@@YA?AW4GjkStatus@01@AEBU?$RelativeConvex@VBoxV@Gu@physx@@@01@AEBU?$LocalConvex@VConvexHullV@Gu@physx@@@01@AEBT__m128@@2_NPEIAE4PEIAT5@5AEAEAEAUGjkOutput@01@@Z 0000000180039c50 f i GuSweepSharedTests.obj
 0001:0003a1c0       ??$gjkPenetration@U?$RelativeConvex@VConvexHullV@Gu@physx@@@Gu@physx@@U?$LocalConvex@VConvexHullV@Gu@physx@@@23@@Gu@physx@@YA?AW4GjkStatus@01@AEBU?$RelativeConvex@VConvexHullV@Gu@physx@@@01@AEBU?$LocalConvex@VConvexHullV@Gu@physx@@@01@AEBT__m128@@2_NPEIAE4AEAEAEAUGjkOutput@01@@Z 000000018003b1c0 f i GuSweepSharedTests.obj
 0001:0003a230       ??$gjkPenetration@U?$RelativeConvex@VConvexHullV@Gu@physx@@@Gu@physx@@U?$LocalConvex@VConvexHullV@Gu@physx@@@23@@Gu@physx@@YA?AW4GjkStatus@01@AEBU?$RelativeConvex@VConvexHullV@Gu@physx@@@01@AEBU?$LocalConvex@VConvexHullV@Gu@physx@@@01@AEBT__m128@@2_NPEIAE4PEIAT5@5AEAEAEAUGjkOutput@01@@Z 000000018003b230 f i GuSweepSharedTests.obj
 0001:0003b850       ??$gjkRaycast@U?$LocalConvex@VCapsuleV@Gu@physx@@@Gu@physx@@U?$LocalConvex@VConvexHullV@Gu@physx@@@23@@Gu@physx@@YA_NAEBU?$LocalConvex@VCapsuleV@Gu@physx@@@01@AEBU?$LocalConvex@VConvexHullV@Gu@physx@@@01@AEBT__m128@@222AEAT4@33M@Z 000000018003c850 f i GuSweepSharedTests.obj
 0001:0003c5a0       ??$gjkRaycast@U?$RelativeConvex@VBoxV@Gu@physx@@@Gu@physx@@U?$LocalConvex@VConvexHullV@Gu@physx@@@23@@Gu@physx@@YA_NAEBU?$RelativeConvex@VBoxV@Gu@physx@@@01@AEBU?$LocalConvex@VConvexHullV@Gu@physx@@@01@AEBT__m128@@222AEAT4@33M@Z 000000018003d5a0 f i GuSweepSharedTests.obj
 0001:0003d390       ??$gjkRaycast@U?$RelativeConvex@VConvexHullV@Gu@physx@@@Gu@physx@@U?$LocalConvex@VConvexHullV@Gu@physx@@@23@@Gu@physx@@YA_NAEBU?$RelativeConvex@VConvexHullV@Gu@physx@@@01@AEBU?$LocalConvex@VConvexHullV@Gu@physx@@@01@AEBT__m128@@222AEAT4@33M@Z 000000018003e390 f i GuSweepSharedTests.obj
 0001:0003e170       ??$gjkRaycastPenetration@U?$RelativeConvex@VConvexHullV@Gu@physx@@@Gu@physx@@U?$LocalConvex@VConvexHullV@Gu@physx@@@23@@Gu@physx@@YA_NAEBU?$RelativeConvex@VConvexHullV@Gu@physx@@@01@AEBU?$LocalConvex@VConvexHullV@Gu@physx@@@01@AEBT__m128@@222AEAT4@33M_N@Z 000000018003f170 f i GuSweepSharedTests.obj
 0001:0003ed40       ?sweepBox_ConvexGeom@@YA_NAEBVPxGeometry@physx@@AEBV?$PxTransformT@M@2@AEBVPxBoxGeometry@2@1AEBVBox@Gu@2@AEBV?$PxVec3T@M@2@MAEAUPxGeomSweepHit@2@V?$PxFlags@W4Enum@PxHitFlag@physx@@G@2@MPEAUPxQueryThreadContext@2@@Z 000000018003fd40 f   GuSweepSharedTests.obj
 0001:0003fb60       ?sweepBox_PlaneGeom@@YA_NAEBVPxGeometry@physx@@AEBV?$PxTransformT@M@2@AEBVPxBoxGeometry@2@1AEBVBox@Gu@2@AEBV?$PxVec3T@M@2@MAEAUPxGeomSweepHit@2@V?$PxFlags@W4Enum@PxHitFlag@physx@@G@2@MPEAUPxQueryThreadContext@2@@Z 0000000180040b60 f   GuSweepSharedTests.obj
 0001:0003ff30       ?sweepCapsuleTriangles@Gu@physx@@YA_NIPEBVPxTriangle@2@_NAEBVPxCapsuleGeometry@2@AEBV?$PxTransformT@M@2@AEBV?$PxVec3T@M@2@MAEAUPxGeomSweepHit@2@PEBIMV?$PxFlags@W4Enum@PxHitFlag@physx@@G@2@@Z 0000000180040f30 f   GuSweepSharedTests.obj
 0001:00040120       ?sweepCapsule_CapsuleGeom@@YA_NAEBVPxGeometry@physx@@AEBV?$PxTransformT@M@2@AEBVPxCapsuleGeometry@2@1AEBVCapsule@Gu@2@AEBV?$PxVec3T@M@2@MAEAUPxGeomSweepHit@2@V?$PxFlags@W4Enum@PxHitFlag@physx@@G@2@MPEAUPxQueryThreadContext@2@@Z 0000000180041120 f   GuSweepSharedTests.obj
 0001:00040300       ?sweepCapsule_ConvexGeom@@YA_NAEBVPxGeometry@physx@@AEBV?$PxTransformT@M@2@AEBVPxCapsuleGeometry@2@1AEBVCapsule@Gu@2@AEBV?$PxVec3T@M@2@MAEAUPxGeomSweepHit@2@V?$PxFlags@W4Enum@PxHitFlag@physx@@G@2@MPEAUPxQueryThreadContext@2@@Z 0000000180041300 f   GuSweepSharedTests.obj
 0001:00041030       ?sweepCapsule_PlaneGeom@@YA_NAEBVPxGeometry@physx@@AEBV?$PxTransformT@M@2@AEBVPxCapsuleGeometry@2@1AEBVCapsule@Gu@2@AEBV?$PxVec3T@M@2@MAEAUPxGeomSweepHit@2@V?$PxFlags@W4Enum@PxHitFlag@physx@@G@2@MPEAUPxQueryThreadContext@2@@Z 0000000180042030 f   GuSweepSharedTests.obj
 0001:00041310       ?sweepCapsule_SphereGeom@@YA_NAEBVPxGeometry@physx@@AEBV?$PxTransformT@M@2@AEBVPxCapsuleGeometry@2@1AEBVCapsule@Gu@2@AEBV?$PxVec3T@M@2@MAEAUPxGeomSweepHit@2@V?$PxFlags@W4Enum@PxHitFlag@physx@@G@2@MPEAUPxQueryThreadContext@2@@Z 0000000180042310 f   GuSweepSharedTests.obj
 0001:000414b0       ?sweepConvex_BoxGeom@@YA_NAEBVPxGeometry@physx@@AEBV?$PxTransformT@M@2@AEBVPxConvexMeshGeometry@2@1AEBV?$PxVec3T@M@2@MAEAUPxGeomSweepHit@2@V?$PxFlags@W4Enum@PxHitFlag@physx@@G@2@MPEAUPxQueryThreadContext@2@@Z 00000001800424b0 f   GuSweepSharedTests.obj
 0001:000416d0       ?sweepConvex_CapsuleGeom@@YA_NAEBVPxGeometry@physx@@AEBV?$PxTransformT@M@2@AEBVPxConvexMeshGeometry@2@1AEBV?$PxVec3T@M@2@MAEAUPxGeomSweepHit@2@V?$PxFlags@W4Enum@PxHitFlag@physx@@G@2@MPEAUPxQueryThreadContext@2@@Z 00000001800426d0 f   GuSweepSharedTests.obj
 0001:00041900       ?sweepConvex_ConvexGeom@@YA_NAEBVPxGeometry@physx@@AEBV?$PxTransformT@M@2@AEBVPxConvexMeshGeometry@2@1AEBV?$PxVec3T@M@2@MAEAUPxGeomSweepHit@2@V?$PxFlags@W4Enum@PxHitFlag@physx@@G@2@MPEAUPxQueryThreadContext@2@@Z 0000000180042900 f   GuSweepSharedTests.obj
 0001:000428e0       ?sweepConvex_PlaneGeom@@YA_NAEBVPxGeometry@physx@@AEBV?$PxTransformT@M@2@AEBVPxConvexMeshGeometry@2@1AEBV?$PxVec3T@M@2@MAEAUPxGeomSweepHit@2@V?$PxFlags@W4Enum@PxHitFlag@physx@@G@2@MPEAUPxQueryThreadContext@2@@Z 00000001800438e0 f   GuSweepSharedTests.obj
 0001:00042d20       ?sweepConvex_SphereGeom@@YA_NAEBVPxGeometry@physx@@AEBV?$PxTransformT@M@2@AEBVPxConvexMeshGeometry@2@1AEBV?$PxVec3T@M@2@MAEAUPxGeomSweepHit@2@V?$PxFlags@W4Enum@PxHitFlag@physx@@G@2@MPEAUPxQueryThreadContext@2@@Z 0000000180043d20 f   GuSweepSharedTests.obj
 0001:00043920       ?sweepCapsule_BoxGeom@@YA_NAEBVPxGeometry@physx@@AEBV?$PxTransformT@M@2@AEBVPxCapsuleGeometry@2@1AEBVCapsule@Gu@2@AEBV?$PxVec3T@M@2@MAEAUPxGeomSweepHit@2@V?$PxFlags@W4Enum@PxHitFlag@physx@@G@2@MPEAUPxQueryThreadContext@2@@Z 0000000180044920 f   GuSweepTests.obj
 0001:000441e0       ?sweepBox_SphereGeom@@YA_NAEBVPxGeometry@physx@@AEBV?$PxTransformT@M@2@AEBVPxBoxGeometry@2@1AEBVBox@Gu@2@AEBV?$PxVec3T@M@2@MAEAUPxGeomSweepHit@2@V?$PxFlags@W4Enum@PxHitFlag@physx@@G@2@MPEAUPxQueryThreadContext@2@@Z 00000001800451e0 f   GuSweepTests.obj
 0001:000448c0       ?sweepBox_CapsuleGeom@@YA_NAEBVPxGeometry@physx@@AEBV?$PxTransformT@M@2@AEBVPxBoxGeometry@2@1AEBVBox@Gu@2@AEBV?$PxVec3T@M@2@MAEAUPxGeomSweepHit@2@V?$PxFlags@W4Enum@PxHitFlag@physx@@G@2@MPEAUPxQueryThreadContext@2@@Z 00000001800458c0 f   GuSweepTests.obj
 0001:00045190       ?sweepBox_BoxGeom@@YA_NAEBVPxGeometry@physx@@AEBV?$PxTransformT@M@2@AEBVPxBoxGeometry@2@1AEBVBox@Gu@2@AEBV?$PxVec3T@M@2@MAEAUPxGeomSweepHit@2@V?$PxFlags@W4Enum@PxHitFlag@physx@@G@2@MPEAUPxQueryThreadContext@2@@Z 0000000180046190 f   GuSweepTests.obj
 0001:00045b90       ??$gjkPenetration@U?$LocalConvex@VCapsuleV@Gu@physx@@@Gu@physx@@U?$LocalConvex@VBoxV@Gu@physx@@@23@@Gu@physx@@YA?AW4GjkStatus@01@AEBU?$LocalConvex@VCapsuleV@Gu@physx@@@01@AEBU?$LocalConvex@VBoxV@Gu@physx@@@01@AEBT__m128@@2_NPEIAE4AEAEAEAUGjkOutput@01@@Z 0000000180046b90 f i GuSweepTests.obj
 0001:00045c00       ??$gjkPenetration@U?$LocalConvex@VCapsuleV@Gu@physx@@@Gu@physx@@U?$LocalConvex@VBoxV@Gu@physx@@@23@@Gu@physx@@YA?AW4GjkStatus@01@AEBU?$LocalConvex@VCapsuleV@Gu@physx@@@01@AEBU?$LocalConvex@VBoxV@Gu@physx@@@01@AEBT__m128@@2_NPEIAE4PEIAT5@5AEAEAEAUGjkOutput@01@@Z 0000000180046c00 f i GuSweepTests.obj
 0001:00047080       ??$gjkPenetration@U?$RelativeConvex@VBoxV@Gu@physx@@@Gu@physx@@U?$LocalConvex@VBoxV@Gu@physx@@@23@@Gu@physx@@YA?AW4GjkStatus@01@AEBU?$RelativeConvex@VBoxV@Gu@physx@@@01@AEBU?$LocalConvex@VBoxV@Gu@physx@@@01@AEBT__m128@@2_NPEIAE4AEAEAEAUGjkOutput@01@@Z 0000000180048080 f i GuSweepTests.obj
 0001:000470f0       ??$gjkPenetration@U?$RelativeConvex@VBoxV@Gu@physx@@@Gu@physx@@U?$LocalConvex@VBoxV@Gu@physx@@@23@@Gu@physx@@YA?AW4GjkStatus@01@AEBU?$RelativeConvex@VBoxV@Gu@physx@@@01@AEBU?$LocalConvex@VBoxV@Gu@physx@@@01@AEBT__m128@@2_NPEIAE4PEIAT5@5AEAEAEAUGjkOutput@01@@Z 00000001800480f0 f i GuSweepTests.obj
 0001:000485a0       ??$gjkRaycast@U?$LocalConvex@VCapsuleV@Gu@physx@@@Gu@physx@@U?$LocalConvex@VBoxV@Gu@physx@@@23@@Gu@physx@@YA_NAEBU?$LocalConvex@VCapsuleV@Gu@physx@@@01@AEBU?$LocalConvex@VBoxV@Gu@physx@@@01@AEBT__m128@@222AEAT4@33M@Z 00000001800495a0 f i GuSweepTests.obj
 0001:00049170       ??$gjkRaycast@U?$LocalConvex@VTriangleV@Gu@physx@@@Gu@physx@@U?$LocalConvex@VBoxV@Gu@physx@@@23@@Gu@physx@@YA_NAEBU?$LocalConvex@VTriangleV@Gu@physx@@@01@AEBU?$LocalConvex@VBoxV@Gu@physx@@@01@AEBT__m128@@222AEAT4@33M@Z 000000018004a170 f i GuSweepTests.obj
 0001:00049dc0       ??$gjkRaycast@U?$RelativeConvex@VBoxV@Gu@physx@@@Gu@physx@@U?$LocalConvex@VBoxV@Gu@physx@@@23@@Gu@physx@@YA_NAEBU?$RelativeConvex@VBoxV@Gu@physx@@@01@AEBU?$LocalConvex@VBoxV@Gu@physx@@@01@AEBT__m128@@222AEAT4@33M@Z 000000018004adc0 f i GuSweepTests.obj
 0001:0004a9f0       ?getSweepFuncTable@Gu@physx@@YAAEBUGeomSweepFuncs@12@XZ 000000018004b9f0 f   GuSweepTests.obj
 0001:0004aa00       ?getSweepMargin@?$LocalConvex@VTetrahedronV@Gu@physx@@@Gu@physx@@UEBA?AT__m128@@XZ 000000018004ba00 f i GuCookingTetrahedronMesh.obj
 0001:0004aa00       ?getSweepMargin@?$LocalConvex@VTriangleV@Gu@physx@@@Gu@physx@@UEBA?AT__m128@@XZ 000000018004ba00 f i GuSweepTests.obj
 0001:0004aa00       ?getSweepMargin@?$RelativeConvex@VTriangleV@Gu@physx@@@Gu@physx@@UEBA?AT__m128@@XZ 000000018004ba00 f i GuCCDSweepPrimitives.obj
 0001:0004aa10       ?support@?$LocalConvex@VBoxV@Gu@physx@@@Gu@physx@@UEBA?AT__m128@@AEBT4@@Z 000000018004ba10 f i GuSweepTests.obj
 0001:0004aa40       ?support@?$LocalConvex@VBoxV@Gu@physx@@@Gu@physx@@UEBA?AT__m128@@AEBT4@AEAH@Z 000000018004ba40 f i GuSweepTests.obj
 0001:0004aa80       ?support@?$LocalConvex@VTriangleV@Gu@physx@@@Gu@physx@@UEBA?AT__m128@@AEBT4@@Z 000000018004ba80 f i GuSweepTests.obj
 0001:0004ab10       ?support@?$LocalConvex@VTriangleV@Gu@physx@@@Gu@physx@@UEBA?AT__m128@@AEBT4@AEAH@Z 000000018004bb10 f i GuSweepTests.obj
 0001:0004abf0       ?supportPoint@?$LocalConvex@VBoxV@Gu@physx@@@Gu@physx@@UEBA?AT__m128@@H@Z 000000018004bbf0 f i GuSweepTests.obj
 0001:0004ac30       ?supportPoint@?$LocalConvex@VTetrahedronV@Gu@physx@@@Gu@physx@@UEBA?AT__m128@@H@Z 000000018004bc30 f i GuCookingTetrahedronMesh.obj
 0001:0004ac30       ?supportPoint@?$LocalConvex@VTriangleV@Gu@physx@@@Gu@physx@@UEBA?AT__m128@@H@Z 000000018004bc30 f i GuSweepTests.obj
 0001:0004ac50       ?sweepBoxTriangles@Gu@physx@@YA_NIPEBVPxTriangle@2@_NAEBVPxBoxGeometry@2@AEBV?$PxTransformT@M@2@AEBV?$PxVec3T@M@2@MAEAUPxGeomSweepHit@2@PEBIMV?$PxFlags@W4Enum@PxHitFlag@physx@@G@2@@Z 000000018004bc50 f   GuSweepTests.obj
 0001:0004b6d0       ??$PxSmallSort@H$$CBU?$Comparer@V?$PxVec3T@M@physx@@@MeshAnalyzer@Gu@physx@@@physx@@YAXPEAHHHAEBU?$Comparer@V?$PxVec3T@M@physx@@@MeshAnalyzer@Gu@0@@Z 000000018004c6d0 f i GuSDF.obj
 0001:0004b8f0       ??$PxSort@HU?$Comparer@V?$PxVec3T@M@physx@@@MeshAnalyzer@Gu@physx@@V?$PxReflectionAllocator@H@4@@physx@@YAXPEAHIAEBU?$Comparer@V?$PxVec3T@M@physx@@@MeshAnalyzer@Gu@0@AEBV?$PxReflectionAllocator@H@0@I@Z 000000018004c8f0 f i GuSDF.obj
 0001:0004bd70       ??$PxSort@HU?$PxLess@H@physx@@V?$PxReflectionAllocator@H@2@@physx@@YAXPEAHIAEBU?$PxLess@H@0@AEBV?$PxReflectionAllocator@H@0@I@Z 000000018004cd70 f i GuSDF.obj
 0001:0004c1c0       ??$copy@V?$PxReflectionAllocator@I@physx@@@?$PxArray@IV?$PxReflectionAllocator@I@physx@@@physx@@IEAAXAEBV01@@Z 000000018004d1c0 f i GuSDF.obj
 0001:0004c230       ??$copy@V?$PxReflectionAllocator@M@physx@@@?$PxArray@MV?$PxReflectionAllocator@M@physx@@@physx@@IEAAXAEBV01@@Z 000000018004d230 f i GuSDF.obj
 0001:0004c290       ??$copy@V?$PxReflectionAllocator@V?$PxVec3T@M@physx@@@physx@@@?$PxArray@V?$PxVec3T@M@physx@@V?$PxReflectionAllocator@V?$PxVec3T@M@physx@@@2@@physx@@IEAAXAEBV01@@Z 000000018004d290 f i GuSDF.obj
 0001:0004c2f0       ??$mapDuplicatePoints@V?$PxVec3T@M@physx@@M@MeshAnalyzer@Gu@physx@@SAXPEBV?$PxVec3T@M@2@IAEAV?$PxArray@HV?$PxReflectionAllocator@H@physx@@@2@M@Z 000000018004d2f0 f i GuSDF.obj
 0001:0004c670       ??$splitRanges@V?$PxVec3T@M@physx@@M@MeshAnalyzer@Gu@physx@@CAXAEAV?$PxArray@URange@MeshAnalyzer@Gu@physx@@V?$PxReflectionAllocator@URange@MeshAnalyzer@Gu@physx@@@4@@2@AEBV?$PxArray@HV?$PxReflectionAllocator@H@physx@@@2@PEBV?$PxVec3T@M@2@HM@Z 000000018004d670 f i GuSDF.obj
 0001:0004c8e0       ??$traverseBVH@VClosestDistanceToTrimeshTraversalController@Gu@physx@@@Gu@physx@@YAXPEBUBVHNode@01@AEAVClosestDistanceToTrimeshTraversalController@01@H@Z 000000018004d8e0 f i GuSDF.obj
 0001:0004cce0       ??$traverseBVH@VLineSegmentTrimeshIntersectionTraversalController@Gu@physx@@@Gu@physx@@YAXPEBUBVHNode@01@AEAVLineSegmentTrimeshIntersectionTraversalController@01@H@Z 000000018004dce0 f i GuSDF.obj
 0001:0004d1e0       ??0CellToPoint@Gu@physx@@QEAA@I@Z 000000018004e1e0 f i GuSDF.obj
 0001:0004d2e0       ??0IsosurfaceThreadData@Gu@physx@@QEAA@AEBU012@@Z 000000018004e2e0 f i GuSDF.obj
 0001:0004d360       ??1CellToPoint@Gu@physx@@QEAA@XZ 000000018004e360 f i GuSDF.obj
 0001:0004d440       ??1IsosurfaceThreadData@Gu@physx@@QEAA@XZ 000000018004e440 f i GuSDF.obj
 0001:0004d4f0       ??1SDF@Gu@physx@@QEAA@XZ   000000018004e4f0 f   GuSDF.obj
 0001:0004d590       ??_E?$PxThreadT@V?$PxReflectionAllocator@VPxThreadImpl@physx@@@physx@@@physx@@UEAAPEAXI@Z 000000018004e590 f i GuSDF.obj
 0001:0004d590       ??_G?$PxThreadT@V?$PxReflectionAllocator@VPxThreadImpl@physx@@@physx@@@physx@@UEAAPEAXI@Z 000000018004e590 f i GuSDF.obj
 0001:0004d640       ??_EPxRunnable@physx@@UEAAPEAXI@Z 000000018004e640 f i GuSDF.obj
 0001:0004d640       ??_GPxRunnable@physx@@UEAAPEAXI@Z 000000018004e640 f i GuSDF.obj
 0001:0004d670       ?PxCreatePointOntoTriangleMeshProjector@Gu@physx@@YAPEAVPxPointOntoTriangleMeshProjector@12@PEBV?$PxVec3T@M@2@PEBII@Z 000000018004e670 f   GuSDF.obj
 0001:0004d770       ?SDFUsingWindingNumbers@Gu@physx@@YAXAEAV?$PxArray@UBVHNode@Gu@physx@@V?$PxReflectionAllocator@UBVHNode@Gu@physx@@@3@@2@AEAV?$PxHashMap@IU?$ClusterApproximationT@MV?$PxVec3T@M@physx@@@Gu@physx@@U?$PxHash@I@3@VPxAllocator@3@@2@PEBV?$PxVec3T@M@2@PEBIIIIIPEAMAEAUGridQueryPointSampler@12@PEAV52@I_N7@Z 000000018004e770 f   GuSDF.obj
 0001:0004dc90       ?SDFUsingWindingNumbers@Gu@physx@@YAXPEBV?$PxVec3T@M@2@PEBIIIIIPEAMV32@3PEAV32@_NIPEAVPxSDFBuilder@2@@Z 000000018004ec90 f   GuSDF.obj
 0001:0004e160       ?SDFUsingWindingNumbersSparse@Gu@physx@@YAXPEBV?$PxVec3T@M@2@PEBIIIIIAEBV32@2MIAEAV?$PxArray@MV?$PxReflectionAllocator@M@physx@@@2@AEAV?$PxArray@IV?$PxReflectionAllocator@I@physx@@@2@33AEAM5IPEAVPxSDFBuilder@2@@Z 000000018004f160 f   GuSDF.obj
 0001:0004ebf0       ?allocate@?$PxArray@HV?$PxInlineAllocator@$0EAA@V?$PxReflectionAllocator@H@physx@@@physx@@@physx@@IEAAPEAHI@Z 000000018004fbf0 f i GuSDF.obj
 0001:0004ecb0       ?allocate@?$PxArray@MV?$PxReflectionAllocator@M@physx@@@physx@@IEAAPEAMI@Z 000000018004fcb0 f i GuSDF.obj
 0001:0004ed40       ?allocate@?$PxArray@V?$PxVec3T@M@physx@@V?$PxReflectionAllocator@V?$PxVec3T@M@physx@@@2@@physx@@IEAAPEAV?$PxVec3T@M@2@I@Z 000000018004fd40 f i GuSDF.obj
 0001:0004ede0       ?allocateSdfs@SDF@Gu@physx@@QEAAPEAMAEBV?$PxVec3T@M@3@AEBMIIIIIIIMMI@Z 000000018004fde0 f   GuSDF.obj
 0001:0004eff0       ?analyzeAndFixMesh@Gu@physx@@YAXPEBV?$PxVec3T@M@2@PEBIIAEAV?$PxArray@IV?$PxReflectionAllocator@I@physx@@@2@@Z 000000018004fff0 f   GuSDF.obj
 0001:0004f850       ?buildTree@Gu@physx@@YAXPEBIIPEBV?$PxVec3T@M@2@AEAV?$PxArray@UBVHNode@Gu@physx@@V?$PxReflectionAllocator@UBVHNode@Gu@physx@@@3@@2@M@Z 0000000180050850 f   GuSDF.obj
 0001:0004fa80       ?computeIsosurfaceTrianglesThreadJob@Gu@physx@@YAPEAXPEAX@Z 0000000180050a80 f   GuSDF.obj
 0001:0004fe50       ?computeIsosurfaceVerticesThreadJob@Gu@physx@@YAPEAXPEAX@Z 0000000180050e50 f   GuSDF.obj
 0001:00050340       ?computeSDFThreadJob@Gu@physx@@YAPEAXPEAX@Z 0000000180051340 f   GuSDF.obj
 0001:00050e00       ?convertSparseSDFTo3DTextureLayout@Gu@physx@@YAXIIIIPEAIPEBMIAEAV?$PxArray@MV?$PxReflectionAllocator@M@physx@@@2@AEAI33@Z 0000000180051e00 f   GuSDF.obj
 0001:000511b0       ?copy@?$PxArray@MV?$PxReflectionAllocator@M@physx@@@physx@@KAXPEAM0PEBM@Z 00000001800521b0 f i GuSDF.obj
 0001:00051210       ?copy@?$PxArray@V?$PxVec3T@M@physx@@V?$PxReflectionAllocator@V?$PxVec3T@M@physx@@@2@@physx@@KAXPEAV?$PxVec3T@M@2@0PEBV32@@Z 0000000180052210 f i GuSDF.obj
 0001:000512e0       ?create@?$PxHashBase@V?$PxPair@$$CBUSortedTriangle@Gu@physx@@H@physx@@USortedTriangle@Gu@2@UTriangleHash@42@UGetKey@?$PxHashMapBase@USortedTriangle@Gu@physx@@HUTriangleHash@23@VPxAllocator@3@@2@VPxAllocator@2@$00@physx@@QEAAPEAV?$PxPair@$$CBUSortedTriangle@Gu@physx@@H@2@AEBUSortedTriangle@Gu@2@AEA_N@Z 00000001800522e0 f i GuSDF.obj
 0001:00051410       ?create@?$PxHashBase@V?$PxPair@$$CB_KH@physx@@_KU?$PxHash@_K@2@UGetKey@?$PxHashMapBase@_KHU?$PxHash@_K@physx@@VPxAllocator@2@@2@VPxAllocator@2@$00@physx@@QEAAPEAV?$PxPair@$$CB_KH@2@AEB_KAEA_N@Z 0000000180052410 f i GuMeshAnalysis.obj
 0001:00051410       ?create@?$PxHashBase@V?$PxPair@$$CB_KI@physx@@_KU?$PxHash@_K@2@UGetKey@?$PxHashMapBase@_KIU?$PxHash@_K@physx@@VPxAllocator@2@@2@VPxAllocator@2@$00@physx@@QEAAPEAV?$PxPair@$$CB_KI@2@AEB_KAEA_N@Z 0000000180052410 f i GuSDF.obj
 0001:000515a0       ?createTriangles@Gu@physx@@YAXHHHMQEAMAEBUCellToPoint@12@AEBV?$PxArray@V?$PxVec3T@M@physx@@V?$PxReflectionAllocator@V?$PxVec3T@M@physx@@@2@@2@AEAV?$PxArray@IV?$PxReflectionAllocator@I@physx@@@2@@Z 00000001800525a0 f i GuSDF.obj
 0001:00051e10       ?decodeDense@SDF@Gu@physx@@QEBAMHHH@Z 0000000180052e10 f   GuSDF.obj
 0001:00051e60       ?decodeSparse2@Gu@physx@@YAMAEBVSDF@12@HHH@Z 0000000180052e60 f i GuSDF.obj
 0001:00052110       ?decodeSparse@SDF@Gu@physx@@QEBAMHHH@Z 0000000180053110 f   GuSDF.obj
 0001:00052120       ?exportExtraData@SDF@Gu@physx@@QEAAXAEAVPxSerializationContext@3@@Z 0000000180053120 f   GuSDF.obj
 0001:000521c0       ?extractIsosurfaceFromSDF@Gu@physx@@YAXAEBVSDF@12@AEAV?$PxArray@V?$PxVec3T@M@physx@@V?$PxReflectionAllocator@V?$PxVec3T@M@physx@@@2@@2@AEAV?$PxArray@IV?$PxReflectionAllocator@I@physx@@@2@I@Z 00000001800531c0 f   GuSDF.obj
 0001:00052ac0       ?extractIsosurfaceFromSDFSerial@Gu@physx@@YAXAEBVSDF@12@AEAV?$PxArray@V?$PxVec3T@M@physx@@V?$PxReflectionAllocator@V?$PxVec3T@M@physx@@@2@@2@AEAV?$PxArray@IV?$PxReflectionAllocator@I@physx@@@2@@Z 0000000180053ac0 f   GuSDF.obj
 0001:000537b0       ?find@CellToPoint@Gu@physx@@QEBAPEBV?$PxPair@$$CB_KI@3@HHH@Z 00000001800547b0 f i GuSDF.obj
 0001:000538c0       ?fixSdfForNonClosedGeometry@Gu@physx@@YAXIIIPEAMAEBV?$PxVec3T@M@2@@Z 00000001800548c0 f   GuSDF.obj
 0001:000549a0       ?generatePointInCell@Gu@physx@@YA_NAEBVSDF@12@HHHAEAV?$PxVec3T@M@2@QEAY111M@Z 00000001800559a0 f   GuSDF.obj
 0001:00054df0       ?growAndPushBack@?$PxArray@HV?$PxInlineAllocator@$0EAA@V?$PxReflectionAllocator@H@physx@@@physx@@@physx@@IEAAAEAHAEBH@Z 0000000180055df0 f i GuSDF.obj
 0001:00054ee0       ?growAndPushBack@?$PxArray@MV?$PxReflectionAllocator@M@physx@@@physx@@IEAAAEAMAEBM@Z 0000000180055ee0 f i GuSDF.obj
 0001:00054fc0       ?growAndPushBack@?$PxArray@PEAV?$PxThreadT@V?$PxReflectionAllocator@VPxThreadImpl@physx@@@physx@@@physx@@V?$PxReflectionAllocator@PEAV?$PxThreadT@V?$PxReflectionAllocator@VPxThreadImpl@physx@@@physx@@@physx@@@2@@physx@@IEAAAEAPEAV?$PxThreadT@V?$PxReflectionAllocator@VPxThreadImpl@physx@@@physx@@@2@AEBQEAV32@@Z 0000000180055fc0 f i GuSDF.obj
 0001:000550e0       ?growAndPushBack@?$PxArray@UIsosurfaceThreadData@Gu@physx@@V?$PxReflectionAllocator@UIsosurfaceThreadData@Gu@physx@@@3@@physx@@IEAAAEAUIsosurfaceThreadData@Gu@2@AEBU342@@Z 00000001800560e0 f i GuSDF.obj
 0001:000552b0       ?growAndPushBack@?$PxArray@UMutation@Gu@physx@@V?$PxReflectionAllocator@UMutation@Gu@physx@@@3@@physx@@IEAAAEAUMutation@Gu@2@AEBU342@@Z 00000001800562b0 f i GuSDF.obj
 0001:000553d0       ?growAndPushBack@?$PxArray@URange@Gu@physx@@V?$PxReflectionAllocator@URange@Gu@physx@@@3@@physx@@IEAAAEAURange@Gu@2@AEBU342@@Z 00000001800563d0 f i GuSDF.obj
 0001:00055500       ?growAndPushBack@?$PxArray@URange@MeshAnalyzer@Gu@physx@@V?$PxReflectionAllocator@URange@MeshAnalyzer@Gu@physx@@@4@@physx@@IEAAAEAURange@MeshAnalyzer@Gu@2@AEBU3452@@Z 0000000180056500 f i GuSDF.obj
 0001:00055620       ?growAndPushBack@?$PxArray@USDFCalculationData@Gu@physx@@V?$PxReflectionAllocator@USDFCalculationData@Gu@physx@@@3@@physx@@IEAAAEAUSDFCalculationData@Gu@2@AEBU342@@Z 0000000180056620 f i GuSDF.obj
 0001:000557a0       ?growAndPushBack@?$PxArray@V?$PxVec3T@M@physx@@V?$PxReflectionAllocator@V?$PxVec3T@M@physx@@@2@@physx@@IEAAAEAV?$PxVec3T@M@2@AEBV32@@Z 00000001800567a0 f i GuSDF.obj
 0001:00055870       ?importExtraData@SDF@Gu@physx@@QEAAXAEAVPxDeserializationContext@3@@Z 0000000180056870 f   GuSDF.obj
 0001:000558e0       ?populateSubgridCache@Gu@physx@@YAXAEBVSDF@12@AEAV?$PxArray@MV?$PxReflectionAllocator@M@physx@@@2@HHH@Z 00000001800568e0 f i GuSDF.obj
 0001:00055c80       ?projectPoint@PointOntoTriangleMeshProjector@Gu@physx@@UEAA?AV?$PxVec3T@M@3@AEBV43@@Z 0000000180056c80 f i GuSDF.obj
 0001:00055cf0       ?projectPoint@PointOntoTriangleMeshProjector@Gu@physx@@UEAA?AV?$PxVec3T@M@3@AEBV43@AEAI@Z 0000000180056cf0 f i GuSDF.obj
 0001:00055d70       ?recreate@?$PxArray@HV?$PxReflectionAllocator@H@physx@@@physx@@IEAAXI@Z 0000000180056d70 f i GuSDF.obj
 0001:00055e60       ?recreate@?$PxArray@MV?$PxReflectionAllocator@M@physx@@@physx@@IEAAXI@Z 0000000180056e60 f i GuSDF.obj
 0001:00055f40       ?recreate@?$PxArray@PEAUMap@Gu@physx@@V?$PxReflectionAllocator@PEAUMap@Gu@physx@@@3@@physx@@IEAAXI@Z 0000000180056f40 f i GuSDF.obj
 0001:00056030       ?recreate@?$PxArray@UBVHNode@Gu@physx@@V?$PxReflectionAllocator@UBVHNode@Gu@physx@@@3@@physx@@IEAAXI@Z 0000000180057030 f i GuSDF.obj
 0001:00056270       ?recreate@?$PxArray@V?$PxVec3T@M@physx@@V?$PxReflectionAllocator@V?$PxVec3T@M@physx@@@2@@physx@@IEAAXI@Z 0000000180057270 f i GuSDF.obj
 0001:00056300       ?release@PointOntoTriangleMeshProjector@Gu@physx@@UEAAXXZ 0000000180057300 f i GuSDF.obj
 0001:00056350       ?reserveInternal@?$PxHashBase@V?$PxPair@$$CBIU?$ClusterApproximationT@MV?$PxVec3T@M@physx@@@Gu@physx@@@physx@@IU?$PxHash@I@2@UGetKey@?$PxHashMapBase@IU?$ClusterApproximationT@MV?$PxVec3T@M@physx@@@Gu@physx@@U?$PxHash@I@3@VPxAllocator@3@@2@VPxAllocator@2@$00@physx@@AEAAXI@Z 0000000180057350 f i GuSDF.obj
 0001:00056550       ?reserveInternal@?$PxHashBase@V?$PxPair@$$CBUSortedTriangle@Gu@physx@@H@physx@@USortedTriangle@Gu@2@UTriangleHash@42@UGetKey@?$PxHashMapBase@USortedTriangle@Gu@physx@@HUTriangleHash@23@VPxAllocator@3@@2@VPxAllocator@2@$00@physx@@AEAAXI@Z 0000000180057550 f i GuSDF.obj
 0001:000566f0       ?reserveInternal@?$PxHashBase@V?$PxPair@$$CB_KH@physx@@_KU?$PxHash@_K@2@UGetKey@?$PxHashMapBase@_KHU?$PxHash@_K@physx@@VPxAllocator@2@@2@VPxAllocator@2@$00@physx@@AEAAXI@Z 00000001800576f0 f i GuSDF.obj
 0001:000566f0       ?reserveInternal@?$PxHashBase@V?$PxPair@$$CB_KI@physx@@_KU?$PxHash@_K@2@UGetKey@?$PxHashMapBase@_KIU?$PxHash@_K@physx@@VPxAllocator@2@@2@VPxAllocator@2@$00@physx@@AEAAXI@Z 00000001800576f0 f i GuSDF.obj
 0001:000568d0       ?resize@?$PxArray@IV?$PxReflectionAllocator@I@physx@@@physx@@QEAAXIAEBI@Z 00000001800578d0 f i GuSDF.obj
 0001:00056990       ?resize@?$PxArray@MV?$PxReflectionAllocator@M@physx@@@physx@@QEAAXIAEBM@Z 0000000180057990 f i GuSDF.obj
 0001:00056aa0       ?resize@?$PxArray@PEAUMap@Gu@physx@@V?$PxReflectionAllocator@PEAUMap@Gu@physx@@@3@@physx@@QEAAXIAEBQEAUMap@Gu@2@@Z 0000000180057aa0 f i GuSDF.obj
 0001:00056b60       ?resize@?$PxArray@UBVHNode@Gu@physx@@V?$PxReflectionAllocator@UBVHNode@Gu@physx@@@3@@physx@@QEAAXIAEBUBVHNode@Gu@2@@Z 0000000180057b60 f i GuSDF.obj
 0001:00056ce0       ?sampleSDFDirect@DenseSDF@Gu@physx@@QEAAMAEBV?$PxVec3T@M@3@@Z 0000000180057ce0 f i GuSDF.obj
 0001:00056e80       ?signedVolume@Gu@physx@@YAMPEBV?$PxVec3T@M@2@PEBII1I@Z 0000000180057e80 f   GuSDF.obj
 0001:000573c0       ?windingNumbers@Gu@physx@@YAXPEBV?$PxVec3T@M@2@PEBIIIIIPEAMV32@3PEAV32@@Z 00000001800583c0 f   GuSDF.obj
 0001:00057810       ?windingNumbersInsideCheck@Gu@physx@@YAXPEBV?$PxVec3T@M@2@PEBIIIIIPEA_NV32@3PEAV32@@Z 0000000180058810 f   GuSDF.obj
 0001:000581e0       ??0MeshData@physx@@QEAA@AEBVPxTriangleMeshDesc@1@@Z 00000001800591e0 f i GuCookingSDF.obj
 0001:000582c0       ?GetBounds@MeshData@physx@@QEBAXAEAV?$PxVec3T@M@2@0@Z 00000001800592c0 f i GuCookingSDF.obj
 0001:00058560       ?buildSDF@physx@@YA_NAEAVPxTriangleMeshDesc@1@AEAV?$PxArray@MV?$PxReflectionAllocator@M@physx@@@1@AEAV?$PxArray@EV?$PxReflectionAllocator@E@physx@@@1@AEAV?$PxArray@IV?$PxReflectionAllocator@I@physx@@@1@@Z 0000000180059560 f   GuCookingSDF.obj
 0001:000585a0       ?convert16To32Bits@physx@@YAXVPxSimpleTriangleMesh@1@AEAV?$PxArray@IV?$PxReflectionAllocator@I@physx@@@1@@Z 00000001800595a0 f   GuCookingSDF.obj
 0001:000595c0       ?quantizeSparseSDF@physx@@YAXW4Enum@PxSdfBitsPerSubgridPixel@1@AEBV?$PxArray@MV?$PxReflectionAllocator@M@physx@@@1@AEAV?$PxArray@EV?$PxReflectionAllocator@E@physx@@@1@MM@Z 000000018005a5c0 f   GuCookingSDF.obj
 0001:000596a0       ?recreate@?$PxArray@EV?$PxReflectionAllocator@E@physx@@@physx@@IEAAXI@Z 000000018005a6a0 f i GuCookingSDF.obj
 0001:00059790       ?resize@?$PxArray@EV?$PxReflectionAllocator@E@physx@@@physx@@QEAAXIAEBE@Z 000000018005a790 f i GuCookingSDF.obj
 0001:00059850       ?resize@?$PxArray@V?$PxVec3T@M@physx@@V?$PxReflectionAllocator@V?$PxVec3T@M@physx@@@2@@physx@@QEAAXIAEBV?$PxVec3T@M@2@@Z 000000018005a850 f i GuCookingSDF.obj
 0001:00059940       ??$gjk@U?$RelativeConvex@UCustomConvexV@@@Gu@physx@@U?$LocalConvex@UCustomConvexV@@@23@@Gu@physx@@YA?AW4GjkStatus@01@AEBU?$RelativeConvex@UCustomConvexV@@@01@AEBU?$LocalConvex@UCustomConvexV@@@01@AEBT__m128@@2AEAT5@333@Z 000000018005a940 f i GuGjkQuery.obj
 0001:0005a6d0       ??$gjkPenetration@U?$RelativeConvex@UCustomConvexV@@@Gu@physx@@U?$LocalConvex@UCustomConvexV@@@23@@Gu@physx@@YA?AW4GjkStatus@01@AEBU?$RelativeConvex@UCustomConvexV@@@01@AEBU?$LocalConvex@UCustomConvexV@@@01@AEBT__m128@@2_NPEIAE4PEIAT5@5AEAEAEAUGjkOutput@01@@Z 000000018005b6d0 f i GuGjkQuery.obj
 0001:0005bc40       ??$gjkPenetration@U?$RelativeConvex@UCustomConvexV@@@Gu@physx@@U?$LocalConvex@UCustomConvexV@@@23@@Gu@physx@@YA?AW4GjkStatus@01@AEBU?$RelativeConvex@UCustomConvexV@@@01@AEBU?$LocalConvex@UCustomConvexV@@@01@AEBT__m128@@2_NPEIAT5@4AEAEAEAUGjkOutput@01@@Z 000000018005cc40 f i GuGjkQuery.obj
 0001:0005bca0       ??$gjkRaycast@U?$RelativeConvex@UCustomConvexV@@@Gu@physx@@U?$LocalConvex@UCustomConvexV@@@23@@Gu@physx@@YA_NAEBU?$RelativeConvex@UCustomConvexV@@@01@AEBU?$LocalConvex@UCustomConvexV@@@01@AEBT__m128@@222AEAT4@33M@Z 000000018005cca0 f i GuGjkQuery.obj
 0001:0005ca00       ??$gjkRaycast@U?$RelativeConvex@UCustomConvexV@@@Gu@physx@@U?$LocalConvex@UPointConvexV@@@23@@Gu@physx@@YA_NAEBU?$RelativeConvex@UCustomConvexV@@@01@AEBU?$LocalConvex@UPointConvexV@@@01@AEBT__m128@@222AEAT4@33M@Z 000000018005da00 f i GuGjkQuery.obj
 0001:0005d640       ?overlap@PxGjkQuery@physx@@SA_NAEBUSupport@12@0AEBV?$PxTransformT@M@2@1@Z 000000018005e640 f   GuGjkQuery.obj
 0001:0005d9d0       ?proximityInfo@PxGjkQuery@physx@@SA_NAEBUSupport@12@0AEBV?$PxTransformT@M@2@1MMAEAV?$PxVec3T@M@2@22AEAM@Z 000000018005e9d0 f   GuGjkQuery.obj
 0001:0005e790       ?raycast@PxGjkQuery@physx@@SA_NAEBUSupport@12@AEBV?$PxTransformT@M@2@AEBV?$PxVec3T@M@2@2MAEAMAEAV52@4@Z 000000018005f790 f   GuGjkQuery.obj
 0001:0005ec80       ?support@?$LocalConvex@UCustomConvexV@@@Gu@physx@@UEBA?AT__m128@@AEBT4@@Z 000000018005fc80 f i GuGjkQuery.obj
 0001:0005ed00       ?support@?$LocalConvex@UCustomConvexV@@@Gu@physx@@UEBA?AT__m128@@AEBT4@AEAH@Z 000000018005fd00 f i GuGjkQuery.obj
 0001:0005ed80       ?support@?$LocalConvex@UPointConvexV@@@Gu@physx@@UEBA?AT__m128@@AEBT4@@Z 000000018005fd80 f i GuGjkQuery.obj
 0001:0005ed80       ?supportPoint@?$LocalConvex@UPointConvexV@@@Gu@physx@@UEBA?AT__m128@@H@Z 000000018005fd80 f i GuGjkQuery.obj
 0001:0005ed90       ?support@?$LocalConvex@UPointConvexV@@@Gu@physx@@UEBA?AT__m128@@AEBT4@AEAH@Z 000000018005fd90 f i GuGjkQuery.obj
 0001:0005edb0       ?support@?$RelativeConvex@UCustomConvexV@@@Gu@physx@@UEBA?AT__m128@@AEBT4@@Z 000000018005fdb0 f i GuGjkQuery.obj
 0001:0005ee80       ?support@?$RelativeConvex@UCustomConvexV@@@Gu@physx@@UEBA?AT__m128@@AEBT4@AEAH@Z 000000018005fe80 f i GuGjkQuery.obj
 0001:0005ef60       ?supportPoint@?$LocalConvex@UCustomConvexV@@@Gu@physx@@UEBA?AT__m128@@H@Z 000000018005ff60 f i GuGjkQuery.obj
 0001:0005efd0       ?supportPoint@?$RelativeConvex@UCustomConvexV@@@Gu@physx@@UEBA?AT__m128@@H@Z 000000018005ffd0 f i GuGjkQuery.obj
 0001:0005f070       ?sweep@PxGjkQuery@physx@@SA_NAEBUSupport@12@0AEBV?$PxTransformT@M@2@1AEBV?$PxVec3T@M@2@MAEAMAEAV52@4@Z 0000000180060070 f   GuGjkQuery.obj
 0001:0005f830       ??$approximateCluster@MV?$PxVec3T@M@physx@@@Gu@physx@@YAXAEBV?$PxArray@HV?$PxReflectionAllocator@H@physx@@@1@IIPEBIPEBV?$PxVec3T@M@1@AEBV?$PxArray@MV?$PxReflectionAllocator@M@physx@@@1@AEBV?$PxArray@V?$PxVec3T@M@physx@@V?$PxReflectionAllocator@V?$PxVec3T@M@physx@@@2@@1@4AEAU?$ClusterApproximationT@MV?$PxVec3T@M@physx@@@01@@Z 0000000180060830 f i GuWindingNumber.obj
 0001:0005fe70       ??$precomputeClusterInformation@MV?$PxVec3T@M@physx@@@Gu@physx@@YAXHPEBUBVHNode@01@PEBIIPEBV?$PxVec3T@M@1@AEAV?$PxHashMap@IU?$ClusterApproximationT@MV?$PxVec3T@M@physx@@@Gu@physx@@U?$PxHash@I@3@VPxAllocator@3@@1@V?$PxArray@MV?$PxReflectionAllocator@M@physx@@@1@AEBV?$PxArray@V?$PxVec3T@M@physx@@V?$PxReflectionAllocator@V?$PxVec3T@M@physx@@@2@@1@5@Z 0000000180060e70 f i GuWindingNumber.obj
 0001:00060250       ??$precomputeClusterInformation@MV?$PxVec3T@M@physx@@@Gu@physx@@YAXPEBUBVHNode@01@PEBIIPEBV?$PxVec3T@M@1@AEAV?$PxHashMap@IU?$ClusterApproximationT@MV?$PxVec3T@M@physx@@@Gu@physx@@U?$PxHash@I@3@VPxAllocator@3@@1@H@Z 0000000180061250 f i GuWindingNumber.obj
 0001:00060660       ??$traverseBVH@V?$WindingNumberTraversalController@MV?$PxVec3T@M@physx@@@Gu@physx@@@Gu@physx@@YAXPEBUBVHNode@01@AEAV?$WindingNumberTraversalController@MV?$PxVec3T@M@physx@@@01@H@Z 0000000180061660 f i GuWindingNumber.obj
 0001:00060bb0       ?allocate@?$PxArray@HV?$PxReflectionAllocator@H@physx@@@physx@@IEAAPEAHI@Z 0000000180061bb0 f i GuWindingNumber.obj
 0001:00060c40       ?computeWindingNumber@Gu@physx@@YAMAEBV?$PxVec3T@M@2@PEBIIPEBV32@@Z 0000000180061c40 f   GuWindingNumber.obj
 0001:00060f70       ?computeWindingNumber@Gu@physx@@YAMPEBUBVHNode@12@AEBV?$PxVec3T@M@2@AEBV?$PxHashMap@IU?$ClusterApproximationT@MV?$PxVec3T@M@physx@@@Gu@physx@@U?$PxHash@I@3@VPxAllocator@3@@2@PEBIPEBV42@@Z 0000000180061f70 f   GuWindingNumber.obj
 0001:00060fe0       ?computeWindingNumber@Gu@physx@@YAMPEBUBVHNode@12@AEBV?$PxVec3T@M@2@MAEBV?$PxHashMap@IU?$ClusterApproximationT@MV?$PxVec3T@M@physx@@@Gu@physx@@U?$PxHash@I@3@VPxAllocator@3@@2@PEBIPEBV42@@Z 0000000180061fe0 f   GuWindingNumber.obj
 0001:00061050       ?create@?$PxHashBase@V?$PxPair@$$CBIU?$ClusterApproximationT@MV?$PxVec3T@M@physx@@@Gu@physx@@@physx@@IU?$PxHash@I@2@UGetKey@?$PxHashMapBase@IU?$ClusterApproximationT@MV?$PxVec3T@M@physx@@@Gu@physx@@U?$PxHash@I@3@VPxAllocator@3@@2@VPxAllocator@2@$00@physx@@QEAAPEAV?$PxPair@$$CBIU?$ClusterApproximationT@MV?$PxVec3T@M@physx@@@Gu@physx@@@2@AEBIAEA_N@Z 0000000180062050 f i GuWindingNumber.obj
 0001:000611a0       ?growAndPushBack@?$PxArray@HV?$PxReflectionAllocator@H@physx@@@physx@@IEAAAEAHAEBH@Z 00000001800621a0 f i GuWindingNumber.obj
 0001:00061260       ?growAndPushBack@?$PxArray@USection@Gu@physx@@V?$PxReflectionAllocator@USection@Gu@physx@@@3@@physx@@IEAAAEAUSection@Gu@2@AEBU342@@Z 0000000180062260 f i GuWindingNumber.obj
 0001:00061380       ?precomputeClusterInformation@Gu@physx@@YAXPEBUBVHNode@12@PEBIIPEBV?$PxVec3T@M@2@AEAV?$PxHashMap@IU?$ClusterApproximationT@MV?$PxVec3T@M@physx@@@Gu@physx@@U?$PxHash@I@3@VPxAllocator@3@@2@H@Z 0000000180062380 f   GuWindingNumber.obj
 0001:00061420       ?SweepAnyShapeHeightfield@Gu@physx@@YAMAEBUCCDShape@12@0AEBUPxTransformPadded@2@111MAEAV?$PxVec3T@M@2@2MAEAIM@Z 0000000180062420 f   GuCCDSweepConvexMesh.obj
 0001:000629c0       ?SweepAnyShapeMesh@Gu@physx@@YAMAEBUCCDShape@12@0AEBUPxTransformPadded@2@111MAEAV?$PxVec3T@M@2@2MAEAIM@Z 00000001800639c0 f   GuCCDSweepConvexMesh.obj
 0001:00063f80       ?SweepEstimateAnyShapeHeightfield@Gu@physx@@YAMAEBUCCDShape@12@0MM@Z 0000000180064f80 f   GuCCDSweepConvexMesh.obj
 0001:00064bf0       ?SweepEstimateAnyShapeMesh@Gu@physx@@YAMAEBUCCDShape@12@0MM@Z 0000000180065bf0 f   GuCCDSweepConvexMesh.obj
 0001:00064e90       ?allocate@?$PxArray@IV?$PxInlineAllocator@$0BAA@V?$PxReflectionAllocator@I@physx@@@physx@@@physx@@IEAAPEAII@Z 0000000180065e90 f i GuCCDSweepConvexMesh.obj
 0001:00065970       ?growAndPushBack@?$PxArray@IV?$PxInlineAllocator@$0BAA@V?$PxReflectionAllocator@I@physx@@@physx@@@physx@@IEAAAEAIAEBI@Z 0000000180066970 f i GuCCDSweepConvexMesh.obj
 0001:00065fb0       ?recreate@?$PxArray@IV?$PxInlineAllocator@$0BAA@V?$PxReflectionAllocator@I@physx@@@physx@@@physx@@IEAAXI@Z 0000000180066fb0 f i GuCCDSweepConvexMesh.obj
 0001:000660f0       ?resize@?$PxArray@IV?$PxInlineAllocator@$0BAA@V?$PxReflectionAllocator@I@physx@@@physx@@@physx@@QEAAXIAEBI@Z 00000001800670f0 f i GuCCDSweepConvexMesh.obj
 0001:000661c0       ?transformBoxOrthonormal@physx@@YA?AVBox@Gu@1@AEBV231@AEBV?$PxTransformT@M@1@@Z 00000001800671c0 f i GuCCDSweepConvexMesh.obj
 0001:00066650       ?UnimplementedSweep@Gu@physx@@YAMAEBUCCDShape@12@0AEBUPxTransformPadded@2@111MAEAV?$PxVec3T@M@2@2MAEAIM@Z 0000000180067650 f   GuCCDSweepPrimitives.obj
 0001:0006a380       ?UnimplementedTriangleSweep@Gu@physx@@YAMAEBVPxGeometry@2@0AEBUPxTransformPadded@2@111MAEAV?$PxVec3T@M@2@2AEBVFastVertex2ShapeScaling@Cm@2@AEAVTriangleV@12@M@Z 000000018006b380 f   GuCCDSweepPrimitives.obj
 0001:0006a390       ??$SweepGeomTriangles@VCapsuleV@Gu@physx@@@Gu@physx@@YAMAEBVPxGeometry@1@0AEBUPxTransformPadded@1@111MAEAV?$PxVec3T@M@1@2AEBVFastVertex2ShapeScaling@Cm@1@AEAVTriangleV@01@M@Z 000000018006b390 f i GuCCDSweepPrimitives.obj
 0001:0006aac0       ??$SweepGeomTriangles@VBoxV@Gu@physx@@@Gu@physx@@YAMAEBVPxGeometry@1@0AEBUPxTransformPadded@1@111MAEAV?$PxVec3T@M@1@2AEBVFastVertex2ShapeScaling@Cm@1@AEAVTriangleV@01@M@Z 000000018006bac0 f i GuCCDSweepPrimitives.obj
 0001:0006b210       ??$SweepGeomTriangles@VConvexHullV@Gu@physx@@@Gu@physx@@YAMAEBVPxGeometry@1@0AEBUPxTransformPadded@1@111MAEAV?$PxVec3T@M@1@2AEBVFastVertex2ShapeScaling@Cm@1@AEAVTriangleV@01@M@Z 000000018006c210 f i GuCCDSweepPrimitives.obj
 0001:0006bcf0       ?supportPoint@?$RelativeConvex@VCapsuleV@Gu@physx@@@Gu@physx@@UEBA?AT__m128@@H@Z 000000018006ccf0 f i GuCCDSweepPrimitives.obj
 0001:0006bd50       ?support@?$RelativeConvex@VCapsuleV@Gu@physx@@@Gu@physx@@UEBA?AT__m128@@AEBT4@@Z 000000018006cd50 f i GuCCDSweepPrimitives.obj
 0001:0006be00       ?support@?$RelativeConvex@VCapsuleV@Gu@physx@@@Gu@physx@@UEBA?AT__m128@@AEBT4@AEAH@Z 000000018006ce00 f i GuCCDSweepPrimitives.obj
 0001:0006bec0       ?supportPoint@?$RelativeConvex@VTriangleV@Gu@physx@@@Gu@physx@@UEBA?AT__m128@@H@Z 000000018006cec0 f i GuCCDSweepPrimitives.obj
 0001:0006bf10       ?support@?$RelativeConvex@VTriangleV@Gu@physx@@@Gu@physx@@UEBA?AT__m128@@AEBT4@@Z 000000018006cf10 f i GuCCDSweepPrimitives.obj
 0001:0006c010       ?support@?$RelativeConvex@VTriangleV@Gu@physx@@@Gu@physx@@UEBA?AT__m128@@AEBT4@AEAH@Z 000000018006d010 f i GuCCDSweepPrimitives.obj
 0001:0006c150       ??$gjkPenetration@U?$RelativeConvex@VCapsuleV@Gu@physx@@@Gu@physx@@U?$LocalConvex@VBoxV@Gu@physx@@@23@@Gu@physx@@YA?AW4GjkStatus@01@AEBU?$RelativeConvex@VCapsuleV@Gu@physx@@@01@AEBU?$LocalConvex@VBoxV@Gu@physx@@@01@AEBT__m128@@2_NPEIAE4AEAEAEAUGjkOutput@01@@Z 000000018006d150 f i GuCCDSweepPrimitives.obj
 0001:0006c1c0       ??$gjkPenetration@U?$RelativeConvex@VCapsuleV@Gu@physx@@@Gu@physx@@U?$LocalConvex@VBoxV@Gu@physx@@@23@@Gu@physx@@YA?AW4GjkStatus@01@AEBU?$RelativeConvex@VCapsuleV@Gu@physx@@@01@AEBU?$LocalConvex@VBoxV@Gu@physx@@@01@AEBT__m128@@2_NPEIAE4PEIAT5@5AEAEAEAUGjkOutput@01@@Z 000000018006d1c0 f i GuCCDSweepPrimitives.obj
 0001:0006d6c0       ??$gjkPenetration@U?$RelativeConvex@VCapsuleV@Gu@physx@@@Gu@physx@@U?$LocalConvex@VCapsuleV@Gu@physx@@@23@@Gu@physx@@YA?AW4GjkStatus@01@AEBU?$RelativeConvex@VCapsuleV@Gu@physx@@@01@AEBU?$LocalConvex@VCapsuleV@Gu@physx@@@01@AEBT__m128@@2_NPEIAE4AEAEAEAUGjkOutput@01@@Z 000000018006e6c0 f i GuCCDSweepPrimitives.obj
 0001:0006d730       ??$gjkPenetration@U?$RelativeConvex@VCapsuleV@Gu@physx@@@Gu@physx@@U?$LocalConvex@VCapsuleV@Gu@physx@@@23@@Gu@physx@@YA?AW4GjkStatus@01@AEBU?$RelativeConvex@VCapsuleV@Gu@physx@@@01@AEBU?$LocalConvex@VCapsuleV@Gu@physx@@@01@AEBT__m128@@2_NPEIAE4PEIAT5@5AEAEAEAUGjkOutput@01@@Z 000000018006e730 f i GuCCDSweepPrimitives.obj
 0001:0006ec20       ??$gjkPenetration@U?$RelativeConvex@VCapsuleV@Gu@physx@@@Gu@physx@@U?$LocalConvex@VConvexHullV@Gu@physx@@@23@@Gu@physx@@YA?AW4GjkStatus@01@AEBU?$RelativeConvex@VCapsuleV@Gu@physx@@@01@AEBU?$LocalConvex@VConvexHullV@Gu@physx@@@01@AEBT__m128@@2_NPEIAE4AEAEAEAUGjkOutput@01@@Z 000000018006fc20 f i GuCCDSweepPrimitives.obj
 0001:0006ec90       ??$gjkPenetration@U?$RelativeConvex@VCapsuleV@Gu@physx@@@Gu@physx@@U?$LocalConvex@VConvexHullV@Gu@physx@@@23@@Gu@physx@@YA?AW4GjkStatus@01@AEBU?$RelativeConvex@VCapsuleV@Gu@physx@@@01@AEBU?$LocalConvex@VConvexHullV@Gu@physx@@@01@AEBT__m128@@2_NPEIAE4PEIAT5@5AEAEAEAUGjkOutput@01@@Z 000000018006fc90 f i GuCCDSweepPrimitives.obj
 0001:00070230       ??$gjkPenetration@U?$RelativeConvex@VTriangleV@Gu@physx@@@Gu@physx@@U?$LocalConvex@VBoxV@Gu@physx@@@23@@Gu@physx@@YA?AW4GjkStatus@01@AEBU?$RelativeConvex@VTriangleV@Gu@physx@@@01@AEBU?$LocalConvex@VBoxV@Gu@physx@@@01@AEBT__m128@@2_NPEIAE4AEAEAEAUGjkOutput@01@@Z 0000000180071230 f i GuCCDSweepPrimitives.obj
 0001:000702a0       ??$gjkPenetration@U?$RelativeConvex@VTriangleV@Gu@physx@@@Gu@physx@@U?$LocalConvex@VBoxV@Gu@physx@@@23@@Gu@physx@@YA?AW4GjkStatus@01@AEBU?$RelativeConvex@VTriangleV@Gu@physx@@@01@AEBU?$LocalConvex@VBoxV@Gu@physx@@@01@AEBT__m128@@2_NPEIAE4PEIAT5@5AEAEAEAUGjkOutput@01@@Z 00000001800712a0 f i GuCCDSweepPrimitives.obj
 0001:000717c0       ??$gjkPenetration@U?$RelativeConvex@VTriangleV@Gu@physx@@@Gu@physx@@U?$LocalConvex@VCapsuleV@Gu@physx@@@23@@Gu@physx@@YA?AW4GjkStatus@01@AEBU?$RelativeConvex@VTriangleV@Gu@physx@@@01@AEBU?$LocalConvex@VCapsuleV@Gu@physx@@@01@AEBT__m128@@2_NPEIAE4AEAEAEAUGjkOutput@01@@Z 00000001800727c0 f i GuCCDSweepPrimitives.obj
 0001:00071830       ??$gjkPenetration@U?$RelativeConvex@VTriangleV@Gu@physx@@@Gu@physx@@U?$LocalConvex@VCapsuleV@Gu@physx@@@23@@Gu@physx@@YA?AW4GjkStatus@01@AEBU?$RelativeConvex@VTriangleV@Gu@physx@@@01@AEBU?$LocalConvex@VCapsuleV@Gu@physx@@@01@AEBT__m128@@2_NPEIAE4PEIAT5@5AEAEAEAUGjkOutput@01@@Z 0000000180072830 f i GuCCDSweepPrimitives.obj
 0001:00072d50       ??$gjkPenetration@U?$RelativeConvex@VTriangleV@Gu@physx@@@Gu@physx@@U?$LocalConvex@VConvexHullV@Gu@physx@@@23@@Gu@physx@@YA?AW4GjkStatus@01@AEBU?$RelativeConvex@VTriangleV@Gu@physx@@@01@AEBU?$LocalConvex@VConvexHullV@Gu@physx@@@01@AEBT__m128@@2_NPEIAE4AEAEAEAUGjkOutput@01@@Z 0000000180073d50 f i GuCCDSweepPrimitives.obj
 0001:00072dc0       ??$gjkPenetration@U?$RelativeConvex@VTriangleV@Gu@physx@@@Gu@physx@@U?$LocalConvex@VConvexHullV@Gu@physx@@@23@@Gu@physx@@YA?AW4GjkStatus@01@AEBU?$RelativeConvex@VTriangleV@Gu@physx@@@01@AEBU?$LocalConvex@VConvexHullV@Gu@physx@@@01@AEBT__m128@@2_NPEIAE4PEIAT5@5AEAEAEAUGjkOutput@01@@Z 0000000180073dc0 f i GuCCDSweepPrimitives.obj
 0001:00074370       ??$gjkRaycast@U?$RelativeConvex@VCapsuleV@Gu@physx@@@Gu@physx@@U?$LocalConvex@VBoxV@Gu@physx@@@23@@Gu@physx@@YA_NAEBU?$RelativeConvex@VCapsuleV@Gu@physx@@@01@AEBU?$LocalConvex@VBoxV@Gu@physx@@@01@AEBT__m128@@222AEAT4@33M@Z 0000000180075370 f i GuCCDSweepPrimitives.obj
 0001:00074fe0       ??$gjkRaycast@U?$RelativeConvex@VCapsuleV@Gu@physx@@@Gu@physx@@U?$LocalConvex@VCapsuleV@Gu@physx@@@23@@Gu@physx@@YA_NAEBU?$RelativeConvex@VCapsuleV@Gu@physx@@@01@AEBU?$LocalConvex@VCapsuleV@Gu@physx@@@01@AEBT__m128@@222AEAT4@33M@Z 0000000180075fe0 f i GuCCDSweepPrimitives.obj
 0001:00075cd0       ??$gjkRaycast@U?$RelativeConvex@VCapsuleV@Gu@physx@@@Gu@physx@@U?$LocalConvex@VConvexHullV@Gu@physx@@@23@@Gu@physx@@YA_NAEBU?$RelativeConvex@VCapsuleV@Gu@physx@@@01@AEBU?$LocalConvex@VConvexHullV@Gu@physx@@@01@AEBT__m128@@222AEAT4@33M@Z 0000000180076cd0 f i GuCCDSweepPrimitives.obj
 0001:00076ad0       ??$gjkRaycast@U?$RelativeConvex@VTriangleV@Gu@physx@@@Gu@physx@@U?$LocalConvex@VBoxV@Gu@physx@@@23@@Gu@physx@@YA_NAEBU?$RelativeConvex@VTriangleV@Gu@physx@@@01@AEBU?$LocalConvex@VBoxV@Gu@physx@@@01@AEBT__m128@@222AEAT4@33M@Z 0000000180077ad0 f i GuCCDSweepPrimitives.obj
 0001:000777e0       ??$gjkRaycast@U?$RelativeConvex@VTriangleV@Gu@physx@@@Gu@physx@@U?$LocalConvex@VCapsuleV@Gu@physx@@@23@@Gu@physx@@YA_NAEBU?$RelativeConvex@VTriangleV@Gu@physx@@@01@AEBU?$LocalConvex@VCapsuleV@Gu@physx@@@01@AEBT__m128@@222AEAT4@33M@Z 00000001800787e0 f i GuCCDSweepPrimitives.obj
 0001:00078560       ??$gjkRaycast@U?$RelativeConvex@VTriangleV@Gu@physx@@@Gu@physx@@U?$LocalConvex@VConvexHullV@Gu@physx@@@23@@Gu@physx@@YA_NAEBU?$RelativeConvex@VTriangleV@Gu@physx@@@01@AEBU?$LocalConvex@VConvexHullV@Gu@physx@@@01@AEBT__m128@@222AEAT4@33M@Z 0000000180079560 f i GuCCDSweepPrimitives.obj
 0001:00079420       ?SweepShapeShape@Gu@physx@@YAMAEBUCCDShape@12@0AEBUPxTransformPadded@2@111MAEAV?$PxVec3T@M@2@2MAEAIM@Z 000000018007a420 f   GuCCDSweepPrimitives.obj
 0001:00079440       ?SweepShapeTriangle@Gu@physx@@YAMAEBVPxGeometry@2@0AEBUPxTransformPadded@2@111MAEAV?$PxVec3T@M@2@2AEBVFastVertex2ShapeScaling@Cm@2@AEAVTriangleV@12@M@Z 000000018007a440 f   GuCCDSweepPrimitives.obj
 0001:00079460       ?barycentricCoordinates@Gu@physx@@YAXAEBT__m128@@000AEAT3@1@Z 000000018007a460 f   GuBarycentricCoordinates.obj
 0001:000795a0       ?barycentricCoordinates@Gu@physx@@YAXAEBT__m128@@00AEAT3@@Z 000000018007a5a0 f   GuBarycentricCoordinates.obj
 0001:00079610       ??$?_UV?$PxReflectionAllocator@VAdjTriangle@Gu@physx@@@physx@@@PxUserAllocated@physx@@SAPEAX_KV?$PxReflectionAllocator@VAdjTriangle@Gu@physx@@@1@PEBDH@Z 000000018007a610 f i GuAdjacencies.obj
 0001:000796f0       ??0AdjacenciesBuilder@Gu@physx@@QEAA@XZ 000000018007a6f0 f   GuAdjacencies.obj
 0001:00079700       ??1AdjacenciesBuilder@Gu@physx@@QEAA@XZ 000000018007a700 f   GuAdjacencies.obj
 0001:00079850       ?ComputeNbBoundaryEdges@Adjacencies@Gu@physx@@QEBAIXZ 000000018007a850 f   GuAdjacencies.obj
 0001:00079ae0       ?Init@AdjacenciesBuilder@Gu@physx@@QEAA_NAEBUADJACENCIESCREATE@23@@Z 000000018007aae0 f   GuAdjacencies.obj
 0001:0007a040       ??0EdgeList@Gu@physx@@QEAA@XZ 000000018007b040 f   GuEdgeList.obj
 0001:0007a060       ??1EdgeList@Gu@physx@@QEAA@XZ 000000018007b060 f   GuEdgeList.obj
 0001:0007a110       ?computeActiveEdges@EdgeList@Gu@physx@@AEAA_NIPEBIPEBGPEBV?$PxVec3T@M@3@M@Z 000000018007b110 f   GuEdgeList.obj
 0001:0007b490       ?createEdgesToFaces@EdgeList@Gu@physx@@AEAA_NIPEBIPEBG@Z 000000018007c490 f   GuEdgeList.obj
 0001:0007b6f0       ?createFacesToEdges@EdgeList@Gu@physx@@AEAA_NIPEBIPEBG@Z 000000018007c6f0 f   GuEdgeList.obj
 0001:0007bac0       ?init@EdgeList@Gu@physx@@QEAA_NAEBUEDGELISTCREATE@23@@Z 000000018007cac0 f   GuEdgeList.obj
 0001:0007bbf0       ?addAxis@SeparatingAxes@Gu@physx@@QEAA_NAEBV?$PxVec3T@M@3@@Z 000000018007cbf0 f   GuSeparatingAxes.obj
 0001:0007bcb0       ??$kmeans_cluster@V?$PxVec3T@M@physx@@M@@YAIPEBV?$PxVec3T@M@physx@@IIPEAV01@PEAIMM@Z 000000018007ccb0 f i GuQuantizer.obj
 0001:0007c670       ??_EQuantizer@Gu@physx@@MEAAPEAXI@Z 000000018007d670 f i GuQuantizer.obj
 0001:0007c670       ??_GQuantizer@Gu@physx@@MEAAPEAXI@Z 000000018007d670 f i GuQuantizer.obj
 0001:0007c6a0       ??_EQuantizerImpl@@EEAAPEAXI@Z 000000018007d6a0 f i GuQuantizer.obj
 0001:0007c6a0       ??_GQuantizerImpl@@EEAAPEAXI@Z 000000018007d6a0 f i GuQuantizer.obj
 0001:0007c770       ?createQuantizer@Gu@physx@@YAPEAVQuantizer@12@XZ 000000018007d770 f   GuQuantizer.obj
 0001:0007c820       ?getDenormalizeCenter@QuantizerImpl@@UEBAAEBV?$PxVec3T@M@physx@@XZ 000000018007d820 f i GuQuantizer.obj
 0001:0007c830       ?getCurrentAABBTreeBounds@PruningPool@Gu@physx@@QEBAAEBVAABBTreeBounds@23@XZ 000000018007d830 f i GuIncrementalAABBPrunerCore.obj
 0001:0007c830       ?getDenormalizeScale@QuantizerImpl@@UEBAAEBV?$PxVec3T@M@physx@@XZ 000000018007d830 f i GuQuantizer.obj
 0001:0007c840       ?kmeansQuantize3D@QuantizerImpl@@UEAAPEBV?$PxVec3T@M@physx@@IPEBV23@I_NIAEAI@Z 000000018007d840 f i GuQuantizer.obj
 0001:0007cab0       ?normalizeInput@QuantizerImpl@@AEAAXIPEBV?$PxVec3T@M@physx@@I@Z 000000018007dab0 f i GuQuantizer.obj
 0001:0007cf00       ?release@QuantizerImpl@@UEAAXXZ 000000018007df00 f i GuQuantizer.obj
 0001:0007cf20       ??0MeshCleaner@Gu@physx@@QEAA@IPEBV?$PxVec3T@M@2@IPEBIMM@Z 000000018007df20 f   GuMeshCleaner.obj
 0001:0007d8f0       ??1MeshCleaner@Gu@physx@@QEAA@XZ 000000018007e8f0 f   GuMeshCleaner.obj
 0001:0007d980       ??0ReducedVertexCloud@Gu@physx@@QEAA@PEBV?$PxVec3T@M@2@I@Z 000000018007e980 f   GuVertexReducer.obj
 0001:0007d9a0       ??1ReducedVertexCloud@Gu@physx@@QEAA@XZ 000000018007e9a0 f   GuVertexReducer.obj
 0001:0007d9b0       ?clean@ReducedVertexCloud@Gu@physx@@QEAAAEAV123@XZ 000000018007e9b0 f   GuVertexReducer.obj
 0001:0007da20       ?reduce@ReducedVertexCloud@Gu@physx@@QEAA_NPEAUREDUCEDCLOUD@23@@Z 000000018007ea20 f   GuVertexReducer.obj
 0001:0007dcc0       ?buildConsistentTriangleOrientationMap@MeshAnalyzer@Gu@physx@@SA_NPEBU?$IndexedTriangleT@H@23@IAEAV?$PxArray@_NV?$PxReflectionAllocator@_N@physx@@@3@AEAV?$PxHashMap@_KHU?$PxHash@_K@physx@@VPxAllocator@2@@3@AEAV?$PxArray@V?$PxArray@IV?$PxReflectionAllocator@I@physx@@@physx@@V?$PxReflectionAllocator@V?$PxArray@IV?$PxReflectionAllocator@I@physx@@@physx@@@2@@3@@Z 000000018007ecc0 f   GuMeshAnalysis.obj
 0001:0007e070       ?buildTriangleAdjacency@MeshAnalyzer@Gu@physx@@SA_NPEBU?$IndexedTriangleT@H@23@IAEAV?$PxArray@HV?$PxReflectionAllocator@H@physx@@@3@AEAV?$PxHashMap@_KHU?$PxHash@_K@physx@@VPxAllocator@2@@3@@Z 000000018007f070 f   GuMeshAnalysis.obj
 0001:0007e370       ?checkConsistentTriangleOrientation@MeshAnalyzer@Gu@physx@@SA_NPEBU?$IndexedTriangleT@H@23@I@Z 000000018007f370 f   GuMeshAnalysis.obj
 0001:0007e4c0       ?checkMeshWatertightness@MeshAnalyzer@Gu@physx@@SA_NPEBU?$IndexedTriangleT@H@23@I_N@Z 000000018007f4c0 f   GuMeshAnalysis.obj
 0001:0007e690       ?destroy@?$PxArray@V?$PxArray@IV?$PxReflectionAllocator@I@physx@@@physx@@V?$PxReflectionAllocator@V?$PxArray@IV?$PxReflectionAllocator@I@physx@@@physx@@@2@@physx@@KAXPEAV?$PxArray@IV?$PxReflectionAllocator@I@physx@@@2@0@Z 000000018007f690 f i GuMeshAnalysis.obj
 0001:0007e700       ?erase@?$PxHashBase@V?$PxPair@$$CB_KH@physx@@_KU?$PxHash@_K@2@UGetKey@?$PxHashMapBase@_KHU?$PxHash@_K@physx@@VPxAllocator@2@@2@VPxAllocator@2@$00@physx@@QEAA_NAEB_K@Z 000000018007f700 f i GuMeshAnalysis.obj
 0001:0007e8b0       ?growAndPushBack@?$PxArray@V?$PxArray@IV?$PxReflectionAllocator@I@physx@@@physx@@V?$PxReflectionAllocator@V?$PxArray@IV?$PxReflectionAllocator@I@physx@@@physx@@@2@@physx@@IEAAAEAV?$PxArray@IV?$PxReflectionAllocator@I@physx@@@2@AEBV32@@Z 000000018007f8b0 f i GuMeshAnalysis.obj
 0001:0007ea00       ?makeTriOrientationConsistent@MeshAnalyzer@Gu@physx@@SA_NPEAU?$IndexedTriangleT@H@23@I_N@Z 000000018007fa00 f   GuMeshAnalysis.obj
 0001:0007eb70       ?recreate@?$PxArray@_NV?$PxReflectionAllocator@_N@physx@@@physx@@IEAAXI@Z 000000018007fb70 f i GuMeshAnalysis.obj
 0001:0007ec60       ?resize@?$PxArray@HV?$PxReflectionAllocator@H@physx@@@physx@@QEAAXIAEBH@Z 000000018007fc60 f i GuMeshAnalysis.obj
 0001:0007ed20       ?resize@?$PxArray@_NV?$PxReflectionAllocator@_N@physx@@@physx@@QEAAXIAEB_N@Z 000000018007fd20 f i GuMeshAnalysis.obj
 0001:0007ede0       ?contactBoxBox@Gu@physx@@YA_NAEBVPxGeometry@2@0AEBUPxTransformPadded@2@1AEBUNarrowPhaseParams@12@AEAUCache@12@AEAVPxContactBuffer@2@PEAVPxRenderOutput@2@@Z 000000018007fde0 f   GuContactBoxBox.obj
 0001:00082c10       ?contactCapsuleBox@Gu@physx@@YA_NAEBVPxGeometry@2@0AEBUPxTransformPadded@2@1AEBUNarrowPhaseParams@12@AEAUCache@12@AEAVPxContactBuffer@2@PEAVPxRenderOutput@2@@Z 0000000180083c10 f   GuContactCapsuleBox.obj
 0001:00083420       ?contactCapsuleCapsule@Gu@physx@@YA_NAEBVPxGeometry@2@0AEBUPxTransformPadded@2@1AEBUNarrowPhaseParams@12@AEAUCache@12@AEAVPxContactBuffer@2@PEAVPxRenderOutput@2@@Z 0000000180084420 f   GuContactCapsuleCapsule.obj
 0001:00085e10       ?contactCapsuleConvex@Gu@physx@@YA_NAEBVPxGeometry@2@0AEBUPxTransformPadded@2@1AEBUNarrowPhaseParams@12@AEAUCache@12@AEAVPxContactBuffer@2@PEAVPxRenderOutput@2@@Z 0000000180086e10 f   GuContactCapsuleConvex.obj
 0001:00088340       ?contactCapsuleHeightfield@Gu@physx@@YA_NAEBVPxGeometry@2@0AEBUPxTransformPadded@2@1AEBUNarrowPhaseParams@12@AEAUCache@12@AEAVPxContactBuffer@2@PEAVPxRenderOutput@2@@Z 0000000180089340 f   GuContactCapsuleMesh.obj
 0001:00088b70       ?contactCapsuleMesh@Gu@physx@@YA_NAEBVPxGeometry@2@0AEBUPxTransformPadded@2@1AEBUNarrowPhaseParams@12@AEAUCache@12@AEAVPxContactBuffer@2@PEAVPxRenderOutput@2@@Z 0000000180089b70 f   GuContactCapsuleMesh.obj
 0001:00089cf0       ?transformQueryBounds@FastVertex2ShapeScaling@Cm@physx@@QEBAXAEAV?$PxVec3T@M@3@0AEAV?$PxMat33T@M@3@@Z 000000018008acf0 f i GuContactCapsuleMesh.obj
 0001:0008df80       ?contactBoxConvex@Gu@physx@@YA_NAEBVPxGeometry@2@0AEBUPxTransformPadded@2@1AEBUNarrowPhaseParams@12@AEAUCache@12@AEAVPxContactBuffer@2@PEAVPxRenderOutput@2@@Z 000000018008ef80 f   GuContactConvexConvex.obj
 0001:0008e150       ?contactConvexConvex@Gu@physx@@YA_NAEBVPxGeometry@2@0AEBUPxTransformPadded@2@1AEBUNarrowPhaseParams@12@AEAUCache@12@AEAVPxContactBuffer@2@PEAVPxRenderOutput@2@@Z 000000018008f150 f   GuContactConvexConvex.obj
 0001:0008e5d0       ?transformPlaneToShapeSpace@FastVertex2ShapeScaling@Cm@physx@@QEBAXAEBV?$PxVec3T@M@3@MAEAV43@AEAM@Z 000000018008f5d0 f i GuContactConvexConvex.obj
 0001:0008ea80       ??_EConvexMeshContactGenerationCallback@@UEAAPEAXI@Z 000000018008fa80 f i GuContactConvexMesh.obj
 0001:0008ea80       ??_GConvexMeshContactGenerationCallback@@UEAAPEAXI@Z 000000018008fa80 f i GuContactConvexMesh.obj
 0001:0008eae0       ?addData@?$CacheMap@UCachedEdge@Gu@physx@@$0IA@@Gu@physx@@QEAA_NAEBUCachedEdge@23@@Z 000000018008fae0 f i GuContactConvexMesh.obj
 0001:0008ebc0       ?addData@?$CacheMap@UCachedVertex@Gu@physx@@$0IA@@Gu@physx@@QEAA_NAEBUCachedVertex@23@@Z 000000018008fbc0 f i GuContactConvexMesh.obj
 0001:0008ec50       ?allocate@?$PxArray@IV?$PxInlineAllocator@$0BBAA@V?$PxReflectionAllocator@I@physx@@@physx@@@physx@@IEAAPEAII@Z 000000018008fc50 f i GuContactConvexMesh.obj
 0001:0008f050       ?contactBoxHeightfield@Gu@physx@@YA_NAEBVPxGeometry@2@0AEBUPxTransformPadded@2@1AEBUNarrowPhaseParams@12@AEAUCache@12@AEAVPxContactBuffer@2@PEAVPxRenderOutput@2@@Z 0000000180090050 f   GuContactConvexMesh.obj
 0001:0008f1d0       ?contactBoxMesh@Gu@physx@@YA_NAEBVPxGeometry@2@0AEBUPxTransformPadded@2@1AEBUNarrowPhaseParams@12@AEAUCache@12@AEAVPxContactBuffer@2@PEAVPxRenderOutput@2@@Z 00000001800901d0 f   GuContactConvexMesh.obj
 0001:0008f3a0       ?contactConvexHeightfield@Gu@physx@@YA_NAEBVPxGeometry@2@0AEBUPxTransformPadded@2@1AEBUNarrowPhaseParams@12@AEAUCache@12@AEAVPxContactBuffer@2@PEAVPxRenderOutput@2@@Z 00000001800903a0 f   GuContactConvexMesh.obj
 0001:0008f4f0       ?contactConvexMesh@Gu@physx@@YA_NAEBVPxGeometry@2@0AEBUPxTransformPadded@2@1AEBUNarrowPhaseParams@12@AEAUCache@12@AEAVPxContactBuffer@2@PEAVPxRenderOutput@2@@Z 00000001800904f0 f   GuContactConvexMesh.obj
 0001:00092c10       ?processHit@ConvexMeshContactGenerationCallback@@UEAA_NAEBUPxGeomRaycastHit@physx@@AEBV?$PxVec3T@M@3@11AEAMPEBI@Z 0000000180093c10 f i GuContactConvexMesh.obj
 0001:000935d0       ?recreate@?$PxArray@IV?$PxInlineAllocator@$0BBAA@V?$PxReflectionAllocator@I@physx@@@physx@@@physx@@IEAAXI@Z 00000001800945d0 f i GuContactConvexMesh.obj
 0001:00094a40       ?contactPlaneBox@Gu@physx@@YA_NAEBVPxGeometry@2@0AEBUPxTransformPadded@2@1AEBUNarrowPhaseParams@12@AEAUCache@12@AEAVPxContactBuffer@2@PEAVPxRenderOutput@2@@Z 0000000180095a40 f   GuContactPlaneBox.obj
 0001:000956e0       ?contactPlaneCapsule@Gu@physx@@YA_NAEBVPxGeometry@2@0AEBUPxTransformPadded@2@1AEBUNarrowPhaseParams@12@AEAUCache@12@AEAVPxContactBuffer@2@PEAVPxRenderOutput@2@@Z 00000001800966e0 f   GuContactPlaneCapsule.obj
 0001:00095db0       ?contactPlaneConvex@Gu@physx@@YA_NAEBVPxGeometry@2@0AEBUPxTransformPadded@2@1AEBUNarrowPhaseParams@12@AEAUCache@12@AEAVPxContactBuffer@2@PEAVPxRenderOutput@2@@Z 0000000180096db0 f   GuContactPlaneConvex.obj
 0001:00097ae0       ?contactPolygonPolygonExt@Gu@physx@@YA_NIPEBV?$PxVec3T@M@2@PEBEAEBV?$PxMat34T@M@2@AEBVPxPlane@2@AEBV?$PxMat33T@M@2@I01234AEBV32@22IIAEAVPxContactBuffer@2@_N5M@Z 0000000180098ae0 f   GuContactPolygonPolygon.obj
 0001:00099250       ?findRotationMatrixFromZ@Gu@physx@@YA?AV?$PxMat33T@M@2@AEBV?$PxVec3T@M@2@@Z 000000018009a250 f   GuContactPolygonPolygon.obj
 0001:00099c70       ?contactSphereBox@Gu@physx@@YA_NAEBVPxGeometry@2@0AEBUPxTransformPadded@2@1AEBUNarrowPhaseParams@12@AEAUCache@12@AEAVPxContactBuffer@2@PEAVPxRenderOutput@2@@Z 000000018009ac70 f   GuContactSphereBox.obj
 0001:0009a240       ?contactSphereCapsule@Gu@physx@@YA_NAEBVPxGeometry@2@0AEBUPxTransformPadded@2@1AEBUNarrowPhaseParams@12@AEAUCache@12@AEAVPxContactBuffer@2@PEAVPxRenderOutput@2@@Z 000000018009b240 f   GuContactSphereCapsule.obj
 0001:0009b020       ?contactSphereHeightfield@Gu@physx@@YA_NAEBVPxGeometry@2@0AEBUPxTransformPadded@2@1AEBUNarrowPhaseParams@12@AEAUCache@12@AEAVPxContactBuffer@2@PEAVPxRenderOutput@2@@Z 000000018009c020 f   GuContactSphereMesh.obj
 0001:0009ba10       ?contactSphereMesh@Gu@physx@@YA_NAEBVPxGeometry@2@0AEBUPxTransformPadded@2@1AEBUNarrowPhaseParams@12@AEAUCache@12@AEAVPxContactBuffer@2@PEAVPxRenderOutput@2@@Z 000000018009ca10 f   GuContactSphereMesh.obj
 0001:0009ddc0       ?contactSpherePlane@Gu@physx@@YA_NAEBVPxGeometry@2@0AEBUPxTransformPadded@2@1AEBUNarrowPhaseParams@12@AEAUCache@12@AEAVPxContactBuffer@2@PEAVPxRenderOutput@2@@Z 000000018009edc0 f   GuContactSpherePlane.obj
 0001:0009dfd0       ?contactSphereSphere@Gu@physx@@YA_NAEBVPxGeometry@2@0AEBUPxTransformPadded@2@1AEBUNarrowPhaseParams@12@AEAUCache@12@AEAVPxContactBuffer@2@PEAVPxRenderOutput@2@@Z 000000018009efd0 f   GuContactSphereSphere.obj
 0001:0009e150       ?contactCustomGeometryGeometry@Gu@physx@@YA_NAEBVPxGeometry@2@0AEBUPxTransformPadded@2@1AEBUNarrowPhaseParams@12@AEAUCache@12@AEAVPxContactBuffer@2@PEAVPxRenderOutput@2@@Z 000000018009f150 f   GuContactCustomGeometry.obj
 0001:0009e1b0       ?contactGeometryCustomGeometry@Gu@physx@@YA_NAEBVPxGeometry@2@0AEBUPxTransformPadded@2@1AEBUNarrowPhaseParams@12@AEAUCache@12@AEAVPxContactBuffer@2@PEAVPxRenderOutput@2@@Z 000000018009f1b0 f   GuContactCustomGeometry.obj
 0001:0009e270       ?selectNormal@Gu@physx@@YA_NEMM@Z 000000018009f270 f   GuFeatureCode.obj
 0001:0009e2f0       ??0BigConvexData@physx@@QEAA@XZ 000000018009f2f0 f   GuBigConvexData.obj
 0001:0009e310       ??1BigConvexData@physx@@QEAA@XZ 000000018009f310 f   GuBigConvexData.obj
 0001:0009e3d0       ?ComputeNearestOffset@BigConvexData@physx@@QEBAIAEBV?$PxVec3T@M@2@@Z 000000018009f3d0 f   GuBigConvexData.obj
 0001:0009e4d0       ?ComputeOffset@BigConvexData@physx@@QEBAIAEBV?$PxVec3T@M@2@@Z 000000018009f4d0 f   GuBigConvexData.obj
 0001:0009e5d0       ?CreateOffsets@BigConvexData@physx@@IEAAXXZ 000000018009f5d0 f   GuBigConvexData.obj
 0001:0009e620       ?Load@BigConvexData@physx@@QEAA_NAEAVPxInputStream@2@@Z 000000018009f620 f   GuBigConvexData.obj
 0001:0009e730       ?VLoad@BigConvexData@physx@@IEAA_NAEAVPxInputStream@2@@Z 000000018009f730 f   GuBigConvexData.obj
 0001:0009e8d0       ?exportExtraData@BigConvexData@physx@@QEAAXAEAVPxSerializationContext@2@@Z 000000018009f8d0 f   GuBigConvexData.obj
 0001:0009e950       ?importExtraData@BigConvexData@physx@@QEAAXAEAVPxDeserializationContext@2@@Z 000000018009f950 f   GuBigConvexData.obj
 0001:0009e9c0       ?findUniqueConvexEdges@Gu@physx@@YAIIPEIAUConvexEdge@12@IPEIBUHullPolygonData@12@PEIBE@Z 000000018009f9c0 f   GuConvexHelper.obj
 0001:0009eb00       ?getConvexData@Gu@physx@@YA_NAEBVPxConvexMeshGeometry@2@AEAVFastVertex2ShapeScaling@Cm@2@AEAVPxBounds3@2@AEAUPolygonalData@12@@Z 000000018009fb00 f   GuConvexHelper.obj
 0001:0009ed90       ?getScaledConvex@Gu@physx@@YAXAEAPEAV?$PxVec3T@M@2@AEAPEAEPEAV32@PEAE_NPEBV32@PEBEIAEBVFastVertex2ShapeScaling@Cm@2@@Z 000000018009fd90 f   GuConvexHelper.obj
 0001:0009eec0       ??0ConvexMesh@Gu@physx@@QEAA@PEAVMeshFactory@12@@Z 000000018009fec0 f   GuConvexMesh.obj
 0001:0009ef50       ??0ConvexMesh@Gu@physx@@QEAA@PEAVMeshFactory@12@AEAUConvexHullInitData@12@@Z 000000018009ff50 f   GuConvexMesh.obj
 0001:0009f080       ??_EConvexMesh@Gu@physx@@UEAAPEAXI@Z 00000001800a0080 f i GuConvexMesh.obj
 0001:0009f080       ??_GConvexMesh@Gu@physx@@UEAAPEAXI@Z 00000001800a0080 f i GuConvexMesh.obj
 0001:0009f190       ??_EPxBVH@physx@@MEAAPEAXI@Z 00000001800a0190 f i GuBVH.obj
 0001:0009f190       ??_EPxBase@physx@@MEAAPEAXI@Z 00000001800a0190 f i GuConvexMesh.obj
 0001:0009f190       ??_GPxBVH@physx@@MEAAPEAXI@Z 00000001800a0190 f i GuBVH.obj
 0001:0009f190       ??_GPxBase@physx@@MEAAPEAXI@Z 00000001800a0190 f i GuConvexMesh.obj
 0001:0009f1c0       ?acquireReference@ConvexMesh@Gu@physx@@UEAAXXZ 00000001800a01c0 f   GuConvexMesh.obj
 0001:0009f1c0       ?acquireReference@HeightField@Gu@physx@@UEAAXXZ 00000001800a01c0 f   GuHeightField.obj
 0001:0009f1c0       ?acquireReference@SoftBodyAuxData@Gu@physx@@UEAAXXZ 00000001800a01c0 f   GuTetrahedronMesh.obj
 0001:0009f1c0       ?acquireReference@SoftBodyMesh@Gu@physx@@UEAAXXZ 00000001800a01c0 f   GuTetrahedronMesh.obj
 0001:0009f1c0       ?acquireReference@TetrahedronMesh@Gu@physx@@UEAAXXZ 00000001800a01c0 f   GuTetrahedronMesh.obj
 0001:0009f1c0       ?acquireReference@TriangleMesh@Gu@physx@@UEAAXXZ 00000001800a01c0 f   GuTriangleMesh.obj
 0001:0009f690       ?createObject@ConvexMesh@Gu@physx@@SAPEAV123@AEAPEAEAEAVPxDeserializationContext@3@@Z 00000001800a0690 f   GuConvexMesh.obj
 0001:0009f7b0       ?exportExtraData@ConvexMesh@Gu@physx@@UEAAXAEAVPxSerializationContext@3@@Z 00000001800a07b0 f   GuConvexMesh.obj
 0001:0009f8b0       ?getConcreteTypeName@PxConvexMesh@physx@@UEBAPEBDXZ 00000001800a08b0 f i GuConvexMesh.obj
 0001:0009f8c0       ?getIndexBuffer@ConvexMesh@Gu@physx@@UEBAPEBEXZ 00000001800a08c0 f i GuConvexMesh.obj
 0001:0009f900       ?getLocalBounds@ConvexMesh@Gu@physx@@UEBA?AVPxBounds3@3@XZ 00000001800a0900 f   GuConvexMesh.obj
 0001:0009f990       ?getMassInformation@ConvexMesh@Gu@physx@@UEBAXAEAMAEAV?$PxMat33T@M@3@AEAV?$PxVec3T@M@3@@Z 00000001800a0990 f   GuConvexMesh.obj
 0001:0009fa00       ?getNbPolygons@ConvexMesh@Gu@physx@@UEBAIXZ 00000001800a0a00 f i GuConvexMesh.obj
 0001:0009fa10       ?getNbVertices@ConvexMesh@Gu@physx@@UEBAIXZ 00000001800a0a10 f i GuConvexMesh.obj
 0001:0009fa20       ?getPolygonData@ConvexMesh@Gu@physx@@UEBA_NIAEAUPxHullPolygon@3@@Z 00000001800a0a20 f   GuConvexMesh.obj
 0001:0009fa70       ?getReferenceCount@ConvexMesh@Gu@physx@@UEBAIXZ 00000001800a0a70 f   GuConvexMesh.obj
 0001:0009fa70       ?getReferenceCount@HeightField@Gu@physx@@UEBAIXZ 00000001800a0a70 f   GuHeightField.obj
 0001:0009fa70       ?getReferenceCount@SoftBodyAuxData@Gu@physx@@UEBAIXZ 00000001800a0a70 f   GuTetrahedronMesh.obj
 0001:0009fa70       ?getReferenceCount@SoftBodyMesh@Gu@physx@@UEBAIXZ 00000001800a0a70 f   GuTetrahedronMesh.obj
 0001:0009fa70       ?getReferenceCount@TetrahedronMesh@Gu@physx@@UEBAIXZ 00000001800a0a70 f   GuTetrahedronMesh.obj
 0001:0009fa70       ?getReferenceCount@TriangleMesh@Gu@physx@@UEBAIXZ 00000001800a0a70 f   GuTriangleMesh.obj
 0001:0009fa80       ?getSDF@ConvexMesh@Gu@physx@@UEBAPEBMXZ 00000001800a0a80 f   GuConvexMesh.obj
 0001:0009fa90       ?getVertices@ConvexMesh@Gu@physx@@UEBAPEBV?$PxVec3T@M@3@XZ 00000001800a0a90 f i GuConvexMesh.obj
 0001:0009fab0       ?isGpuCompatible@ConvexMesh@Gu@physx@@UEBA_NXZ 00000001800a0ab0 f   GuConvexMesh.obj
 0001:0009faf0       ?isKindOf@PxBase@physx@@MEBA_NPEBD@Z 00000001800a0af0 f i GuConvexMesh.obj
 0001:0009fb10       ?isKindOf@PxConvexMesh@physx@@MEBA_NPEBD@Z 00000001800a0b10 f i GuConvexMesh.obj
 0001:0009fba0       ?isReleasable@PxBase@physx@@UEBA_NXZ 00000001800a0ba0 f i GuConvexMesh.obj
 0001:0009fbb0       ?load@ConvexMesh@Gu@physx@@QEAA_NAEAVPxInputStream@3@@Z 00000001800a0bb0 f   GuConvexMesh.obj
 0001:000a0110       ?onRefCountZero@ConvexMesh@Gu@physx@@UEAAXXZ 00000001800a1110 f   GuConvexMesh.obj
 0001:000a0240       ?release@ConvexMesh@Gu@physx@@UEAAXXZ 00000001800a1240 f   GuConvexMesh.obj
 0001:000a0240       ?release@HeightField@Gu@physx@@UEAAXXZ 00000001800a1240 f   GuHeightField.obj
 0001:000a0240       ?release@SoftBodyAuxData@Gu@physx@@UEAAXXZ 00000001800a1240 f   GuTetrahedronMesh.obj
 0001:000a0240       ?release@SoftBodyMesh@Gu@physx@@UEAAXXZ 00000001800a1240 f   GuTetrahedronMesh.obj
 0001:000a0240       ?release@TetrahedronMesh@Gu@physx@@UEAAXXZ 00000001800a1240 f   GuTetrahedronMesh.obj
 0001:000a0240       ?release@TriangleMesh@Gu@physx@@UEAAXXZ 00000001800a1240 f   GuTriangleMesh.obj
 0001:000a0270       ??Dphysx@@YA?AV?$PxMat34T@M@0@AEBVPxMeshScale@0@AEBV10@@Z 00000001800a1270 f i GuConvexUtilsInternal.obj
 0001:000a0810       ?computeHullOBB@Gu@physx@@YAXAEAVBox@12@AEBVPxBounds3@2@MAEBV?$PxMat34T@M@2@2AEBVFastVertex2ShapeScaling@Cm@2@_N@Z 00000001800a1810 f   GuConvexUtilsInternal.obj
 0001:000a0cc0       ?computeOBBAroundConvex@Gu@physx@@YAXAEAVBox@12@AEBVPxConvexMeshGeometry@2@PEBVPxConvexMesh@2@AEBV?$PxTransformT@M@2@@Z 00000001800a1cc0 f   GuConvexUtilsInternal.obj
 0001:000a1510       ?computeVertexSpaceOBB@Gu@physx@@YAXAEAVBox@12@AEBV312@AEBV?$PxTransformT@M@2@AEBVPxMeshScale@2@@Z 00000001800a2510 f   GuConvexUtilsInternal.obj
 0001:000a1840       ?transform@physx@@YA?AVBox@Gu@1@AEBV?$PxMat34T@M@1@AEBV231@@Z 00000001800a2840 f i GuConvexUtilsInternal.obj
 0001:000a1a90       ?localSearch@physx@@YAXAEAIAEBV?$PxVec3T@M@1@PEBV21@PEBUBigConvexRawData@Gu@1@@Z 00000001800a2a90 f   GuHillClimbing.obj
 0001:000a1bc0       ??0PCMPolygonalBox@Gu@physx@@QEAA@AEBV?$PxVec3T@M@2@@Z 00000001800a2bc0 f   GuPCMShapeConvex.obj
 0001:000a1bc0       ??0PolygonalBox@Gu@physx@@QEAA@AEBV?$PxVec3T@M@2@@Z 00000001800a2bc0 f   GuShapeConvex.obj
 0001:000a3080       ?getPolygonalData@PolygonalBox@Gu@physx@@QEBAXPEIAUPolygonalData@23@@Z 00000001800a4080 f   GuShapeConvex.obj
 0001:000a30f0       ?getPolygonalData_Convex@Gu@physx@@YAXPEIAUPolygonalData@12@PEIBUConvexHullData@12@AEBVFastVertex2ShapeScaling@Cm@2@@Z 00000001800a40f0 f   GuShapeConvex.obj
 0001:000a3250       ?distancePointBoxSquared@Gu@physx@@YAMAEBV?$PxVec3T@M@2@00AEBV?$PxMat33T@M@2@PEAV32@@Z 00000001800a4250 f   GuDistancePointBox.obj
 0001:000a33a0       ?closestPtPointTriangle@Gu@physx@@YA?AV?$PxVec3T@M@2@AEBV32@000AEAM1@Z 00000001800a43a0 f   GuDistancePointTriangle.obj
 0001:000a38c0       ?distancePointTriangleSquared2UnitBox@Gu@physx@@YA?AT__m128@@AEBT3@000AEAT3@11@Z 00000001800a48c0 f   GuDistancePointTriangle.obj
 0001:000a39e0       ?distancePointTriangleSquared@Gu@physx@@YA?AT__m128@@AEBT3@000AEAT3@11@Z 00000001800a49e0 f   GuDistancePointTriangle.obj
 0001:000a4730       ?distanceSegmentBoxSquared@Gu@physx@@YAMAEBV?$PxVec3T@M@2@000AEBV?$PxMat33T@M@2@PEAMPEAV32@@Z 00000001800a5730 f   GuDistanceSegmentBox.obj
 0001:000a4fb0       ?distanceSegmentSegmentSquared4@Gu@physx@@YA?AT__m128@@AEBT3@000000000AEAT3@1@Z 00000001800a5fb0 f   GuDistanceSegmentSegment.obj
 0001:000a52c0       ?distanceSegmentSegmentSquared@Gu@physx@@YA?AT__m128@@AEBT3@000AEAT3@1@Z 00000001800a62c0 f   GuDistanceSegmentSegment.obj
 0001:000a5480       ?distanceSegmentSegmentSquared@Gu@physx@@YAMAEBV?$PxVec3T@M@2@000PEAM1@Z 00000001800a6480 f   GuDistanceSegmentSegment.obj
 0001:000a5710       ?distanceSegmentSegmentSquared@Gu@physx@@YAMAEBV?$PxVec3T@M@2@0M00MPEAM1@Z 00000001800a6710 f   GuDistanceSegmentSegment.obj
 0001:000a5e50       ?distanceSegmentTriangleSquared@Gu@physx@@YA?AT__m128@@AEBT3@0000AEAT3@1@Z 00000001800a6e50 f   GuDistanceSegmentTriangle.obj
 0001:000a6590       ?distanceSegmentTriangleSquared@Gu@physx@@YAMAEBV?$PxVec3T@M@2@0000PEAM11@Z 00000001800a7590 f   GuDistanceSegmentTriangle.obj
 0001:000a7c00       ?distanceTriangleTriangleSquared@Gu@physx@@YAMAEAV?$PxVec3T@M@2@0QEBVPxVec3Padded@2@1@Z 00000001800a8c00 f   GuDistanceTriangleTriangle.obj
 0001:000a8730       ?PointOutsideOfPlane4@Gu@physx@@YA?AV?$PxVec4T@M@2@AEBV?$PxVec3T@M@2@0000@Z 00000001800a9730 f   GuDistancePointTetrahedron.obj
 0001:000a8ba0       ?closestPtPointTetrahedron@Gu@physx@@YA?AV?$PxVec3T@M@2@AEBV32@0000AEBV?$PxVec4T@M@2@@Z 00000001800a9ba0 f   GuDistancePointTetrahedron.obj
 0001:000a9c90       ?PenetrationDepth@EPA@Gu@physx@@QEAA?AW4GjkStatus@23@AEBUGjkConvex@23@0PEIBT__m128@@1E_NT6@AEAUGjkOutput@23@@Z 00000001800aac90 f   GuEPA.obj
 0001:000aa750       ?addFacet@EPA@Gu@physx@@QEAAPEAVFacet@23@IIIAEBT__m128@@@Z 00000001800ab750 f   GuEPA.obj
 0001:000aab80       ?epaPenetration@Gu@physx@@YA?AW4GjkStatus@12@AEBUGjkConvex@12@0PEIBE1E_NT__m128@@AEAUGjkOutput@12@@Z 00000001800abb80 f   GuEPA.obj
 0001:000aacf0       ?epaPenetration@Gu@physx@@YA?AW4GjkStatus@12@AEBUGjkConvex@12@0PEIBT__m128@@1E_NT5@AEAUGjkOutput@12@@Z 00000001800abcf0 f   GuEPA.obj
 0001:000aada0       ?silhouette@Facet@Gu@physx@@QEAAXAEBT__m128@@PEIBT4@1AEAVEdgeBuffer@23@AEAV?$InlineDeferredIDPool@$0EA@@Cm@3@@Z 00000001800abda0 f   GuEPA.obj
 0001:000aaf70       ?closestPtPointTetrahedron@Gu@physx@@YA?AT__m128@@PEIAT3@00AEAI@Z 00000001800abf70 f   GuGJKSimplex.obj
 0001:000ab6e0       ?closestPtPointTetrahedron@Gu@physx@@YA?AT__m128@@PEIAT3@00PEIAH1AEAI@Z 00000001800ac6e0 f   GuGJKSimplex.obj
 0001:000ad160       ??$gjk@UGjkConvex@Gu@physx@@U123@@Gu@physx@@YA?AW4GjkStatus@01@AEBUGjkConvex@01@0AEBT__m128@@1AEAT4@222@Z 00000001800ae160 f i GuGJKTest.obj
 0001:000add80       ??$gjkPenetration@UGjkConvex@Gu@physx@@U123@@Gu@physx@@YA?AW4GjkStatus@01@AEBUGjkConvex@01@0AEBT__m128@@1_NPEIAE3AEAEAEAUGjkOutput@01@@Z 00000001800aed80 f i GuGJKTest.obj
 0001:000addf0       ??$gjkPenetration@UGjkConvex@Gu@physx@@U123@@Gu@physx@@YA?AW4GjkStatus@01@AEBUGjkConvex@01@0AEBT__m128@@1_NPEIAE3PEIAT4@4AEAEAEAUGjkOutput@01@@Z 00000001800aedf0 f i GuGJKTest.obj
 0001:000af240       ?testEpaPenetration@Gu@physx@@YA?AW4GjkStatus@12@AEBUGjkConvex@12@0PEBE1EAEAUGjkOutput@12@@Z 00000001800b0240 f   GuGJKTest.obj
 0001:000af290       ?testGjk@Gu@physx@@YA?AW4GjkStatus@12@AEBUGjkConvex@12@0AEBT__m128@@1AEAT5@222@Z 00000001800b0290 f   GuGJKTest.obj
 0001:000af2a0       ?testGjkPenetration@Gu@physx@@YA?AW4GjkStatus@12@AEBUGjkConvex@12@0AEBT__m128@@1PEAE2AEAEAEAUGjkOutput@12@@Z 00000001800b02a0 f   GuGJKTest.obj
 0001:000af2f0       ??0HeightField@Gu@physx@@QEAA@PEAVMeshFactory@12@@Z 00000001800b02f0 f   GuHeightField.obj
 0001:000af340       ??0HeightField@Gu@physx@@QEAA@PEAVMeshFactory@12@AEAUHeightFieldData@12@@Z 00000001800b0340 f   GuHeightField.obj
 0001:000af3f0       ??1HeightField@Gu@physx@@UEAA@XZ 00000001800b03f0 f   GuHeightField.obj
 0001:000af470       ??_EHeightField@Gu@physx@@UEAAPEAXI@Z 00000001800b0470 f i GuHeightField.obj
 0001:000af470       ??_GHeightField@Gu@physx@@UEAAPEAXI@Z 00000001800b0470 f i GuHeightField.obj
 0001:000af520       ?computeCellCoordinates@HeightField@Gu@physx@@QEBAIMMAEAM0@Z 00000001800b0520 f   GuHeightField.obj
 0001:000af640       ?createObject@HeightField@Gu@physx@@SAPEAV123@AEAPEAEAEAVPxDeserializationContext@3@@Z 00000001800b0640 f   GuHeightField.obj
 0001:000af690       ?exportExtraData@HeightField@Gu@physx@@UEAAXAEAVPxSerializationContext@3@@Z 00000001800b0690 f   GuHeightField.obj
 0001:000af6e0       ?getConcreteTypeName@PxHeightField@physx@@UEBAPEBDXZ 00000001800b06e0 f i GuHeightField.obj
 0001:000af6f0       ?getConvexEdgeThreshold@HeightField@Gu@physx@@UEBAMXZ 00000001800b06f0 f i GuHeightField.obj
 0001:000af700       ?getFlags@HeightField@Gu@physx@@UEBA?AV?$PxFlags@W4Enum@PxHeightFieldFlag@physx@@G@3@XZ 00000001800b0700 f i GuHeightField.obj
 0001:000af710       ?getFormat@HeightField@Gu@physx@@UEBA?AW4Enum@PxHeightFieldFormat@3@XZ 00000001800b0710 f i GuHeightField.obj
 0001:000af720       ?getHeight@HeightField@Gu@physx@@UEBAMMM@Z 00000001800b0720 f i GuHeightField.obj
 0001:000af840       ?getNbColumns@HeightField@Gu@physx@@UEBAIXZ 00000001800b0840 f i GuHeightField.obj
 0001:000af850       ?getNbBounds@BVH@Gu@physx@@UEBAIXZ 00000001800b0850 f i GuBVH.obj
 0001:000af850       ?getNbPrimitives@SourceMesh@Gu@physx@@UEBAIXZ 00000001800b0850 f i GuBV4.obj
 0001:000af850       ?getNbPrimitives@TetrahedronSourceMesh@Gu@physx@@UEBAIXZ 00000001800b0850 f i GuBV4.obj
 0001:000af850       ?getNbRows@HeightField@Gu@physx@@UEBAIXZ 00000001800b0850 f i GuHeightField.obj
 0001:000af860       ?getSample@HeightField@Gu@physx@@UEBAAEBUPxHeightFieldSample@3@II@Z 00000001800b0860 f i GuHeightField.obj
 0001:000af870       ?getSampleStride@HeightField@Gu@physx@@UEBAIXZ 00000001800b0870 f i GuHeightField.obj
 0001:000af880       ?getTimestamp@HeightField@Gu@physx@@UEBAIXZ 00000001800b0880 f i GuHeightField.obj
 0001:000af890       ?getTriangleMaterialIndex@HeightField@Gu@physx@@UEBAGI@Z 00000001800b0890 f i GuHeightField.obj
 0001:000af8c0       ?getTriangleNormal@HeightField@Gu@physx@@UEBA?AV?$PxVec3T@M@3@I@Z 00000001800b08c0 f i GuHeightField.obj
 0001:000af8e0       ?getTriangleNormalInternal@HeightField@Gu@physx@@QEBA?AV?$PxVec3T@M@3@I@Z 00000001800b08e0 f i GuHeightField.obj
 0001:000afc10       ?isCollisionVertexPreca@HeightField@Gu@physx@@QEBA_NIIIG@Z 00000001800b0c10 f   GuHeightField.obj
 0001:000afcb0       ?isConvexVertex@HeightField@Gu@physx@@QEBA_NIII@Z 00000001800b0cb0 f i GuHeightField.obj
 0001:000afd80       ?isKindOf@PxHeightField@physx@@MEBA_NPEBD@Z 00000001800b0d80 f i GuHeightField.obj
 0001:000afe10       ?isSolidVertex@HeightField@Gu@physx@@QEBA_NIIIGAEA_N@Z 00000001800b0e10 f   GuHeightField.obj
 0001:000b00a0       ?load@HeightField@Gu@physx@@QEAA_NAEAVPxInputStream@3@@Z 00000001800b10a0 f   GuHeightField.obj
 0001:000b0400       ?loadFromDesc@HeightField@Gu@physx@@QEAA_NAEBVPxHeightFieldDesc@3@@Z 00000001800b1400 f   GuHeightField.obj
 0001:000b0600       ?modifySamples@HeightField@Gu@physx@@UEAA_NHHAEBVPxHeightFieldDesc@3@_N@Z 00000001800b1600 f   GuHeightField.obj
 0001:000b0970       ?onRefCountZero@HeightField@Gu@physx@@UEAAXXZ 00000001800b1970 f   GuHeightField.obj
 0001:000b0a40       ?parseTrianglesForCollisionVertices@HeightField@Gu@physx@@QEAAXG@Z 00000001800b1a40 f   GuHeightField.obj
 0001:000b0f50       ?releaseMemory@HeightField@Gu@physx@@QEAAXXZ 00000001800b1f50 f   GuHeightField.obj
 0001:000b0fa0       ?resizeAndClear@?$PxBitMapBase@VPxAllocator@physx@@@physx@@QEAAXI@Z 00000001800b1fa0 f i GuHeightField.obj
 0001:000b1050       ?save@HeightField@Gu@physx@@QEAA_NAEAVPxOutputStream@3@_N@Z 00000001800b2050 f   GuHeightField.obj
 0001:000b1290       ?saveCells@HeightField@Gu@physx@@UEBAIPEAXI@Z 00000001800b2290 f   GuHeightField.obj
 0001:000b12d0       ?computeLocalBounds@HeightFieldUtil@Gu@physx@@QEBAXAEAVPxBounds3@3@@Z 00000001800b22d0 f   GuHeightFieldUtil.obj
 0001:000b17a0       ?getTriangle@HeightFieldUtil@Gu@physx@@QEBAIAEBV?$PxTransformT@M@3@AEAVPxTriangle@3@PEAI2I_N3@Z 00000001800b27a0 f   GuHeightFieldUtil.obj
 0001:000b22a0       ?getTriangleAdjacencyIndices@HeightField@Gu@physx@@QEBAXIIIIAEAI00@Z 00000001800b32a0 f i GuHeightFieldUtil.obj
 0001:000b2450       ?getTriangleVertexIndices@HeightField@Gu@physx@@QEBAXIAEAI00@Z 00000001800b3450 f i GuHeightFieldUtil.obj
 0001:000b2510       ?overlapAABBTriangles@HeightFieldUtil@Gu@physx@@QEBAXAEBVPxBounds3@3@AEAVOverlapReport@23@I@Z 00000001800b3510 f   GuHeightFieldUtil.obj
 0001:000b2970       ??$gjk@U?$RelativeConvex@VTriangleV@Gu@physx@@@Gu@physx@@U?$LocalConvex@VConvexHullV@Gu@physx@@@23@@Gu@physx@@YA?AW4GjkStatus@01@AEBU?$RelativeConvex@VTriangleV@Gu@physx@@@01@AEBU?$LocalConvex@VConvexHullV@Gu@physx@@@01@AEBT__m128@@2AEAT5@333@Z 00000001800b3970 f i GuOverlapTestsHF.obj
 0001:000b38b0       ?GeomOverlapCallback_BoxHeightfield@@YA_NAEBVPxGeometry@physx@@AEBV?$PxTransformT@M@2@01PEAUTriggerCache@Gu@2@PEAUPxQueryThreadContext@2@@Z 00000001800b48b0 f   GuOverlapTestsHF.obj
 0001:000b3e10       ?GeomOverlapCallback_CapsuleHeightfield@@YA_NAEBVPxGeometry@physx@@AEBV?$PxTransformT@M@2@01PEAUTriggerCache@Gu@2@PEAUPxQueryThreadContext@2@@Z 00000001800b4e10 f   GuOverlapTestsHF.obj
 0001:000b4410       ?GeomOverlapCallback_ConvexHeightfield@@YA_NAEBVPxGeometry@physx@@AEBV?$PxTransformT@M@2@01PEAUTriggerCache@Gu@2@PEAUPxQueryThreadContext@2@@Z 00000001800b5410 f   GuOverlapTestsHF.obj
 0001:000b4e50       ?GeomOverlapCallback_SphereHeightfield@@YA_NAEBVPxGeometry@physx@@AEBV?$PxTransformT@M@2@01PEAUTriggerCache@Gu@2@PEAUPxQueryThreadContext@2@@Z 00000001800b5e50 f   GuOverlapTestsHF.obj
 0001:000b5a10       ??$gjkRaycast@U?$LocalConvex@VTriangleV@Gu@physx@@@Gu@physx@@U?$LocalConvex@VConvexHullV@Gu@physx@@@23@@Gu@physx@@YA_NAEBU?$LocalConvex@VTriangleV@Gu@physx@@@01@AEBU?$LocalConvex@VConvexHullV@Gu@physx@@@01@AEBT__m128@@222AEAT4@33M@Z 00000001800b6a10 f i GuSweepsHF.obj
 0001:000b6810       ??$traceSegment@VBoxTraceSegmentReport@@$0A@$00@HeightFieldTraceUtil@Gu@physx@@QEBAXAEBV?$PxVec3T@M@2@0MPEAVBoxTraceSegmentReport@@AEBVPxBounds3@2@_NPEBV32@@Z 00000001800b7810 f i GuSweepsHF.obj
 0001:000b6810       ??$traceSegment@VCapsuleTraceSegmentReport@@$0A@$00@HeightFieldTraceUtil@Gu@physx@@QEBAXAEBV?$PxVec3T@M@2@0MPEAVCapsuleTraceSegmentReport@@AEBVPxBounds3@2@_NPEBV32@@Z 00000001800b7810 f i GuSweepsHF.obj
 0001:000b6810       ??$traceSegment@VConvexTraceSegmentReport@@$0A@$00@HeightFieldTraceUtil@Gu@physx@@QEBAXAEBV?$PxVec3T@M@2@0MPEAVConvexTraceSegmentReport@@AEBVPxBounds3@2@_NPEBV32@@Z 00000001800b7810 f i GuSweepsHF.obj
 0001:000b6fe0       ??0ConvexTraceSegmentReport@@QEAA@AEBVHeightFieldUtil@Gu@physx@@AEBUConvexHullData@23@AEBVPxMeshScale@3@AEBV?$PxTransformT@M@3@3AEBV?$PxVec3T@M@3@MV?$PxFlags@W4Enum@PxHitFlag@physx@@G@3@M@Z 00000001800b7fe0 f i GuSweepsHF.obj
 0001:000b7960       ??_EBoxTraceSegmentReport@@UEAAPEAXI@Z 00000001800b8960 f i GuSweepsHF.obj
 0001:000b7960       ??_GBoxTraceSegmentReport@@UEAAPEAXI@Z 00000001800b8960 f i GuSweepsHF.obj
 0001:000b7990       ??_ECapsuleTraceSegmentReport@@UEAAPEAXI@Z 00000001800b8990 f i GuSweepsHF.obj
 0001:000b7990       ??_GCapsuleTraceSegmentReport@@UEAAPEAXI@Z 00000001800b8990 f i GuSweepsHF.obj
 0001:000b79c0       ??_EConvexTraceSegmentReport@@UEAAPEAXI@Z 00000001800b89c0 f i GuSweepsHF.obj
 0001:000b79c0       ??_GConvexTraceSegmentReport@@UEAAPEAXI@Z 00000001800b89c0 f i GuSweepsHF.obj
 0001:000b79f0       ??_EHeightFieldTraceSegmentReport@@UEAAPEAXI@Z 00000001800b89f0 f i GuSweepsHF.obj
 0001:000b79f0       ??_GHeightFieldTraceSegmentReport@@UEAAPEAXI@Z 00000001800b89f0 f i GuSweepsHF.obj
 0001:000b7a20       ?finalizeHit@ConvexTraceSegmentReport@@QEAA_NAEAUPxGeomSweepHit@physx@@AEBVPxHeightFieldGeometry@3@AEBV?$PxTransformT@M@3@AEBVPxConvexMeshGeometry@3@2AEBV?$PxVec3T@M@3@M@Z 00000001800b8a20 f i GuSweepsHF.obj
 0001:000b7c50       ?onEvent@BoxTraceSegmentReport@@UEAA_NIPEBI@Z 00000001800b8c50 f i GuSweepsHF.obj
 0001:000b80a0       ?onEvent@CapsuleTraceSegmentReport@@UEAA_NIPEBI@Z 00000001800b90a0 f i GuSweepsHF.obj
 0001:000b82c0       ?onEvent@ConvexTraceSegmentReport@@UEAA_NIPEBI@Z 00000001800b92c0 f i GuSweepsHF.obj
 0001:000b8880       ?prepare@?$OverlapTraceSegment@VBoxTraceSegmentReport@@@HeightFieldTraceUtil@Gu@physx@@QEAAXAEBV?$PxVec3T@M@4@00AEAM1@Z 00000001800b9880 f i GuSweepsHF.obj
 0001:000b8880       ?prepare@?$OverlapTraceSegment@VCapsuleTraceSegmentReport@@@HeightFieldTraceUtil@Gu@physx@@QEAAXAEBV?$PxVec3T@M@4@00AEAM1@Z 00000001800b9880 f i GuSweepsHF.obj
 0001:000b8880       ?prepare@?$OverlapTraceSegment@VConvexTraceSegmentReport@@@HeightFieldTraceUtil@Gu@physx@@QEAAXAEBV?$PxVec3T@M@4@00AEAM1@Z 00000001800b9880 f i GuSweepsHF.obj
 0001:000b8b40       ?sweepBox_HeightFieldGeom@@YA_NAEBVPxGeometry@physx@@AEBV?$PxTransformT@M@2@AEBVPxBoxGeometry@2@1AEBVBox@Gu@2@AEBV?$PxVec3T@M@2@MAEAUPxGeomSweepHit@2@V?$PxFlags@W4Enum@PxHitFlag@physx@@G@2@MPEAUPxQueryThreadContext@2@@Z 00000001800b9b40 f   GuSweepsHF.obj
 0001:000b9990       ?sweepCapsule_HeightFieldGeom@@YA_NAEBVPxGeometry@physx@@AEBV?$PxTransformT@M@2@AEBVPxCapsuleGeometry@2@1AEBVCapsule@Gu@2@AEBV?$PxVec3T@M@2@MAEAUPxGeomSweepHit@2@V?$PxFlags@W4Enum@PxHitFlag@physx@@G@2@MPEAUPxQueryThreadContext@2@@Z 00000001800ba990 f   GuSweepsHF.obj
 0001:000ba2e0       ?sweepConvex_HeightFieldGeom@@YA_NAEBVPxGeometry@physx@@AEBV?$PxTransformT@M@2@AEBVPxConvexMeshGeometry@2@1AEBV?$PxVec3T@M@2@MAEAUPxGeomSweepHit@2@V?$PxFlags@W4Enum@PxHitFlag@physx@@G@2@MPEAUPxQueryThreadContext@2@@Z 00000001800bb2e0 f   GuSweepsHF.obj
 0001:000bacb0       ?testVertexIndex@?$OverlapTraceSegment@VBoxTraceSegmentReport@@@HeightFieldTraceUtil@Gu@physx@@QEAA_NI@Z 00000001800bbcb0 f i GuSweepsHF.obj
 0001:000bacb0       ?testVertexIndex@?$OverlapTraceSegment@VCapsuleTraceSegmentReport@@@HeightFieldTraceUtil@Gu@physx@@QEAA_NI@Z 00000001800bbcb0 f i GuSweepsHF.obj
 0001:000bacb0       ?testVertexIndex@?$OverlapTraceSegment@VConvexTraceSegmentReport@@@HeightFieldTraceUtil@Gu@physx@@QEAA_NI@Z 00000001800bbcb0 f i GuSweepsHF.obj
 0001:000bae10       ?transformFast@PxBounds3@physx@@SA?AV12@AEBV?$PxTransformT@M@2@AEBV12@@Z 00000001800bbe10 f i GuSweepsHF.obj
 0001:000bb1f0       ?visitCells@?$OverlapTraceSegment@VBoxTraceSegmentReport@@@HeightFieldTraceUtil@Gu@physx@@QEAA_NAEBUOverlapRectangle@1234@@Z 00000001800bc1f0 f i GuSweepsHF.obj
 0001:000bb1f0       ?visitCells@?$OverlapTraceSegment@VCapsuleTraceSegmentReport@@@HeightFieldTraceUtil@Gu@physx@@QEAA_NAEBUOverlapRectangle@1234@@Z 00000001800bc1f0 f i GuSweepsHF.obj
 0001:000bb1f0       ?visitCells@?$OverlapTraceSegment@VConvexTraceSegmentReport@@@HeightFieldTraceUtil@Gu@physx@@QEAA_NAEBUOverlapRectangle@1234@@Z 00000001800bc1f0 f i GuSweepsHF.obj
 0001:000bb3e0       ?intersectOBBOBB@Gu@physx@@YA_NAEBV?$PxVec3T@M@2@0AEBV?$PxMat33T@M@2@001_N@Z 00000001800bc3e0 f   GuIntersectionBoxBox.obj
 0001:000bba30       ?intersectCapsuleTriangle@Gu@physx@@YA_NAEBV?$PxVec3T@M@2@000AEBVCapsule@12@AEBUCapsuleTriangleOverlapData@12@@Z 00000001800bca30 f   GuIntersectionCapsuleTriangle.obj
 0001:000bc620       ?intersectEdgeEdge@Gu@physx@@YA_NAEBV?$PxVec3T@M@2@0000AEAMAEAV32@@Z 00000001800bd620 f   GuIntersectionEdgeEdge.obj
 0001:000bc940       ?intersectRayAABB2@Gu@physx@@YA_NAEBT__m128@@0000AEAT3@1@Z 00000001800bd940 f   GuIntersectionRayBox.obj
 0001:000bca00       ?intersectRayAABB2@Gu@physx@@YA_NAEBV?$PxVec3T@M@2@000MAEAM1@Z 00000001800bda00 f   GuIntersectionRayBox.obj
 0001:000bcbb0       ?intersectRayAABB@Gu@physx@@YAHAEBV?$PxVec3T@M@2@000AEAM1@Z 00000001800bdbb0 f   GuIntersectionRayBox.obj
 0001:000bccc0       ?rayAABBIntersect2@Gu@physx@@YAIAEBV?$PxVec3T@M@2@000AEAV32@AEAM@Z 00000001800bdcc0 f   GuIntersectionRayBox.obj
 0001:000bcec0       ?intersectRayCapsuleInternal@Gu@physx@@YAIAEBV?$PxVec3T@M@2@000MQEAM@Z 00000001800bdec0 f   GuIntersectionRayCapsule.obj
 0001:000bd380       ?intersectRaySphere@Gu@physx@@YA_NAEBV?$PxVec3T@M@2@0M0MAEAMPEAV32@@Z 00000001800be380 f   GuIntersectionRaySphere.obj
 0001:000bd470       ?intersectRaySphereBasic@Gu@physx@@YA_NAEBV?$PxVec3T@M@2@0M0MAEAMPEAV32@@Z 00000001800be470 f   GuIntersectionRaySphere.obj
 0001:000bd5d0       ?intersectSphereBox@Gu@physx@@YA_NAEBVSphere@12@AEBVBox@12@@Z 00000001800be5d0 f   GuIntersectionSphereBox.obj
 0001:000bd800       ?intersectTetrahedronBox@Gu@physx@@YA_NAEBV?$PxVec3T@M@2@000AEBVPxBounds3@2@@Z 00000001800be800 f   GuIntersectionTetrahedronBox.obj
 0001:000bdbd0       ?intersectTriangleBox@Gu@physx@@YAHAEBVBoxPadded@12@AEBV?$PxVec3T@M@2@11@Z 00000001800bebd0 f   GuIntersectionTriangleBox.obj
 0001:000be1a0       ?intersectTriangleBoxBV4@@YAHAEBV?$PxVec3T@M@physx@@00AEBV?$PxMat33T@M@2@00@Z 00000001800bf1a0 f   GuIntersectionTriangleBox.obj
 0001:000be5e0       ?intersectTriangleBox_ReferenceCode@Gu@physx@@YAHAEBV?$PxVec3T@M@2@0000@Z 00000001800bf5e0 f   GuIntersectionTriangleBox.obj
 0001:000bedb0       ?intersectTriangleBox_Unsafe@Gu@physx@@YAHAEBV?$PxVec3T@M@2@0000@Z 00000001800bfdb0 f   GuIntersectionTriangleBox.obj
 0001:000bf170       ?trianglesIntersect@Gu@physx@@YA_NAEBV?$PxVec3T@M@2@00000_N@Z 00000001800c0170 f   GuIntersectionTriangleTriangle.obj
 0001:000c0590       ??0BV4Tree@Gu@physx@@QEAA@W4PxEMPTY@2@@Z 00000001800c1590 f   GuBV4.obj
 0001:000c05a0       ??0BV4Tree@Gu@physx@@QEAA@XZ 00000001800c15a0 f   GuBV4.obj
 0001:000c05d0       ??0SourceMesh@Gu@physx@@QEAA@XZ 00000001800c15d0 f   GuBV4.obj
 0001:000c0600       ??0TetrahedronSourceMesh@Gu@physx@@QEAA@XZ 00000001800c1600 f   GuBV4.obj
 0001:000c0630       ??1BV4Tree@Gu@physx@@QEAA@XZ 00000001800c1630 f   GuBV4.obj
 0001:000c0690       ??1SourceMesh@Gu@physx@@UEAA@XZ 00000001800c1690 f   GuBV4.obj
 0001:000c0690       ??1TetrahedronSourceMesh@Gu@physx@@UEAA@XZ 00000001800c1690 f   GuBV4.obj
 0001:000c06e0       ??4BV4Tree@Gu@physx@@QEAAXAEAV012@@Z 00000001800c16e0 f   GuBV4.obj
 0001:000c0770       ??4SourceMesh@Gu@physx@@QEAAXAEAV012@@Z 00000001800c1770 f   GuBV4.obj
 0001:000c07c0       ??_ESourceMesh@Gu@physx@@UEAAPEAXI@Z 00000001800c17c0 f i GuBV4.obj
 0001:000c07c0       ??_ETetrahedronSourceMesh@Gu@physx@@UEAAPEAXI@Z 00000001800c17c0 f i GuBV4.obj
 0001:000c07c0       ??_GSourceMesh@Gu@physx@@UEAAPEAXI@Z 00000001800c17c0 f i GuBV4.obj
 0001:000c07c0       ??_GTetrahedronSourceMesh@Gu@physx@@UEAAPEAXI@Z 00000001800c17c0 f i GuBV4.obj
 0001:000c0860       ??_ESourceMeshBase@Gu@physx@@UEAAPEAXI@Z 00000001800c1860 f i GuBV4.obj
 0001:000c0860       ??_GSourceMeshBase@Gu@physx@@UEAAPEAXI@Z 00000001800c1860 f i GuBV4.obj
 0001:000c0900       ?exportExtraData@BV4Tree@Gu@physx@@QEAAXAEAVPxSerializationContext@3@@Z 00000001800c1900 f   GuBV4.obj
 0001:000c0960       ?getPrimitiveBox@SourceMesh@Gu@physx@@UEAAXIAEAT__m128@@0@Z 00000001800c1960 f   GuBV4.obj
 0001:000c0a00       ?getPrimitiveBox@TetrahedronSourceMesh@Gu@physx@@UEAAXIAEAT__m128@@0@Z 00000001800c1a00 f   GuBV4.obj
 0001:000c0ac0       ?importExtraData@BV4Tree@Gu@physx@@QEAAXAEAVPxDeserializationContext@3@@Z 00000001800c1ac0 f   GuBV4.obj
 0001:000c0b10       ?init@BV32Tree@Gu@physx@@QEAA_NPEAVSourceMeshBase@23@AEBVPxBounds3@3@@Z 00000001800c1b10 f   GuBV32.obj
 0001:000c0b10       ?init@BV4Tree@Gu@physx@@QEAA_NPEAVSourceMeshBase@23@AEBVPxBounds3@3@@Z 00000001800c1b10 f   GuBV4.obj
 0001:000c0bb0       ?load@BV4Tree@Gu@physx@@QEAA_NAEAVPxInputStream@3@_N@Z 00000001800c1bb0 f   GuBV4.obj
 0001:000c0df0       ?refit@BV4Tree@Gu@physx@@QEAA_NAEAVPxBounds3@3@M@Z 00000001800c1df0 f   GuBV4.obj
 0001:000c1460       ?refit@SourceMesh@Gu@physx@@UEAAXIAEAVPxBounds3@3@@Z 00000001800c2460 f   GuBV4.obj
 0001:000c1600       ?refit@TetrahedronSourceMesh@Gu@physx@@UEAAXIAEAVPxBounds3@3@@Z 00000001800c2600 f   GuBV4.obj
 0001:000c1820       ?remapTopology@SourceMesh@Gu@physx@@UEAAXPEBI@Z 00000001800c2820 f   GuBV4.obj
 0001:000c1ab0       ?remapTopology@TetrahedronSourceMesh@Gu@physx@@UEAAXPEBI@Z 00000001800c2ab0 f   GuBV4.obj
 0001:000c1d30       ??0BV4_AABBTree@Gu@physx@@QEAA@XZ 00000001800c2d30 f   GuBV4Build.obj
 0001:000c1d40       ??0BVData@@QEAA@XZ         00000001800c2d40 f   GuBV4Build.obj
 0001:000c1d70       ??0BuildStats@Gu@physx@@QEAA@XZ 00000001800c2d70 f i GuBV4Build.obj
 0001:000c1d80       ??1BV4_AABBTree@Gu@physx@@QEAA@XZ 00000001800c2d80 f   GuBV4Build.obj
 0001:000c1d90       ??4BuildStats@Gu@physx@@QEAAAEAU012@$$QEAU012@@Z 00000001800c2d90 f i GuBV4Build.obj
 0001:000c1da0       ??4BuildStats@Gu@physx@@QEAAAEAU012@AEBU012@@Z 00000001800c2da0 f i GuBV4Build.obj
 0001:000c1db0       ?BuildBV4Ex@Gu@physx@@YA_NAEAVBV4Tree@12@AEAVSourceMeshBase@12@MI_NW4BV4_BuildStrategy@12@@Z 00000001800c2db0 f   GuBV4Build.obj
 0001:000c2c80       ?allocateNode@BV4BuildParams@@QEAAPEAUBV4Node@@XZ 00000001800c3c80 f   GuBV4Build.obj
 0001:000c30f0       ?buildFromMesh@BV4_AABBTree@Gu@physx@@QEAA_NAEAVSourceMeshBase@23@IW4BV4_BuildStrategy@23@@Z 00000001800c40f0 f   GuBV4Build.obj
 0001:000c4020       ?increaseCount@BuildStats@Gu@physx@@QEAAXI@Z 00000001800c5020 f i GuBV4Build.obj
 0001:000c4a80       ?release@BV4_AABBTree@Gu@physx@@QEAAXXZ 00000001800c5a80 f   GuBV4Build.obj
 0001:000c4b30       ?releaseNodes@BV4BuildParams@@QEAAXXZ 00000001800c5b30 f   GuBV4Build.obj
 0001:000c4ba0       ?reset@BuildStats@Gu@physx@@QEAAXXZ 00000001800c5ba0 f i GuBV4Build.obj
 0001:000c4bb0       ?setCount@BuildStats@Gu@physx@@QEAAXI@Z 00000001800c5bb0 f i GuBV4Build.obj
 0001:000c5210       ?walk@BV4_AABBTree@Gu@physx@@QEBAIP6A_NPEBVAABBTreeNode@23@IPEAX@Z1@Z 00000001800c6210 f   GuBV4Build.obj
 0001:000c52d0       ?walkDistance@BV4_AABBTree@Gu@physx@@QEBAIP6A_NPEBVAABBTreeNode@23@IPEAX@ZP6A_N01@Z1@Z 00000001800c62d0 f   GuBV4Build.obj
 0001:000c92f0       ?GenericSweep_AABB_CB@@YAXAEBVBox@Gu@physx@@AEBV?$PxVec3T@M@3@MAEBVBV4Tree@23@P6A_NPEAX111IAEAM@Z3I@Z 00000001800ca2f0 f   GuBV4_AABBSweep.obj
 0001:000c9450       ?Sweep_AABB_BV4@@YAHAEBVBox@Gu@physx@@AEBV?$PxVec3T@M@3@MAEBVBV4Tree@23@PEIAVSweepHit@23@I@Z 00000001800ca450 f   GuBV4_AABBSweep.obj
 0001:000d2190       ?BV4_OverlapBoxAll@@YAIAEBVBox@Gu@physx@@AEBVBV4Tree@23@PEIBV?$PxMat44T@M@3@PEAIIAEA_N@Z 00000001800d3190 f   GuBV4_BoxOverlap.obj
 0001:000d29a0       ?BV4_OverlapBoxAny@@YAHAEBVBox@Gu@physx@@AEBVBV4Tree@23@PEIBV?$PxMat44T@M@3@@Z 00000001800d39a0 f   GuBV4_BoxOverlap.obj
 0001:000d31a0       ?BV4_OverlapBoxCB@@YAXAEBVBox@Gu@physx@@AEBVBV4Tree@23@P6A_NPEAXAEBV?$PxVec3T@M@3@333IPEBI@Z2@Z 00000001800d41a0 f   GuBV4_BoxOverlap.obj
 0001:000d3860       ?BV4_OverlapBoxCB@@YAXAEBVBox@Gu@physx@@AEBVBV4Tree@23@P6A_NPEAXAEBV?$PxVec3T@M@3@33IPEBI@Z2@Z 00000001800d4860 f   GuBV4_BoxOverlap.obj
 0001:000d3d10       ?BV4_OverlapCapsuleAll@@YAIAEBVCapsule@Gu@physx@@AEBVBV4Tree@23@PEIBV?$PxMat44T@M@3@PEAIIAEA_N@Z 00000001800d4d10 f   GuBV4_BoxOverlap.obj
 0001:000d4430       ?BV4_OverlapCapsuleAny@@YAHAEBVCapsule@Gu@physx@@AEBVBV4Tree@23@PEIBV?$PxMat44T@M@3@@Z 00000001800d5430 f   GuBV4_BoxOverlap.obj
 0001:000d72e0       ?BV4_CapsuleSweepSingle@@YAHAEBVCapsule@Gu@physx@@AEBV?$PxVec3T@M@3@MAEBVBV4Tree@23@PEIAVSweepHit@23@I@Z 00000001800d82e0 f   GuBV4_CapsuleSweep.obj
 0001:000db3a0       ?BV4_CapsuleSweepSingleAA@@YAHAEBVCapsule@Gu@physx@@AEBV?$PxVec3T@M@3@MAEBVBV4Tree@23@PEIAVSweepHit@23@I@Z 00000001800dc3a0 f   GuBV4_CapsuleSweepAA.obj
 0001:000eba40       ?BV4_OverlapMeshVsMesh@@YA_NAEAV?$PxReportCallback@UPxGeomIndexPair@physx@@@physx@@AEBVBV4Tree@Gu@2@1PEBV?$PxMat44T@M@2@2AEBV?$PxTransformT@M@2@3AEBVPxMeshScale@2@4V?$PxFlags@W4Enum@PxMeshMeshQueryFlag@physx@@I@2@M@Z 00000001800eca40 f   GuBV4_MeshMeshOverlap.obj
 0001:000ebc80       ?BV4_OverlapMeshVsMesh@@YA_NAEAV?$PxReportCallback@UPxGeomIndexPair@physx@@@physx@@AEBVBV4Tree@Gu@2@1PEBV?$PxMat44T@M@2@2V?$PxFlags@W4Enum@PxMeshMeshQueryFlag@physx@@I@2@M@Z 00000001800ecc80 f   GuBV4_MeshMeshOverlap.obj
 0001:000f5490       ??D?$PxMat33T@M@physx@@QEBA?BV?$PxVec3T@M@1@AEBV21@@Z 00000001800f6490 f i GuBV4_OBBSweep.obj
 0001:000f5520       ?BV4_BoxSweepSingle@@YAHAEBVBox@Gu@physx@@AEBV?$PxVec3T@M@3@MAEBVBV4Tree@23@PEIBV?$PxMat44T@M@3@PEIAVSweepHit@23@I@Z 00000001800f6520 f   GuBV4_OBBSweep.obj
 0001:000f5c50       ?BV4_GenericSweepCB@@YAXAEBVBox@Gu@physx@@AEBV?$PxVec3T@M@3@MAEBVBV4Tree@23@P6A_NPEAX111IAEAM@Z3_N@Z 00000001800f6c50 f   GuBV4_OBBSweep.obj
 0001:000f5e80       ?Sweep_OBB_BV4@@YAHAEBVBox@Gu@physx@@AEBV?$PxVec3T@M@3@MAEBVBV4Tree@23@PEIAVSweepHit@23@I@Z 00000001800f6e80 f   GuBV4_OBBSweep.obj
 0001:000f89c0       ?BV4_RaycastCB@@YAXAEBV?$PxVec3T@M@physx@@0AEBVBV4Tree@Gu@2@PEIBV?$PxMat44T@M@2@MMIP6A?AW4HitCode@42@PEAX000IMMM@Z3@Z 00000001800f99c0 f   GuBV4_Raycast.obj
 0001:000f8e00       ?BV4_RaycastSingle@@YAHAEBV?$PxVec3T@M@physx@@0AEBVBV4Tree@Gu@2@PEIBV?$PxMat44T@M@2@PEIAUPxGeomRaycastHit@2@MMIV?$PxFlags@W4Enum@PxHitFlag@physx@@G@2@@Z 00000001800f9e00 f   GuBV4_Raycast.obj
 0001:000fb330       ?BV4_OverlapSphereAll@@YAIAEBVSphere@Gu@physx@@AEBVBV4Tree@23@PEIBV?$PxMat44T@M@3@PEAIIAEA_N@Z 00000001800fc330 f   GuBV4_SphereOverlap.obj
 0001:000fb650       ?BV4_OverlapSphereAny@@YAHAEBVSphere@Gu@physx@@AEBVBV4Tree@23@PEIBV?$PxMat44T@M@3@@Z 00000001800fc650 f   GuBV4_SphereOverlap.obj
 0001:000fb930       ?BV4_PointDistance@@YAXAEBV?$PxVec3T@M@physx@@AEBVBV4Tree@Gu@2@MAEAIAEAMAEAV12@@Z 00000001800fc930 f   GuBV4_SphereOverlap.obj
 0001:00102320       ?BV4_GenericSweepCB_Old@@YAXAEBV?$PxVec3T@M@physx@@00MAEBVBV4Tree@Gu@2@PEIBV?$PxMat44T@M@2@P6A_NPEAX000IAEAM@Z3@Z 0000000180103320 f   GuBV4_SphereSweep.obj
 0001:00102730       ?BV4_SphereSweepSingle@@YAHAEBVSphere@Gu@physx@@AEBV?$PxVec3T@M@3@MAEBVBV4Tree@23@PEIBV?$PxMat44T@M@3@PEIAVSweepHit@23@I@Z 0000000180103730 f   GuBV4_SphereSweep.obj
 0001:00103a30       ?computeSweepData@physx@@YAMAEBVPxTriangleMeshGeometry@1@AEAV?$PxVec3T@M@1@11M@Z 0000000180104a30 f i GuMidphaseBV4.obj
 0001:00104e70       ?intersectBoxVsMesh_BV4@Gu@physx@@YA_NAEBVBox@12@AEBVTriangleMesh@12@AEBV?$PxTransformT@M@2@AEBVPxMeshScale@2@PEAULimitedResults@12@@Z 0000000180105e70 f   GuMidphaseBV4.obj
 0001:00105980       ?intersectCapsuleVsMesh_BV4@Gu@physx@@YA_NAEBVCapsule@12@AEBVTriangleMesh@12@AEBV?$PxTransformT@M@2@AEBVPxMeshScale@2@PEAULimitedResults@12@@Z 0000000180106980 f   GuMidphaseBV4.obj
 0001:001061c0       ?intersectMeshVsMesh_BV4@Gu@physx@@YA_NAEAV?$PxReportCallback@UPxGeomIndexPair@physx@@@2@AEBVTriangleMesh@12@AEBV?$PxTransformT@M@2@AEBVPxMeshScale@2@123V?$PxFlags@W4Enum@PxMeshMeshQueryFlag@physx@@I@2@M@Z 00000001801071c0 f   GuMidphaseBV4.obj
 0001:00106ae0       ?intersectOBB_BV4@Gu@physx@@YAXPEBVTetrahedronMesh@12@AEBVBox@12@AEAU?$TetMeshHitCallback@UPxGeomRaycastHit@physx@@@12@@Z 0000000180107ae0 f   GuMidphaseBV4.obj
 0001:00106b00       ?intersectOBB_BV4@Gu@physx@@YAXPEBVTriangleMesh@12@AEBVBox@12@AEAU?$MeshHitCallback@UPxGeomRaycastHit@physx@@@12@_N3@Z 0000000180107b00 f   GuMidphaseBV4.obj
 0001:00106b20       ?intersectSphereVsMesh_BV4@Gu@physx@@YA_NAEBVSphere@12@AEBVTriangleMesh@12@AEBV?$PxTransformT@M@2@AEBVPxMeshScale@2@PEAULimitedResults@12@@Z 0000000180107b20 f   GuMidphaseBV4.obj
 0001:00107250       ?pointMeshDistance_BV4@Gu@physx@@YAXPEBVTriangleMesh@12@AEBVPxTriangleMeshGeometry@2@AEBV?$PxTransformT@M@2@AEBV?$PxVec3T@M@2@MAEAIAEAMAEAV62@@Z 0000000180108250 f   GuMidphaseBV4.obj
 0001:00107900       ?raycast_triangleMesh_BV4@Gu@physx@@YAIPEBVTriangleMesh@12@AEBVPxTriangleMeshGeometry@2@AEBV?$PxTransformT@M@2@AEBV?$PxVec3T@M@2@3MV?$PxFlags@W4Enum@PxHitFlag@physx@@G@2@IPEIAUPxGeomRaycastHit@2@I@Z 0000000180108900 f   GuMidphaseBV4.obj
 0001:00108710       ?sweepBox_MeshGeom_BV4@Gu@physx@@YA_NPEBVTriangleMesh@12@AEBVPxTriangleMeshGeometry@2@AEBV?$PxTransformT@M@2@AEBVBox@12@AEBV?$PxVec3T@M@2@MAEAUPxGeomSweepHit@2@V?$PxFlags@W4Enum@PxHitFlag@physx@@G@2@M@Z 0000000180109710 f   GuMidphaseBV4.obj
 0001:00109e30       ?sweepCapsule_MeshGeom_BV4@Gu@physx@@YA_NPEBVTriangleMesh@12@AEBVPxTriangleMeshGeometry@2@AEBV?$PxTransformT@M@2@AEBVCapsule@12@AEBV?$PxVec3T@M@2@MAEAUPxGeomSweepHit@2@V?$PxFlags@W4Enum@PxHitFlag@physx@@G@2@M@Z 000000018010ae30 f   GuMidphaseBV4.obj
 0001:0010a940       ?sweepConvex_MeshGeom_BV4@Gu@physx@@YAXPEBVTriangleMesh@12@AEBVBox@12@AEBV?$PxVec3T@M@2@MAEAUSweepConvexMeshHitCallback@12@_N@Z 000000018010b940 f   GuMidphaseBV4.obj
 0001:0010a980       ?transform@PxMeshScale@physx@@QEBA?AV?$PxVec3T@M@2@AEBV32@@Z 000000018010b980 f i GuMidphaseBV4.obj
 0001:0010abc0       ?findOverlapHeightField@PxMeshQuery@physx@@SAIAEBVPxGeometry@2@AEBV?$PxTransformT@M@2@AEBVPxHeightFieldGeometry@2@1PEAIIIAEA_NV?$PxFlags@W4Enum@PxGeometryQueryFlag@physx@@I@2@@Z 000000018010bbc0 f   GuMeshQuery.obj
 0001:0010b330       ?findOverlapTriangleMesh@PxMeshQuery@physx@@SAIAEBVPxGeometry@2@AEBV?$PxTransformT@M@2@AEBVPxTriangleMeshGeometry@2@1PEAIIIAEA_NV?$PxFlags@W4Enum@PxGeometryQueryFlag@physx@@I@2@@Z 000000018010c330 f   GuMeshQuery.obj
 0001:0010b650       ?findOverlapTriangleMesh@PxMeshQuery@physx@@SA_NAEAV?$PxReportCallback@UPxGeomIndexPair@physx@@@2@AEBVPxTriangleMeshGeometry@2@AEBV?$PxTransformT@M@2@12V?$PxFlags@W4Enum@PxGeometryQueryFlag@physx@@I@2@V?$PxFlags@W4Enum@PxMeshMeshQueryFlag@physx@@I@2@M@Z 000000018010c650 f   GuMeshQuery.obj
 0001:0010b780       ?getTriangle@PxMeshQuery@physx@@SAXAEBVPxHeightFieldGeometry@2@AEBV?$PxTransformT@M@2@IAEAVPxTriangle@2@PEAI3@Z 000000018010c780 f   GuMeshQuery.obj
 0001:0010b800       ?getTriangle@PxMeshQuery@physx@@SAXAEBVPxTriangleMeshGeometry@2@AEBV?$PxTransformT@M@2@IAEAVPxTriangle@2@PEAI3@Z 000000018010c800 f   GuMeshQuery.obj
 0001:0010bd00       ?sweep@PxMeshQuery@physx@@SA_NAEBV?$PxVec3T@M@2@MAEBVPxGeometry@2@AEBV?$PxTransformT@M@2@IPEBVPxTriangle@2@AEAUPxGeomSweepHit@2@V?$PxFlags@W4Enum@PxHitFlag@physx@@G@2@PEBIM_NV?$PxFlags@W4Enum@PxGeometryQueryFlag@physx@@I@2@@Z 000000018010cd00 f   GuMeshQuery.obj
 0001:0010bf80       ??$collide@$00$00@MeshRayCollider@@SAXAEBV?$PxVec3T@M@physx@@0M_NPEBVRTreeTriangleMesh@Gu@2@AEAU?$MeshHitCallback@UPxGeomRaycastHit@physx@@@42@PEBV12@@Z 000000018010cf80 f i GuMidphaseRTree.obj
 0001:0010c2f0       ??$collide@$00$0A@@MeshRayCollider@@SAXAEBV?$PxVec3T@M@physx@@0M_NPEBVRTreeTriangleMesh@Gu@2@AEAU?$MeshHitCallback@UPxGeomRaycastHit@physx@@@42@PEBV12@@Z 000000018010d2f0 f i GuMidphaseRTree.obj
 0001:0010c530       ??$collide@$0A@$00@MeshRayCollider@@SAXAEBV?$PxVec3T@M@physx@@0M_NPEBVRTreeTriangleMesh@Gu@2@AEAU?$MeshHitCallback@UPxGeomRaycastHit@physx@@@42@PEBV12@@Z 000000018010d530 f i GuMidphaseRTree.obj
 0001:0010e890       ??0?$RayRTreeCallback@$00$0A@@@QEAA@MAEAU?$MeshHitCallback@UPxGeomRaycastHit@physx@@@Gu@physx@@HPEBXPEBV?$PxVec3T@M@3@AEBV43@3M_N2@Z 000000018010f890 f i GuMidphaseRTree.obj
 0001:0010e9b0       ??1?$RayRTreeCallback@$00$00@@UEAA@XZ 000000018010f9b0 f i GuMidphaseRTree.obj
 0001:0010ea40       ??1?$RayRTreeCallback@$00$0A@@@UEAA@XZ 000000018010fa40 f i GuMidphaseRTree.obj
 0001:0010ea40       ??1?$RayRTreeCallback@$0A@$0A@@@UEAA@XZ 000000018010fa40 f i GuMidphaseRTree.obj
 0001:0010ead0       ??1?$RayRTreeCallback@$0A@$00@@UEAA@XZ 000000018010fad0 f i GuMidphaseRTree.obj
 0001:0010eb58       ??_E?$RayRTreeCallback@$00$00@@W7EAAPEAXI@Z 000000018010fb58 f i GuMidphaseRTree.obj
 0001:0010eb64       ??_E?$RayRTreeCallback@$00$0A@@@W7EAAPEAXI@Z 000000018010fb64 f i GuMidphaseRTree.obj
 0001:0010eb64       ??_E?$RayRTreeCallback@$0A@$0A@@@W7EAAPEAXI@Z 000000018010fb64 f i GuMidphaseRTree.obj
 0001:0010eb70       ??_E?$RayRTreeCallback@$0A@$00@@W7EAAPEAXI@Z 000000018010fb70 f i GuMidphaseRTree.obj
 0001:0010ebe0       ??_E?$RayRTreeCallback@$00$00@@UEAAPEAXI@Z 000000018010fbe0 f i GuMidphaseRTree.obj
 0001:0010ebe0       ??_G?$RayRTreeCallback@$00$00@@UEAAPEAXI@Z 000000018010fbe0 f i GuMidphaseRTree.obj
 0001:0010ec20       ??_E?$RayRTreeCallback@$00$0A@@@UEAAPEAXI@Z 000000018010fc20 f i GuMidphaseRTree.obj
 0001:0010ec20       ??_E?$RayRTreeCallback@$0A@$0A@@@UEAAPEAXI@Z 000000018010fc20 f i GuMidphaseRTree.obj
 0001:0010ec20       ??_G?$RayRTreeCallback@$00$0A@@@UEAAPEAXI@Z 000000018010fc20 f i GuMidphaseRTree.obj
 0001:0010ec20       ??_G?$RayRTreeCallback@$0A@$0A@@@UEAAPEAXI@Z 000000018010fc20 f i GuMidphaseRTree.obj
 0001:0010ec60       ??_E?$RayRTreeCallback@$0A@$00@@UEAAPEAXI@Z 000000018010fc60 f i GuMidphaseRTree.obj
 0001:0010ec60       ??_G?$RayRTreeCallback@$0A@$00@@UEAAPEAXI@Z 000000018010fc60 f i GuMidphaseRTree.obj
 0001:0010eca0       ??_ECallback@RTree@Gu@physx@@UEAAPEAXI@Z 000000018010fca0 f i GuMidphaseRTree.obj
 0001:0010eca0       ??_GCallback@RTree@Gu@physx@@UEAAPEAXI@Z 000000018010fca0 f i GuMidphaseRTree.obj
 0001:0010ecd0       ??_ERayMeshColliderCallback@@UEAAPEAXI@Z 000000018010fcd0 f i GuMidphaseRTree.obj
 0001:0010ecd0       ??_ESweepCapsuleMeshHitCallback@Gu@physx@@UEAAPEAXI@Z 000000018010fcd0 f i GuSweepsMesh.obj
 0001:0010ecd0       ??_GRayMeshColliderCallback@@UEAAPEAXI@Z 000000018010fcd0 f i GuMidphaseRTree.obj
 0001:0010ecd0       ??_GSweepCapsuleMeshHitCallback@Gu@physx@@UEAAPEAXI@Z 000000018010fcd0 f i GuSweepsMesh.obj
 0001:0010ed00       ?collideOBB@MeshRayCollider@@SAXAEBVBox@Gu@physx@@_NPEBVRTreeTriangleMesh@34@AEAU?$MeshHitCallback@UPxGeomRaycastHit@physx@@@34@1@Z 000000018010fd00 f   GuMidphaseRTree.obj
 0001:0010f1d0       ?intersectBoxVsMesh_RTREE@Gu@physx@@YA_NAEBVBox@12@AEBVTriangleMesh@12@AEBV?$PxTransformT@M@2@AEBVPxMeshScale@2@PEAULimitedResults@12@@Z 00000001801101d0 f   GuMidphaseRTree.obj
 0001:0010f240       ?intersectCapsuleVsMesh_RTREE@Gu@physx@@YA_NAEBVCapsule@12@AEBVTriangleMesh@12@AEBV?$PxTransformT@M@2@AEBVPxMeshScale@2@PEAULimitedResults@12@@Z 0000000180110240 f   GuMidphaseRTree.obj
 0001:0010f2c0       ?intersectOBB_RTREE@Gu@physx@@YAXPEBVTriangleMesh@12@AEBVBox@12@AEAU?$MeshHitCallback@UPxGeomRaycastHit@physx@@@12@_N3@Z 00000001801102c0 f   GuMidphaseRTree.obj
 0001:0010f2f0       ?intersectSphereVsMesh_RTREE@Gu@physx@@YA_NAEBVSphere@12@AEBVTriangleMesh@12@AEBV?$PxTransformT@M@2@AEBVPxMeshScale@2@PEAULimitedResults@12@@Z 00000001801102f0 f   GuMidphaseRTree.obj
 0001:0010f320       ?pointMeshDistance_RTREE@Gu@physx@@YAXPEBVTriangleMesh@12@AEBVPxTriangleMeshGeometry@2@AEBV?$PxTransformT@M@2@AEBV?$PxVec3T@M@2@MAEAIAEAMAEAV62@@Z 0000000180110320 f   GuMidphaseRTree.obj
 0001:00110110       ?processHit@RayMeshColliderCallback@@UEAA_NAEBUPxGeomRaycastHit@physx@@AEBV?$PxVec3T@M@3@11AEAMPEBI@Z 0000000180111110 f i GuMidphaseRTree.obj
 0001:001108b0       ?processResults@?$RayRTreeCallback@$00$00@@UEAA_NIPEAI@Z 00000001801118b0 f i GuMidphaseRTree.obj
 0001:00110c20       ?processResults@?$RayRTreeCallback@$00$00@@UEAA_NIPEAIAEAM@Z 0000000180111c20 f i GuMidphaseRTree.obj
 0001:00110fa0       ?processResults@?$RayRTreeCallback@$00$0A@@@UEAA_NIPEAI@Z 0000000180111fa0 f i GuMidphaseRTree.obj
 0001:00110fa0       ?processResults@?$RayRTreeCallback@$0A@$0A@@@UEAA_NIPEAI@Z 0000000180111fa0 f i GuMidphaseRTree.obj
 0001:00111200       ?processResults@?$RayRTreeCallback@$00$0A@@@UEAA_NIPEAIAEAM@Z 0000000180112200 f i GuMidphaseRTree.obj
 0001:00111200       ?processResults@?$RayRTreeCallback@$0A@$0A@@@UEAA_NIPEAIAEAM@Z 0000000180112200 f i GuMidphaseRTree.obj
 0001:00111490       ?processResults@?$RayRTreeCallback@$0A@$00@@UEAA_NIPEAI@Z 0000000180112490 f i GuMidphaseRTree.obj
 0001:00111ad0       ?processResults@?$RayRTreeCallback@$0A@$00@@UEAA_NIPEAIAEAM@Z 0000000180112ad0 f i GuMidphaseRTree.obj
 0001:00112120       ?raycast_triangleMesh_RTREE@Gu@physx@@YAIPEBVTriangleMesh@12@AEBVPxTriangleMeshGeometry@2@AEBV?$PxTransformT@M@2@AEBV?$PxVec3T@M@2@3MV?$PxFlags@W4Enum@PxHitFlag@physx@@G@2@IPEIAUPxGeomRaycastHit@2@I@Z 0000000180113120 f   GuMidphaseRTree.obj
 0001:001128a0       ?sweepBox_MeshGeom_RTREE@Gu@physx@@YA_NPEBVTriangleMesh@12@AEBVPxTriangleMeshGeometry@2@AEBV?$PxTransformT@M@2@AEBVBox@12@AEBV?$PxVec3T@M@2@MAEAUPxGeomSweepHit@2@V?$PxFlags@W4Enum@PxHitFlag@physx@@G@2@M@Z 00000001801138a0 f   GuMidphaseRTree.obj
 0001:00113de0       ?sweepCapsule_MeshGeom_RTREE@Gu@physx@@YA_NPEBVTriangleMesh@12@AEBVPxTriangleMeshGeometry@2@AEBV?$PxTransformT@M@2@AEBVCapsule@12@AEBV?$PxVec3T@M@2@MAEAUPxGeomSweepHit@2@V?$PxFlags@W4Enum@PxHitFlag@physx@@G@2@M@Z 0000000180114de0 f   GuMidphaseRTree.obj
 0001:00114590       ?sweepConvex_MeshGeom_RTREE@Gu@physx@@YAXPEBVTriangleMesh@12@AEBVBox@12@AEBV?$PxVec3T@M@2@MAEAUSweepConvexMeshHitCallback@12@_N@Z 0000000180115590 f   GuMidphaseRTree.obj
 0001:00114f40       ??_E?$PxReportCallback@UPxGeomIndexPair@physx@@@physx@@UEAAPEAXI@Z 0000000180115f40 f i GuOverlapTestsMesh.obj
 0001:00114f40       ??_G?$PxReportCallback@UPxGeomIndexPair@physx@@@physx@@UEAAPEAXI@Z 0000000180115f40 f i GuOverlapTestsMesh.obj
 0001:00114fd0       ?GeomOverlapCallback_BoxMesh@@YA_NAEBVPxGeometry@physx@@AEBV?$PxTransformT@M@2@01PEAUTriggerCache@Gu@2@PEAUPxQueryThreadContext@2@@Z 0000000180115fd0 f   GuOverlapTestsMesh.obj
 0001:001150e0       ?GeomOverlapCallback_CapsuleMesh@@YA_NAEBVPxGeometry@physx@@AEBV?$PxTransformT@M@2@01PEAUTriggerCache@Gu@2@PEAUPxQueryThreadContext@2@@Z 00000001801160e0 f   GuOverlapTestsMesh.obj
 0001:001151f0       ?GeomOverlapCallback_ConvexMesh@@YA_NAEBVPxGeometry@physx@@AEBV?$PxTransformT@M@2@01PEAUTriggerCache@Gu@2@PEAUPxQueryThreadContext@2@@Z 00000001801161f0 f   GuOverlapTestsMesh.obj
 0001:001156f0       ?GeomOverlapCallback_MeshMesh@@YA_NAEBVPxGeometry@physx@@AEBV?$PxTransformT@M@2@01PEAUTriggerCache@Gu@2@PEAUPxQueryThreadContext@2@@Z 00000001801166f0 f   GuOverlapTestsMesh.obj
 0001:001157c0       ?GeomOverlapCallback_SphereMesh@@YA_NAEBVPxGeometry@physx@@AEBV?$PxTransformT@M@2@01PEAUTriggerCache@Gu@2@PEAUPxQueryThreadContext@2@@Z 00000001801167c0 f   GuOverlapTestsMesh.obj
 0001:00115bb0       ??0RTree@Gu@physx@@QEAA@W4PxEMPTY@2@@Z 0000000180116bb0 f   GuRTree.obj
 0001:00115bc0       ?exportExtraData@RTree@Gu@physx@@QEAAXAEAVPxSerializationContext@3@@Z 0000000180116bc0 f   GuRTree.obj
 0001:00115c00       ?importExtraData@RTree@Gu@physx@@QEAAXAEAVPxDeserializationContext@3@@Z 0000000180116c00 f   GuRTree.obj
 0001:00115c30       ?load@RTree@Gu@physx@@QEAA_NAEAVPxInputStream@3@I_N@Z 0000000180116c30 f   GuRTree.obj
 0001:00115f30       ?refitAllStaticTree@RTree@Gu@physx@@QEAAXAEAUCallbackRefit@123@PEAVPxBounds3@3@@Z 0000000180116f30 f   GuRTree.obj
 0001:00116480       ?validate@RTree@Gu@physx@@QEAAXPEAUCallbackRefit@123@@Z 0000000180117480 f   GuRTree.obj
 0001:001166c0       ?validateRecursive@RTree@Gu@physx@@IEAAXIURTreeNodeQ@23@PEAURTreePage@23@PEAUCallbackRefit@123@@Z 00000001801176c0 f   GuRTree.obj
 0001:00116880       ??$traverseRay@$00@RTree@Gu@physx@@QEBAXAEBV?$PxVec3T@M@2@0IPEAIPEAUCallbackRaycast@012@PEBV32@M@Z 0000000180117880 f i GuRTreeQueries.obj
 0001:00116c20       ??$traverseRay@$0A@@RTree@Gu@physx@@QEBAXAEBV?$PxVec3T@M@2@0IPEAIPEAUCallbackRaycast@012@PEBV32@M@Z 0000000180117c20 f i GuRTreeQueries.obj
 0001:00116f70       ?traverseAABB@RTree@Gu@physx@@QEBAXAEBV?$PxVec3T@M@3@0IPEAIPEAUCallback@123@@Z 0000000180117f70 f   GuRTreeQueries.obj
 0001:00117130       ?traverseOBB@RTree@Gu@physx@@QEBAXAEBVBox@23@IPEAIPEAUCallback@123@@Z 0000000180118130 f   GuRTreeQueries.obj
 0001:00117a10       ??0SweepBoxMeshHitCallback@Gu@physx@@QEAA@W4Enum@CallbackMode@12@AEBVPxMat34Padded@2@M_NAEBVBox@12@AEBV?$PxVec3T@M@2@44AEBV?$PxFlags@W4Enum@PxHitFlag@physx@@G@2@M2M@Z 0000000180118a10 f   GuSweepsMesh.obj
 0001:00117b20       ??0SweepCapsuleMeshHitCallback@Gu@physx@@QEAA@AEAUPxGeomSweepHit@2@AEBV?$PxMat34T@M@2@M_NAEBVCapsule@12@AEBV?$PxVec3T@M@2@AEBV?$PxFlags@W4Enum@PxHitFlag@physx@@G@2@2M@Z 0000000180118b20 f   GuSweepsMesh.obj
 0001:00117bf0       ??0SweepConvexMeshHitCallback@Gu@physx@@QEAA@AEBUConvexHullData@12@AEBVPxMeshScale@2@AEBVFastVertex2ShapeScaling@Cm@2@AEBV?$PxTransformT@M@2@3AEBV?$PxVec3T@M@2@MV?$PxFlags@W4Enum@PxHitFlag@physx@@G@2@_NM6M@Z 0000000180118bf0 f   GuSweepsMesh.obj
 0001:00118550       ??_ESweepBoxMeshHitCallback@Gu@physx@@UEAAPEAXI@Z 0000000180119550 f i GuSweepsMesh.obj
 0001:00118550       ??_GSweepBoxMeshHitCallback@Gu@physx@@UEAAPEAXI@Z 0000000180119550 f i GuSweepsMesh.obj
 0001:00118580       ??_ESweepConvexMeshHitCallback@Gu@physx@@UEAAPEAXI@Z 0000000180119580 f i GuSweepsMesh.obj
 0001:00118580       ??_GSweepConvexMeshHitCallback@Gu@physx@@UEAAPEAXI@Z 0000000180119580 f i GuSweepsMesh.obj
 0001:001185b0       ??_ESweepShapeMeshHitCallback@Gu@physx@@UEAAPEAXI@Z 00000001801195b0 f i GuSweepsMesh.obj
 0001:001185b0       ??_GSweepShapeMeshHitCallback@Gu@physx@@UEAAPEAXI@Z 00000001801195b0 f i GuSweepsMesh.obj
 0001:001185e0       ?finalizeHit@SweepBoxMeshHitCallback@Gu@physx@@QEBA_NAEAUPxGeomSweepHit@3@AEBVPxTriangleMeshGeometry@3@AEBV?$PxTransformT@M@3@2AEBV?$PxVec3T@M@3@_N4@Z 00000001801195e0 f   GuSweepsMesh.obj
 0001:00118ca0       ?finalizeHit@SweepCapsuleMeshHitCallback@Gu@physx@@QEBA_NAEAUPxGeomSweepHit@3@AEBVCapsule@23@AEBVPxTriangleMeshGeometry@3@AEBV?$PxTransformT@M@3@_N@Z 0000000180119ca0 f   GuSweepsMesh.obj
 0001:00118e50       ?finalizeHit@SweepConvexMeshHitCallback@Gu@physx@@QEAA_NAEAUPxGeomSweepHit@3@AEBVPxTriangleMeshGeometry@3@AEBV?$PxTransformT@M@3@AEBVPxConvexMeshGeometry@3@2AEBV?$PxVec3T@M@3@M_N555@Z 0000000180119e50 f   GuSweepsMesh.obj
 0001:00119320       ?processHit@SweepBoxMeshHitCallback@Gu@physx@@UEAA_NAEBUPxGeomRaycastHit@3@AEBV?$PxVec3T@M@3@11AEAMPEBI@Z 000000018011a320 f   GuSweepsMesh.obj
 0001:00119b10       ?processHit@SweepCapsuleMeshHitCallback@Gu@physx@@UEAA_NAEBUPxGeomRaycastHit@3@AEBV?$PxVec3T@M@3@11AEAMPEBI@Z 000000018011ab10 f   GuSweepsMesh.obj
 0001:0011a070       ?processHit@SweepConvexMeshHitCallback@Gu@physx@@UEAA_NAEBUPxGeomRaycastHit@3@AEBV?$PxVec3T@M@3@11AEAMPEBI@Z 000000018011b070 f   GuSweepsMesh.obj
 0001:0011a7c0       ?sweepBox_MeshGeom@@YA_NAEBVPxGeometry@physx@@AEBV?$PxTransformT@M@2@AEBVPxBoxGeometry@2@1AEBVBox@Gu@2@AEBV?$PxVec3T@M@2@MAEAUPxGeomSweepHit@2@V?$PxFlags@W4Enum@PxHitFlag@physx@@G@2@MPEAUPxQueryThreadContext@2@@Z 000000018011b7c0 f   GuSweepsMesh.obj
 0001:0011a850       ?sweepCapsule_MeshGeom@@YA_NAEBVPxGeometry@physx@@AEBV?$PxTransformT@M@2@AEBVPxCapsuleGeometry@2@1AEBVCapsule@Gu@2@AEBV?$PxVec3T@M@2@MAEAUPxGeomSweepHit@2@V?$PxFlags@W4Enum@PxHitFlag@physx@@G@2@MPEAUPxQueryThreadContext@2@@Z 000000018011b850 f   GuSweepsMesh.obj
 0001:0011a8e0       ?sweepConvex_MeshGeom@@YA_NAEBVPxGeometry@physx@@AEBV?$PxTransformT@M@2@AEBVPxConvexMeshGeometry@2@1AEBV?$PxVec3T@M@2@MAEAUPxGeomSweepHit@2@V?$PxFlags@W4Enum@PxHitFlag@physx@@G@2@MPEAUPxQueryThreadContext@2@@Z 000000018011b8e0 f   GuSweepsMesh.obj
 0001:0011b420       ??0TriangleMesh@Gu@physx@@QEAA@AEBUPxTriangleMeshInternalData@2@@Z 000000018011c420 f   GuTriangleMesh.obj
 0001:0011b500       ??0TriangleMesh@Gu@physx@@QEAA@PEAVMeshFactory@12@AEAVTriangleMeshData@12@@Z 000000018011c500 f   GuTriangleMesh.obj
 0001:0011b880       ??1TriangleMesh@Gu@physx@@UEAA@XZ 000000018011c880 f   GuTriangleMesh.obj
 0001:0011baf0       ??_ETriangleMesh@Gu@physx@@UEAAPEAXI@Z 000000018011caf0 f i GuTriangleMesh.obj
 0001:0011baf0       ??_GTriangleMesh@Gu@physx@@UEAAPEAXI@Z 000000018011caf0 f i GuTriangleMesh.obj
 0001:0011bb60       ?exportExtraData@TriangleMesh@Gu@physx@@UEAAXAEAVPxSerializationContext@3@@Z 000000018011cb60 f   GuTriangleMesh.obj
 0001:0011bdc0       ?getLocalBounds@TriangleMesh@Gu@physx@@UEBA?AVPxBounds3@3@XZ 000000018011cdc0 f i GuTriangleMesh.obj
 0001:0011be50       ?getMassInformation@TriangleMesh@Gu@physx@@UEBAXAEAMAEAV?$PxMat33T@M@3@AEAV?$PxVec3T@M@3@@Z 000000018011ce50 f i GuTriangleMesh.obj
 0001:0011bed0       ?getNbTriangles@TriangleMesh@Gu@physx@@UEBAIXZ 000000018011ced0 f i GuTriangleMesh.obj
 0001:0011bee0       ?getPreferSDFProjection@TriangleMesh@Gu@physx@@UEBA_NXZ 000000018011cee0 f i GuTriangleMesh.obj
 0001:0011bef0       ?getSDF@TriangleMesh@Gu@physx@@UEBAPEBMXZ 000000018011cef0 f i GuTriangleMesh.obj
 0001:0011bf00       ?getSDFDimensions@TriangleMesh@Gu@physx@@UEBAXAEAI00@Z 000000018011cf00 f i GuTriangleMesh.obj
 0001:0011bf30       ?getTriangleMaterialIndex@TriangleMesh@Gu@physx@@UEBAGI@Z 000000018011cf30 f i GuTriangleMesh.obj
 0001:0011bf50       ?getTriangleMeshFlags@TriangleMesh@Gu@physx@@UEBA?AV?$PxFlags@W4Enum@PxTriangleMeshFlag@physx@@E@3@XZ 000000018011cf50 f i GuTriangleMesh.obj
 0001:0011bf60       ?getTrianglesRemap@TriangleMesh@Gu@physx@@UEBAPEBIXZ 000000018011cf60 f i GuTriangleMesh.obj
 0001:0011bf70       ?getVerticesForModification@TriangleMesh@Gu@physx@@UEAAPEAV?$PxVec3T@M@3@XZ 000000018011cf70 f   GuTriangleMesh.obj
 0001:0011bfb0       ?importExtraData@TriangleMesh@Gu@physx@@QEAAXAEAVPxDeserializationContext@3@@Z 000000018011cfb0 f   GuTriangleMesh.obj
 0001:0011c1c0       ?isKindOf@PxTriangleMesh@physx@@MEBA_NPEBD@Z 000000018011d1c0 f i GuTriangleMesh.obj
 0001:0011c250       ?onRefCountZero@TriangleMesh@Gu@physx@@UEAAXXZ 000000018011d250 f   GuTriangleMesh.obj
 0001:0011c320       ?refitBVH@TriangleMesh@Gu@physx@@UEAA?AVPxBounds3@3@XZ 000000018011d320 f   GuTriangleMesh.obj
 0001:0011c3f0       ?requestEdgeList@TriangleMesh@Gu@physx@@QEBAPEBVEdgeList@23@XZ 000000018011d3f0 f   GuTriangleMesh.obj
 0001:0011c4d0       ?setAllEdgesActive@TriangleMesh@Gu@physx@@QEAAXXZ 000000018011d4d0 f   GuTriangleMesh.obj
 0001:0011c5c0       ?setPreferSDFProjection@TriangleMesh@Gu@physx@@UEAAX_N@Z 000000018011d5c0 f i GuTriangleMesh.obj
 0001:0011c5f0       ??0BV4TriangleMesh@Gu@physx@@QEAA@AEBUPxTriangleMeshInternalData@2@@Z 000000018011d5f0 f   GuTriangleMeshBV4.obj
 0001:0011c750       ??0BV4TriangleMesh@Gu@physx@@QEAA@PEAVMeshFactory@12@AEAVTriangleMeshData@12@@Z 000000018011d750 f   GuTriangleMeshBV4.obj
 0001:0011c7e0       ??_EBV4TriangleMesh@Gu@physx@@UEAAPEAXI@Z 000000018011d7e0 f i GuTriangleMeshBV4.obj
 0001:0011c7e0       ??_GBV4TriangleMesh@Gu@physx@@UEAAPEAXI@Z 000000018011d7e0 f i GuTriangleMeshBV4.obj
 0001:0011c870       ?createObject@BV4TriangleMesh@Gu@physx@@SAPEAVTriangleMesh@23@AEAPEAEAEAVPxDeserializationContext@3@@Z 000000018011d870 f   GuTriangleMeshBV4.obj
 0001:0011c940       ?exportExtraData@BV4TriangleMesh@Gu@physx@@UEAAXAEAVPxSerializationContext@3@@Z 000000018011d940 f   GuTriangleMeshBV4.obj
 0001:0011c980       ?getConcreteTypeName@BV4TriangleMesh@Gu@physx@@UEBAPEBDXZ 000000018011d980 f i GuTriangleMeshBV4.obj
 0001:0011c990       ?getInternalData@BV4TriangleMesh@Gu@physx@@UEBA_NAEAUPxTriangleMeshInternalData@3@_N@Z 000000018011d990 f   GuTriangleMeshBV4.obj
 0001:0011ca80       ?getMidphaseID@BV4TriangleMesh@Gu@physx@@UEBA?AW4Enum@PxMeshMidPhase@3@XZ 000000018011da80 f i GuTriangleMeshBV4.obj
 0001:0011ca80       ?getMidphaseID@BV4TriangleMeshBuilder@physx@@UEBA?AW4Enum@PxMeshMidPhase@2@XZ 000000018011da80 f i GuCookingTriangleMesh.obj
 0001:0011ca80       _get_startup_argv_mode     000000018011da80 f i MSVCRT:argv_mode.obj
 0001:0011ca90       ?getVerticesForModification@BV4TriangleMesh@Gu@physx@@UEAAPEAV?$PxVec3T@M@3@XZ 000000018011da90 f   GuTriangleMeshBV4.obj
 0001:0011ca90       ?getVerticesForModification@RTreeTriangleMesh@Gu@physx@@UEAAPEAV?$PxVec3T@M@3@XZ 000000018011da90 f   GuTriangleMeshRTree.obj
 0001:0011caa0       ?refitBVH@BV4TriangleMesh@Gu@physx@@UEAA?AVPxBounds3@3@XZ 000000018011daa0 f   GuTriangleMeshBV4.obj
 0001:0011cc10       PxGetTriangleMeshInternalData 000000018011dc10 f   GuTriangleMeshBV4.obj
 0001:0011cc30       ??0RTreeTriangleMesh@Gu@physx@@QEAA@PEAVMeshFactory@12@AEAVTriangleMeshData@12@@Z 000000018011dc30 f   GuTriangleMeshRTree.obj
 0001:0011cda0       ??_E?$RefitCallback@G@physx@@UEAAPEAXI@Z 000000018011dda0 f i GuTriangleMeshRTree.obj
 0001:0011cda0       ??_E?$RefitCallback@I@physx@@UEAAPEAXI@Z 000000018011dda0 f i GuTriangleMeshRTree.obj
 0001:0011cda0       ??_G?$RefitCallback@G@physx@@UEAAPEAXI@Z 000000018011dda0 f i GuTriangleMeshRTree.obj
 0001:0011cda0       ??_G?$RefitCallback@I@physx@@UEAAPEAXI@Z 000000018011dda0 f i GuTriangleMeshRTree.obj
 0001:0011cdd0       ??_ERTreeTriangleMesh@Gu@physx@@UEAAPEAXI@Z 000000018011ddd0 f i GuTriangleMeshRTree.obj
 0001:0011cdd0       ??_GRTreeTriangleMesh@Gu@physx@@UEAAPEAXI@Z 000000018011ddd0 f i GuTriangleMeshRTree.obj
 0001:0011ce80       ?createObject@RTreeTriangleMesh@Gu@physx@@SAPEAVTriangleMesh@23@AEAPEAEAEAVPxDeserializationContext@3@@Z 000000018011de80 f   GuTriangleMeshRTree.obj
 0001:0011cf00       ?exportExtraData@RTreeTriangleMesh@Gu@physx@@UEAAXAEAVPxSerializationContext@3@@Z 000000018011df00 f   GuTriangleMeshRTree.obj
 0001:0011cf40       ?getConcreteTypeName@RTreeTriangleMesh@Gu@physx@@UEBAPEBDXZ 000000018011df40 f i GuTriangleMeshRTree.obj
 0001:0011cf50       ?recomputeBounds@?$RefitCallback@G@physx@@UEAAXIAEAT__m128@@0@Z 000000018011df50 f i GuTriangleMeshRTree.obj
 0001:0011d280       ?recomputeBounds@?$RefitCallback@I@physx@@UEAAXIAEAT__m128@@0@Z 000000018011e280 f i GuTriangleMeshRTree.obj
 0001:0011d5a0       ?refitBVH@RTreeTriangleMesh@Gu@physx@@UEAA?AVPxBounds3@3@XZ 000000018011e5a0 f   GuTriangleMeshRTree.obj
 0001:0011d6c0       ??0BV32Tree@Gu@physx@@QEAA@W4PxEMPTY@2@@Z 000000018011e6c0 f   GuBV32.obj
 0001:0011d6e0       ??0BV32Tree@Gu@physx@@QEAA@XZ 000000018011e6e0 f   GuBV32.obj
 0001:0011d710       ??1BV32Tree@Gu@physx@@QEAA@XZ 000000018011e710 f   GuBV32.obj
 0001:0011d720       ?createSOAformatNode@BV32Tree@Gu@physx@@QEAAXAEAUBV32DataPacked@23@AEBUBV32Data@23@IAEAI2@Z 000000018011e720 f   GuBV32.obj
 0001:0011db80       ?exportExtraData@BV32Tree@Gu@physx@@QEAAXAEAVPxSerializationContext@3@@Z 000000018011eb80 f   GuBV32.obj
 0001:0011dbc0       ?importExtraData@BV32Tree@Gu@physx@@QEAAXAEAVPxDeserializationContext@3@@Z 000000018011ebc0 f   GuBV32.obj
 0001:0011dbf0       ?load@BV32Tree@Gu@physx@@QEAA_NAEAVPxInputStream@3@_N@Z 000000018011ebf0 f   GuBV32.obj
 0001:0011df30       ?release@BV32Tree@Gu@physx@@QEAAXXZ 000000018011ef30 f   GuBV32.obj
 0001:0011dff0       ??0BV32Node@@QEAA@XZ       000000018011eff0 f i GuBV32Build.obj
 0001:0011e470       ?BuildBV32Ex@Gu@physx@@YA_NAEAVBV32Tree@12@AEAVSourceMeshBase@12@MI@Z 000000018011f470 f   GuBV32Build.obj
 0001:0011f470       ??0BVTetrahedronMesh@Gu@physx@@QEAA@AEAVTetrahedronMeshData@12@AEAVSoftBodyCollisionData@12@PEAVMeshFactory@12@@Z 0000000180120470 f   GuTetrahedronMesh.obj
 0001:0011f6d0       ??0SoftBodyMesh@Gu@physx@@QEAA@PEAVMeshFactory@12@AEAVSoftBodyMeshData@12@@Z 00000001801206d0 f   GuTetrahedronMesh.obj
 0001:0011fa70       ??0TetrahedronMesh@Gu@physx@@QEAA@PEAVMeshFactory@12@AEAVTetrahedronMeshData@12@@Z 0000000180120a70 f   GuTetrahedronMesh.obj
 0001:0011fb60       ??1SoftBodyAuxData@Gu@physx@@UEAA@XZ 0000000180120b60 f   GuTetrahedronMesh.obj
 0001:0011fde0       ??1TetrahedronMesh@Gu@physx@@UEAA@XZ 0000000180120de0 f   GuTetrahedronMesh.obj
 0001:0011fe80       ??_EBVTetrahedronMesh@Gu@physx@@UEAAPEAXI@Z 0000000180120e80 f i GuTetrahedronMesh.obj
 0001:0011fe80       ??_GBVTetrahedronMesh@Gu@physx@@UEAAPEAXI@Z 0000000180120e80 f i GuTetrahedronMesh.obj
 0001:00120000       ??_ESoftBodyAuxData@Gu@physx@@UEAAPEAXI@Z 0000000180121000 f i GuTetrahedronMesh.obj
 0001:00120000       ??_GSoftBodyAuxData@Gu@physx@@UEAAPEAXI@Z 0000000180121000 f i GuTetrahedronMesh.obj
 0001:00120070       ??_ESoftBodyMesh@Gu@physx@@UEAAPEAXI@Z 0000000180121070 f i GuTetrahedronMesh.obj
 0001:00120070       ??_GSoftBodyMesh@Gu@physx@@UEAAPEAXI@Z 0000000180121070 f i GuTetrahedronMesh.obj
 0001:00120140       ??_ETetrahedronMesh@Gu@physx@@UEAAPEAXI@Z 0000000180121140 f i GuTetrahedronMesh.obj
 0001:00120140       ??_GTetrahedronMesh@Gu@physx@@UEAAPEAXI@Z 0000000180121140 f i GuTetrahedronMesh.obj
 0001:001201b0       ?exportExtraData@SoftBodyMesh@Gu@physx@@UEAAXAEAVPxSerializationContext@3@@Z 00000001801211b0 f   GuTetrahedronMesh.obj
 0001:001202a0       ?getConcreteTypeName@SoftBodyAuxData@Gu@physx@@UEBAPEBDXZ 00000001801212a0 f i GuTetrahedronMesh.obj
 0001:001202b0       ?getConcreteTypeName@SoftBodyMesh@Gu@physx@@UEBAPEBDXZ 00000001801212b0 f i GuTetrahedronMesh.obj
 0001:001202c0       ?getConcreteTypeName@TetrahedronMesh@Gu@physx@@UEBAPEBDXZ 00000001801212c0 f i GuTetrahedronMesh.obj
 0001:001202d0       ?getLocalBounds@TetrahedronMesh@Gu@physx@@UEBA?AVPxBounds3@3@XZ 00000001801212d0 f i GuTetrahedronMesh.obj
 0001:00120360       ?getNbTetrahedrons@TetrahedronMesh@Gu@physx@@UEBAIXZ 0000000180121360 f i GuTetrahedronMesh.obj
 0001:00120370       ?getBounds@BVH@Gu@physx@@UEBAPEBVPxBounds3@3@XZ 0000000180121370 f i GuBVH.obj
 0001:00120370       ?getTetrahedraRemap@BVTetrahedronMesh@Gu@physx@@UEBAPEBIXZ 0000000180121370 f i GuTetrahedronMesh.obj
 0001:00120380       ?getTetrahedronMeshFlags@TetrahedronMesh@Gu@physx@@UEBA?AV?$PxFlags@W4Enum@PxTetrahedronMeshFlag@physx@@E@3@XZ 0000000180121380 f i GuTetrahedronMesh.obj
 0001:00120390       ?getTetrahedrons@TetrahedronMesh@Gu@physx@@UEBAPEBXXZ 0000000180121390 f i GuTetrahedronMesh.obj
 0001:001203a0       ?isKindOf@PxSoftBodyAuxData@physx@@MEBA_NPEBD@Z 00000001801213a0 f i GuTetrahedronMesh.obj
 0001:00120430       ?isKindOf@PxSoftBodyMesh@physx@@MEBA_NPEBD@Z 0000000180121430 f i GuTetrahedronMesh.obj
 0001:001204c0       ?isKindOf@PxTetrahedronMesh@physx@@MEBA_NPEBD@Z 00000001801214c0 f i GuTetrahedronMesh.obj
 0001:00120550       ?onRefCountZero@SoftBodyAuxData@Gu@physx@@UEAAXXZ 0000000180121550 f i GuTetrahedronMesh.obj
 0001:00120550       ?release@SimulationTetrahedronMeshData@Gu@physx@@UEAAXXZ 0000000180121550 f i GuCookingTetrahedronMesh.obj
 0001:00120570       ?onRefCountZero@SoftBodyMesh@Gu@physx@@UEAAXXZ 0000000180121570 f   GuTetrahedronMesh.obj
 0001:00120610       ?onRefCountZero@TetrahedronMesh@Gu@physx@@UEAAXXZ 0000000180121610 f   GuTetrahedronMesh.obj
 0001:001206b0       ?addAxisToSimMeshBarycentric@Gu@physx@@YA?AV?$PxVec4T@M@2@AEBVPxTetrahedronMesh@2@IAEBV32@AEBV?$PxVec3T@M@2@@Z 00000001801216b0 f   GuTetrahedronMeshUtils.obj
 0001:00120970       ?closestPtPointTetrahedron@Gu@physx@@YA?AV?$PxVec3T@M@2@AEBV32@0000@Z 0000000180121970 f i GuTetrahedronMeshUtils.obj
 0001:00121ab0       ?computeBarycentric@physx@@YAXAEBV?$PxVec3T@M@1@0000AEAV?$PxVec4T@M@1@@Z 0000000180122ab0 f i GuTetrahedronMeshUtils.obj
 0001:00121d60       ?convertSoftbodyCollisionToSimMeshTets@Gu@physx@@YAXAEBVPxTetrahedronMesh@2@AEBVSoftBodyAuxData@12@AEBVBVTetrahedronMesh@12@IAEBV?$PxVec4T@M@2@AEAIAEAV62@@Z 0000000180122d60 f   GuTetrahedronMeshUtils.obj
 0001:00124940       ?pcmContactBoxBox@Gu@physx@@YA_NAEBVPxGeometry@2@0AEBUPxTransformPadded@2@1AEBUNarrowPhaseParams@12@AEAUCache@12@AEAVPxContactBuffer@2@PEAVPxRenderOutput@2@@Z 0000000180125940 f   GuPCMContactBoxBox.obj
 0001:001257e0       ??$gjkPenetration@U?$RelativeConvex@VBoxV@Gu@physx@@@Gu@physx@@U?$LocalConvex@VConvexHullNoScaleV@Gu@physx@@@23@@Gu@physx@@YA?AW4GjkStatus@01@AEBU?$RelativeConvex@VBoxV@Gu@physx@@@01@AEBU?$LocalConvex@VConvexHullNoScaleV@Gu@physx@@@01@AEBT__m128@@2_NPEIAE4AEAEAEAUGjkOutput@01@@Z 00000001801267e0 f i GuPCMContactBoxConvex.obj
 0001:00125850       ??$gjkPenetration@U?$RelativeConvex@VBoxV@Gu@physx@@@Gu@physx@@U?$LocalConvex@VConvexHullNoScaleV@Gu@physx@@@23@@Gu@physx@@YA?AW4GjkStatus@01@AEBU?$RelativeConvex@VBoxV@Gu@physx@@@01@AEBU?$LocalConvex@VConvexHullNoScaleV@Gu@physx@@@01@AEBT__m128@@2_NPEIAE4PEIAT5@5AEAEAEAUGjkOutput@01@@Z 0000000180126850 f i GuPCMContactBoxConvex.obj
 0001:00127430       ?pcmContactBoxConvex@Gu@physx@@YA_NAEBVPxGeometry@2@0AEBUPxTransformPadded@2@1AEBUNarrowPhaseParams@12@AEAUCache@12@AEAVPxContactBuffer@2@PEAVPxRenderOutput@2@@Z 0000000180128430 f   GuPCMContactBoxConvex.obj
 0001:00128230       ?support@?$LocalConvex@VConvexHullNoScaleV@Gu@physx@@@Gu@physx@@UEBA?AT__m128@@AEBT4@@Z 0000000180129230 f i GuPCMContactBoxConvex.obj
 0001:00128280       ?support@?$LocalConvex@VConvexHullNoScaleV@Gu@physx@@@Gu@physx@@UEBA?AT__m128@@AEBT4@AEAH@Z 0000000180129280 f i GuPCMContactBoxConvex.obj
 0001:001282e0       ?supportPoint@?$LocalConvex@VConvexHullNoScaleV@Gu@physx@@@Gu@physx@@UEBA?AT__m128@@H@Z 00000001801292e0 f i GuPCMContactBoxConvex.obj
 0001:00128310       ?pcmContactCapsuleBox@Gu@physx@@YA_NAEBVPxGeometry@2@0AEBUPxTransformPadded@2@1AEBUNarrowPhaseParams@12@AEAUCache@12@AEAVPxContactBuffer@2@PEAVPxRenderOutput@2@@Z 0000000180129310 f   GuPCMContactCapsuleBox.obj
 0001:00129270       ?pcmContactCapsuleCapsule@Gu@physx@@YA_NAEBVPxGeometry@2@0AEBUPxTransformPadded@2@1AEBUNarrowPhaseParams@12@AEAUCache@12@AEAVPxContactBuffer@2@PEAVPxRenderOutput@2@@Z 000000018012a270 f   GuPCMContactCapsuleCapsule.obj
 0001:00129a10       ??$gjkPenetration@U?$LocalConvex@VCapsuleV@Gu@physx@@@Gu@physx@@U?$LocalConvex@VConvexHullNoScaleV@Gu@physx@@@23@@Gu@physx@@YA?AW4GjkStatus@01@AEBU?$LocalConvex@VCapsuleV@Gu@physx@@@01@AEBU?$LocalConvex@VConvexHullNoScaleV@Gu@physx@@@01@AEBT__m128@@2_NPEIAE4AEAEAEAUGjkOutput@01@@Z 000000018012aa10 f i GuPCMContactCapsuleConvex.obj
 0001:00129a80       ??$gjkPenetration@U?$LocalConvex@VCapsuleV@Gu@physx@@@Gu@physx@@U?$LocalConvex@VConvexHullNoScaleV@Gu@physx@@@23@@Gu@physx@@YA?AW4GjkStatus@01@AEBU?$LocalConvex@VCapsuleV@Gu@physx@@@01@AEBU?$LocalConvex@VConvexHullNoScaleV@Gu@physx@@@01@AEBT__m128@@2_NPEIAE4PEIAT5@5AEAEAEAUGjkOutput@01@@Z 000000018012aa80 f i GuPCMContactCapsuleConvex.obj
 0001:0012b140       ?pcmContactCapsuleConvex@Gu@physx@@YA_NAEBVPxGeometry@2@0AEBUPxTransformPadded@2@1AEBUNarrowPhaseParams@12@AEAUCache@12@AEAVPxContactBuffer@2@PEAVPxRenderOutput@2@@Z 000000018012c140 f   GuPCMContactCapsuleConvex.obj
 0001:0012c330       ??_EPCMCapsuleVsHeightfieldContactGenerationCallback@@UEAAPEAXI@Z 000000018012d330 f i GuPCMContactCapsuleHeightField.obj
 0001:0012c330       ??_GPCMCapsuleVsHeightfieldContactGenerationCallback@@UEAAPEAXI@Z 000000018012d330 f i GuPCMContactCapsuleHeightField.obj
 0001:0012c360       ?pcmContactCapsuleHeightField@Gu@physx@@YA_NAEBVPxGeometry@2@0AEBUPxTransformPadded@2@1AEBUNarrowPhaseParams@12@AEAUCache@12@AEAVPxContactBuffer@2@PEAVPxRenderOutput@2@@Z 000000018012d360 f   GuPCMContactCapsuleHeightField.obj
 0001:0012d270       ?reportTouchedTris@?$PCMHeightfieldContactGenerationCallback@UPCMCapsuleVsHeightfieldContactGenerationCallback@@@Gu@physx@@UEAA_NIPEBI@Z 000000018012e270 f i GuPCMContactCapsuleHeightField.obj
 0001:0012d8e0       ?generateContacts@PCMCapsuleVsMeshContactGeneration@Gu@physx@@SAXAEBT__m128@@0000I000PEAVMeshPersistentContact@23@AEAI@Z 000000018012e8e0 f   GuPCMContactCapsuleMesh.obj
 0001:0012dd00       ?generateEE@PCMCapsuleVsMeshContactGeneration@Gu@physx@@QEAAXAEBT__m128@@000I00PEAVMeshPersistentContact@23@AEAI@Z 000000018012ed00 f   GuPCMContactCapsuleMesh.obj
 0001:0012df70       ?generateEEMTD@PCMCapsuleVsMeshContactGeneration@Gu@physx@@SAXAEBT__m128@@000I00PEAVMeshPersistentContact@23@AEAI@Z 000000018012ef70 f   GuPCMContactCapsuleMesh.obj
 0001:0012e1a0       ?pcmContactCapsuleMesh@Gu@physx@@YA_NAEBVPxGeometry@2@0AEBUPxTransformPadded@2@1AEBUNarrowPhaseParams@12@AEAUCache@12@AEAVPxContactBuffer@2@PEAVPxRenderOutput@2@@Z 000000018012f1a0 f   GuPCMContactCapsuleMesh.obj
 0001:0012fa10       ?pcmDistanceSegmentTriangleSquaredExported@@YA?AT__m128@@AEBT1@0000AEAT1@11@Z 0000000180130a10 f   GuPCMContactCapsuleMesh.obj
 0001:0012fe70       ?processTriangle@PCMCapsuleVsMeshContactGeneration@Gu@physx@@QEAA_NPEBV?$PxVec3T@M@3@IEPEBI@Z 0000000180130e70 f   GuPCMContactCapsuleMesh.obj
 0001:00130a70       ?processTriangle@PCMCapsuleVsMeshContactGeneration@Gu@physx@@SA_NAEBVTriangleV@23@IAEBVCapsuleV@23@AEBT__m128@@EPEAVMeshPersistentContact@23@AEAI@Z 0000000180131a70 f   GuPCMContactCapsuleMesh.obj
 0001:00130da0       ?addContactsToPatch@PCMConvexVsMeshContactGeneration@Gu@physx@@QEAAXAEBT__m128@@I@Z 0000000180131da0 f   GuPCMContactConvexCommon.obj
 0001:001316e0       ?doSupport@?$SupportLocalImpl@VTriangleV@Gu@physx@@@Gu@physx@@UEBA?AT__m128@@AEBT4@@Z 00000001801326e0 f i GuPCMContactConvexCommon.obj
 0001:00131770       ?doSupport@?$SupportLocalImpl@VTriangleV@Gu@physx@@@Gu@physx@@UEBAXAEBT__m128@@AEAT4@1@Z 0000000180132770 f i GuPCMContactConvexCommon.obj
 0001:001317e0       ?generateLastContacts@PCMConvexVsMeshContactGeneration@Gu@physx@@QEAAXXZ 00000001801327e0 f   GuPCMContactConvexCommon.obj
 0001:00131d40       ?populateVerts@?$SupportLocalImpl@VTriangleV@Gu@physx@@@Gu@physx@@UEBAXPEBEIPEBV?$PxVec3T@M@3@PEAT__m128@@@Z 0000000180132d40 f i GuPCMContactConvexCommon.obj
 0001:00131e80       ?processTriangle@PCMConvexVsMeshContactGeneration@Gu@physx@@QEAA_NPEBV?$PxVec3T@M@3@IEPEBI@Z 0000000180132e80 f   GuPCMContactConvexCommon.obj
 0001:001323d0       ?processTriangle@PCMConvexVsMeshContactGeneration@Gu@physx@@SA_NAEBUPolygonalData@23@PEBVSupportLocal@23@PEBV?$PxVec3T@M@3@IEAEBT__m128@@_NAEBVPxTransformV@aos@3@AEBVPxMatTransformV@93@PEAVMeshPersistentContact@23@AEAI@Z 00000001801333d0 f   GuPCMContactConvexCommon.obj
 0001:00132650       ??$gjkPenetration@U?$RelativeConvex@VConvexHullNoScaleV@Gu@physx@@@Gu@physx@@U?$LocalConvex@VConvexHullNoScaleV@Gu@physx@@@23@@Gu@physx@@YA?AW4GjkStatus@01@AEBU?$RelativeConvex@VConvexHullNoScaleV@Gu@physx@@@01@AEBU?$LocalConvex@VConvexHullNoScaleV@Gu@physx@@@01@AEBT__m128@@2_NPEIAE4AEAEAEAUGjkOutput@01@@Z 0000000180133650 f i GuPCMContactConvexConvex.obj
 0001:001326c0       ??$gjkPenetration@U?$RelativeConvex@VConvexHullNoScaleV@Gu@physx@@@Gu@physx@@U?$LocalConvex@VConvexHullNoScaleV@Gu@physx@@@23@@Gu@physx@@YA?AW4GjkStatus@01@AEBU?$RelativeConvex@VConvexHullNoScaleV@Gu@physx@@@01@AEBU?$LocalConvex@VConvexHullNoScaleV@Gu@physx@@@01@AEBT__m128@@2_NPEIAE4PEIAT5@5AEAEAEAUGjkOutput@01@@Z 00000001801336c0 f i GuPCMContactConvexConvex.obj
 0001:00133bd0       ??$gjkPenetration@U?$RelativeConvex@VConvexHullNoScaleV@Gu@physx@@@Gu@physx@@U?$LocalConvex@VConvexHullV@Gu@physx@@@23@@Gu@physx@@YA?AW4GjkStatus@01@AEBU?$RelativeConvex@VConvexHullNoScaleV@Gu@physx@@@01@AEBU?$LocalConvex@VConvexHullV@Gu@physx@@@01@AEBT__m128@@2_NPEIAE4AEAEAEAUGjkOutput@01@@Z 0000000180134bd0 f i GuPCMContactConvexConvex.obj
 0001:00133c40       ??$gjkPenetration@U?$RelativeConvex@VConvexHullNoScaleV@Gu@physx@@@Gu@physx@@U?$LocalConvex@VConvexHullV@Gu@physx@@@23@@Gu@physx@@YA?AW4GjkStatus@01@AEBU?$RelativeConvex@VConvexHullNoScaleV@Gu@physx@@@01@AEBU?$LocalConvex@VConvexHullV@Gu@physx@@@01@AEBT__m128@@2_NPEIAE4PEIAT5@5AEAEAEAUGjkOutput@01@@Z 0000000180134c40 f i GuPCMContactConvexConvex.obj
 0001:001351e0       ??$gjkPenetration@U?$RelativeConvex@VConvexHullV@Gu@physx@@@Gu@physx@@U?$LocalConvex@VConvexHullNoScaleV@Gu@physx@@@23@@Gu@physx@@YA?AW4GjkStatus@01@AEBU?$RelativeConvex@VConvexHullV@Gu@physx@@@01@AEBU?$LocalConvex@VConvexHullNoScaleV@Gu@physx@@@01@AEBT__m128@@2_NPEIAE4AEAEAEAUGjkOutput@01@@Z 00000001801361e0 f i GuPCMContactConvexConvex.obj
 0001:00135250       ??$gjkPenetration@U?$RelativeConvex@VConvexHullV@Gu@physx@@@Gu@physx@@U?$LocalConvex@VConvexHullNoScaleV@Gu@physx@@@23@@Gu@physx@@YA?AW4GjkStatus@01@AEBU?$RelativeConvex@VConvexHullV@Gu@physx@@@01@AEBU?$LocalConvex@VConvexHullNoScaleV@Gu@physx@@@01@AEBT__m128@@2_NPEIAE4PEIAT5@5AEAEAEAUGjkOutput@01@@Z 0000000180136250 f i GuPCMContactConvexConvex.obj
 0001:00137240       ?pcmContactConvexConvex@Gu@physx@@YA_NAEBVPxGeometry@2@0AEBUPxTransformPadded@2@1AEBUNarrowPhaseParams@12@AEAUCache@12@AEAVPxContactBuffer@2@PEAVPxRenderOutput@2@@Z 0000000180138240 f   GuPCMContactConvexConvex.obj
 0001:00138350       ?support@?$RelativeConvex@VConvexHullNoScaleV@Gu@physx@@@Gu@physx@@UEBA?AT__m128@@AEBT4@@Z 0000000180139350 f i GuPCMContactConvexConvex.obj
 0001:00138400       ?support@?$RelativeConvex@VConvexHullNoScaleV@Gu@physx@@@Gu@physx@@UEBA?AT__m128@@AEBT4@AEAH@Z 0000000180139400 f i GuPCMContactConvexConvex.obj
 0001:001384c0       ?supportPoint@?$RelativeConvex@VConvexHullNoScaleV@Gu@physx@@@Gu@physx@@UEBA?AT__m128@@H@Z 00000001801394c0 f i GuPCMContactConvexConvex.obj
 0001:00138550       ?PCMContactConvexHeightfield@Gu@physx@@YA_NAEBUPolygonalData@12@PEBVSupportLocal@12@AEBT__m128@@AEBVPxBounds3@2@AEBVPxHeightFieldGeometry@2@AEBV?$PxTransformT@M@2@5MAEAVPxContactBuffer@2@AEBVFastVertex2ShapeScaling@Cm@2@_NAEAVMultiplePersistentContactManifold@12@PEAVPxRenderOutput@2@@Z 0000000180139550 f   GuPCMContactConvexHeightField.obj
 0001:001393e0       ?pcmContactBoxHeightField@Gu@physx@@YA_NAEBVPxGeometry@2@0AEBUPxTransformPadded@2@1AEBUNarrowPhaseParams@12@AEAUCache@12@AEAVPxContactBuffer@2@PEAVPxRenderOutput@2@@Z 000000018013a3e0 f   GuPCMContactConvexHeightField.obj
 0001:00139680       ?pcmContactConvexHeightField@Gu@physx@@YA_NAEBVPxGeometry@2@0AEBUPxTransformPadded@2@1AEBUNarrowPhaseParams@12@AEAUCache@12@AEAVPxContactBuffer@2@PEAVPxRenderOutput@2@@Z 000000018013a680 f   GuPCMContactConvexHeightField.obj
 0001:0013a3d0       ?PCMContactConvexMesh@Gu@physx@@YA_NAEBUPolygonalData@12@PEBVSupportLocal@12@AEBT__m128@@AEBVPxBounds3@2@AEBVPxTriangleMeshGeometry@2@AEBV?$PxTransformT@M@2@5MAEAVPxContactBuffer@2@AEBVFastVertex2ShapeScaling@Cm@2@7_N8AEAVMultiplePersistentContactManifold@12@PEAVPxRenderOutput@2@@Z 000000018013b3d0 f   GuPCMContactConvexMesh.obj
 0001:0013aed0       ?pcmContactBoxMesh@Gu@physx@@YA_NAEBVPxGeometry@2@0AEBUPxTransformPadded@2@1AEBUNarrowPhaseParams@12@AEAUCache@12@AEAVPxContactBuffer@2@PEAVPxRenderOutput@2@@Z 000000018013bed0 f   GuPCMContactConvexMesh.obj
 0001:0013b210       ?pcmContactConvexMesh@Gu@physx@@YA_NAEBVPxGeometry@2@0AEBUPxTransformPadded@2@1AEBUNarrowPhaseParams@12@AEAUCache@12@AEAVPxContactBuffer@2@PEAVPxRenderOutput@2@@Z 000000018013c210 f   GuPCMContactConvexMesh.obj
 0001:0013be20       ?addGJKEPAContacts@Gu@physx@@YA_NPEBUGjkConvex@12@0AEBVPxMatTransformV@aos@2@W4GjkStatus@12@PEAVPersistentContact@12@T__m128@@4AEAUGjkOutput@12@AEAVPersistentContactManifold@12@@Z 000000018013ce20 f   GuPCMContactGenBoxConvex.obj
 0001:0013c2d0       ?computeMTD@Gu@physx@@YA_NAEBUPolygonalData@12@0PEBVSupportLocal@12@1AEAT__m128@@2@Z 000000018013d2d0 f   GuPCMContactGenBoxConvex.obj
 0001:0013c900       ?generateFullContactManifold@Gu@physx@@YA_NAEBUPolygonalData@12@0PEBVSupportLocal@12@1PEAVPersistentContact@12@AEAIAEBT__m128@@444MM_NPEAVPxRenderOutput@2@M@Z 000000018013d900 f   GuPCMContactGenBoxConvex.obj
 0001:0013e870       ?computeMTD@Gu@physx@@YA_NAEBVCapsuleV@12@AEBUPolygonalData@12@PEBVSupportLocal@12@AEAT__m128@@3@Z 000000018013f870 f   GuPCMContactGenSphereCapsule.obj
 0001:0013e960       ?generateCapsuleBoxFullContactManifold@Gu@physx@@YA_NAEBVCapsuleV@12@AEBUPolygonalData@12@PEBVSupportLocal@12@AEBVPxMatTransformV@aos@2@PEAVPersistentContact@12@AEAIAEBT__m128@@AEAT9@6M_NMPEAVPxRenderOutput@2@@Z 000000018013f960 f   GuPCMContactGenSphereCapsule.obj
 0001:0013eb00       ?generateFullContactManifold@Gu@physx@@YA_NAEBVCapsuleV@12@AEBUPolygonalData@12@PEBVSupportLocal@12@AEBVPxMatTransformV@aos@2@PEAVPersistentContact@12@AEAIAEBT__m128@@AEAT9@6M_NM@Z 000000018013fb00 f   GuPCMContactGenSphereCapsule.obj
 0001:0013ecf0       ?generateSphereFullContactManifold@Gu@physx@@YA_NAEBVCapsuleV@12@AEBUPolygonalData@12@PEBVSupportLocal@12@PEAVPersistentContact@12@AEAIAEBT__m128@@AEAT7@_N@Z 000000018013fcf0 f   GuPCMContactGenSphereCapsule.obj
 0001:001401e0       ?pcmContactPlaneBox@Gu@physx@@YA_NAEBVPxGeometry@2@0AEBUPxTransformPadded@2@1AEBUNarrowPhaseParams@12@AEAUCache@12@AEAVPxContactBuffer@2@PEAVPxRenderOutput@2@@Z 00000001801411e0 f   GuPCMContactPlaneBox.obj
 0001:00140da0       ?pcmContactPlaneCapsule@Gu@physx@@YA_NAEBVPxGeometry@2@0AEBUPxTransformPadded@2@1AEBUNarrowPhaseParams@12@AEAUCache@12@AEAVPxContactBuffer@2@PEAVPxRenderOutput@2@@Z 0000000180141da0 f   GuPCMContactPlaneCapsule.obj
 0001:00141520       ?pcmContactPlaneConvex@Gu@physx@@YA_NAEBVPxGeometry@2@0AEBUPxTransformPadded@2@1AEBUNarrowPhaseParams@12@AEAUCache@12@AEAVPxContactBuffer@2@PEAVPxRenderOutput@2@@Z 0000000180142520 f   GuPCMContactPlaneConvex.obj
 0001:001421a0       ?pcmContactSphereBox@Gu@physx@@YA_NAEBVPxGeometry@2@0AEBUPxTransformPadded@2@1AEBUNarrowPhaseParams@12@AEAUCache@12@AEAVPxContactBuffer@2@PEAVPxRenderOutput@2@@Z 00000001801431a0 f   GuPCMContactSphereBox.obj
 0001:00142600       ?pcmContactSphereCapsule@Gu@physx@@YA_NAEBVPxGeometry@2@0AEBUPxTransformPadded@2@1AEBUNarrowPhaseParams@12@AEAUCache@12@AEAVPxContactBuffer@2@PEAVPxRenderOutput@2@@Z 0000000180143600 f   GuPCMContactSphereCapsule.obj
 0001:00142a70       ?pcmContactSphereConvex@Gu@physx@@YA_NAEBVPxGeometry@2@0AEBUPxTransformPadded@2@1AEBUNarrowPhaseParams@12@AEAUCache@12@AEAVPxContactBuffer@2@PEAVPxRenderOutput@2@@Z 0000000180143a70 f   GuPCMContactSphereConvex.obj
 0001:00143740       ??1?$PxArray@USortedTriangle@Gu@physx@@V?$PxInlineAllocator@$0IAA@V?$PxReflectionAllocator@USortedTriangle@Gu@physx@@@physx@@@3@@physx@@QEAA@XZ 0000000180144740 f i GuPCMContactSphereHeightField.obj
 0001:00143800       ?pcmContactSphereHeightField@Gu@physx@@YA_NAEBVPxGeometry@2@0AEBUPxTransformPadded@2@1AEBUNarrowPhaseParams@12@AEAUCache@12@AEAVPxContactBuffer@2@PEAVPxRenderOutput@2@@Z 0000000180144800 f   GuPCMContactSphereHeightField.obj
 0001:00144870       ??$PxSort@USortedTriangle@Gu@physx@@U?$PxLess@USortedTriangle@Gu@physx@@@3@V?$PxReflectionAllocator@USortedTriangle@Gu@physx@@@3@@physx@@YAXPEAUSortedTriangle@Gu@0@IAEBU?$PxLess@USortedTriangle@Gu@physx@@@0@AEBV?$PxReflectionAllocator@USortedTriangle@Gu@physx@@@0@I@Z 0000000180145870 f i GuPCMContactSphereMesh.obj
 0001:00144d90       ??$processTriangleCache@$0BA@VPCMSphereVsMeshContactGeneration@Gu@physx@@@PCMMeshContactGeneration@Gu@physx@@QEAA_NAEAU?$TriangleCache@$0BA@@12@@Z 0000000180145d90 f i GuPCMContactSphereMesh.obj
 0001:00145260       ?addToPatch@PCMSphereVsMeshContactGeneration@Gu@physx@@QEAAXAEBT__m128@@0T4@I@Z 0000000180146260 f   GuPCMContactSphereMesh.obj
 0001:00145920       ?allocate@?$PxArray@IV?$PxInlineAllocator@$0PAA@V?$PxReflectionAllocator@I@physx@@@physx@@@physx@@IEAAPEAII@Z 0000000180146920 f i GuPCMContactSphereMesh.obj
 0001:001459e0       ?allocate@?$PxArray@USortedTriangle@Gu@physx@@V?$PxInlineAllocator@$0IAA@V?$PxReflectionAllocator@USortedTriangle@Gu@physx@@@physx@@@3@@physx@@IEAAPEAUSortedTriangle@Gu@2@I@Z 00000001801469e0 f i GuPCMContactSphereMesh.obj
 0001:00145aa0       ?generateLastContacts@PCMSphereVsMeshContactGeneration@Gu@physx@@QEAAXXZ 0000000180146aa0 f   GuPCMContactSphereMesh.obj
 0001:001460d0       ?growAndPushBack@?$PxArray@USortedTriangle@Gu@physx@@V?$PxInlineAllocator@$0IAA@V?$PxReflectionAllocator@USortedTriangle@Gu@physx@@@physx@@@3@@physx@@IEAAAEAUSortedTriangle@Gu@2@AEBU342@@Z 00000001801470d0 f i GuPCMContactSphereMesh.obj
 0001:001461e0       ?pcmContactSphereMesh@Gu@physx@@YA_NAEBVPxGeometry@2@0AEBUPxTransformPadded@2@1AEBUNarrowPhaseParams@12@AEAUCache@12@AEAVPxContactBuffer@2@PEAVPxRenderOutput@2@@Z 00000001801471e0 f   GuPCMContactSphereMesh.obj
 0001:00147750       ?processTriangle@PCMSphereVsMeshContactGeneration@Gu@physx@@QEAA_NPEBV?$PxVec3T@M@3@IEPEBI@Z 0000000180148750 f   GuPCMContactSphereMesh.obj
 0001:00147b40       ?recreate@?$PxArray@IV?$PxInlineAllocator@$0PAA@V?$PxReflectionAllocator@I@physx@@@physx@@@physx@@IEAAXI@Z 0000000180148b40 f i GuPCMContactSphereMesh.obj
 0001:00147c00       ?pcmContactSpherePlane@Gu@physx@@YA_NAEBVPxGeometry@2@0AEBUPxTransformPadded@2@1AEBUNarrowPhaseParams@12@AEAUCache@12@AEAVPxContactBuffer@2@PEAVPxRenderOutput@2@@Z 0000000180148c00 f   GuPCMContactSpherePlane.obj
 0001:00147d80       ?pcmContactSphereSphere@Gu@physx@@YA_NAEBVPxGeometry@2@0AEBUPxTransformPadded@2@1AEBUNarrowPhaseParams@12@AEAUCache@12@AEAVPxContactBuffer@2@PEAVPxRenderOutput@2@@Z 0000000180148d80 f   GuPCMContactSphereSphere.obj
 0001:00148650       ?pcmContactGeometryCustomGeometry@Gu@physx@@YA_NAEBVPxGeometry@2@0AEBUPxTransformPadded@2@1AEBUNarrowPhaseParams@12@AEAUCache@12@AEAVPxContactBuffer@2@PEAVPxRenderOutput@2@@Z 0000000180149650 f   GuPCMContactCustomGeometry.obj
 0001:00148700       ?getPCMConvexData@Gu@physx@@YAXAEBVConvexHullV@12@_NAEAUPolygonalData@12@@Z 0000000180149700 f   GuPCMShapeConvex.obj
 0001:00148740       ?getPCMConvexData@Gu@physx@@YA_NAEBVPxConvexMeshGeometry@2@AEAVFastVertex2ShapeScaling@Cm@2@AEAVPxBounds3@2@AEAUPolygonalData@12@@Z 0000000180149740 f   GuPCMShapeConvex.obj
 0001:00148ca0       ?getPolygonalData@PCMPolygonalBox@Gu@physx@@QEBAXPEIAUPolygonalData@23@@Z 0000000180149ca0 f   GuPCMShapeConvex.obj
 0001:00148d20       ?generatePolyDataContactManifold@PCMConvexVsMeshContactGeneration@Gu@physx@@QEAA_NAEBVTriangleV@23@IIEPEAVMeshPersistentContact@23@AEAIAEBT__m128@@AEAT6@@Z 0000000180149d20 f   GuPCMTriangleContactGen.obj
 0001:00148e40       ?generateTriangleFullContactManifold@PCMConvexVsMeshContactGeneration@Gu@physx@@QEAA_NAEBVTriangleV@23@IPEBIEAEBUPolygonalData@23@PEBV?$SupportLocalImpl@VTriangleV@Gu@physx@@@23@PEBVSupportLocal@23@PEAVMeshPersistentContact@23@AEAIAEBT__m128@@AEAT9@@Z 0000000180149e40 f   GuPCMTriangleContactGen.obj
 0001:00149370       ?generateTriangleFullContactManifold@PCMConvexVsMeshContactGeneration@Gu@physx@@SA_NAEBVTriangleV@23@IEAEBUPolygonalData@23@PEBV?$SupportLocalImpl@VTriangleV@Gu@physx@@@23@PEBVSupportLocal@23@PEAVMeshPersistentContact@23@AEAIAEBT__m128@@AEAT9@PEAVPxRenderOutput@3@@Z 000000018014a370 f   GuPCMTriangleContactGen.obj
 0001:0014b400       ?addBatchManifoldContacts2@PersistentContactManifold@Gu@physx@@QEAAXPEBVPersistentContact@23@I@Z 000000018014c400 f   GuPersistentContactManifold.obj
 0001:0014b470       ?addBatchManifoldContacts@PersistentContactManifold@Gu@physx@@QEAAXPEBVPersistentContact@23@IM@Z 000000018014c470 f   GuPersistentContactManifold.obj
 0001:0014b4f0       ?addBatchManifoldContactsCluster@PersistentContactManifold@Gu@physx@@QEAAXPEBVPersistentContact@23@I@Z 000000018014c4f0 f   GuPersistentContactManifold.obj
 0001:0014b770       ?addManifoldContactPoints@MultiplePersistentContactManifold@Gu@physx@@QEAAXPEAVMeshPersistentContact@23@IPEAPEAUPCMContactPatch@23@IAEBT__m128@@2E@Z 000000018014c770 f   GuPersistentContactManifold.obj
 0001:0014bb60       ?addManifoldContactsToContactBuffer@MultiplePersistentContactManifold@Gu@physx@@QEAA_NAEAVPxContactBuffer@3@AEBVPxTransformV@aos@3@1AEBT__m128@@@Z 000000018014cb60 f   GuPersistentContactManifold.obj
 0001:0014be20       ?addManifoldContactsToContactBuffer@MultiplePersistentContactManifold@Gu@physx@@QEAA_NAEAVPxContactBuffer@3@AEBVPxTransformV@aos@3@@Z 000000018014ce20 f   GuPersistentContactManifold.obj
 0001:0014c0a0       ?addManifoldContactsToContactBuffer@PersistentContactManifold@Gu@physx@@QEAAXAEAVPxContactBuffer@3@AEBT__m128@@1AEBVPxTransformV@aos@3@11@Z 000000018014d0a0 f   GuPersistentContactManifold.obj
 0001:0014c230       ?addManifoldContactsToContactBuffer@PersistentContactManifold@Gu@physx@@QEAAXAEAVPxContactBuffer@3@AEBT__m128@@AEBVPxMatTransformV@aos@3@@Z 000000018014d230 f   GuPersistentContactManifold.obj
 0001:0014c2e0       ?addManifoldContactsToContactBuffer@PersistentContactManifold@Gu@physx@@QEAAXAEAVPxContactBuffer@3@AEBT__m128@@AEBVPxTransformV@aos@3@1@Z 000000018014d2e0 f   GuPersistentContactManifold.obj
 0001:0014c440       ?addManifoldPoint2@PersistentContactManifold@Gu@physx@@QEAAIAEBT__m128@@000@Z 000000018014d440 f   GuPersistentContactManifold.obj
 0001:0014c570       ?addManifoldPoint@Gu@physx@@YAXPEAVPersistentContact@12@AEAVPersistentContactManifold@12@AEAUGjkOutput@12@AEBVPxMatTransformV@aos@2@T__m128@@@Z 000000018014d570 f   GuPersistentContactManifold.obj
 0001:0014c720       ?addManifoldPoint@PersistentContactManifold@Gu@physx@@QEAAIAEBT__m128@@000@Z 000000018014d720 f   GuPersistentContactManifold.obj
 0001:0014cb60       ?drawLine@MultiplePersistentContactManifold@Gu@physx@@SAXAEAVPxRenderOutput@3@AEBT__m128@@1I@Z 000000018014db60 f   GuPersistentContactManifold.obj
 0001:0014cc10       ?drawLine@MultiplePersistentContactManifold@Gu@physx@@SAXAEAVPxRenderOutput@3@V?$PxVec3T@M@3@1I@Z 000000018014dc10 f   GuPersistentContactManifold.obj
 0001:0014cc80       ?drawManifold@MultiplePersistentContactManifold@Gu@physx@@QEBAXAEAVPxRenderOutput@3@AEBVPxTransformV@aos@3@1@Z 000000018014dc80 f   GuPersistentContactManifold.obj
 0001:0014cd00       ?drawManifold@SinglePersistentContactManifold@Gu@physx@@QEBAXAEAVPxRenderOutput@3@AEBVPxTransformV@aos@3@1@Z 000000018014dd00 f   GuPersistentContactManifold.obj
 0001:0014d330       ?drawPoint@MultiplePersistentContactManifold@Gu@physx@@SAXAEAVPxRenderOutput@3@AEBT__m128@@MI@Z 000000018014e330 f   GuPersistentContactManifold.obj
 0001:0014d540       ?drawPolygon@MultiplePersistentContactManifold@Gu@physx@@SAXAEAVPxRenderOutput@3@AEBVPxTransformV@aos@3@PEAT__m128@@II@Z 000000018014e540 f   GuPersistentContactManifold.obj
 0001:0014d7c0       ?findRotationMatrixFromZAxis@Gu@physx@@YA?AUMat33V@aos@2@AEBT__m128@@@Z 000000018014e7c0 f   GuPersistentContactManifold.obj
 0001:0014da40       ?fromBuffer@MultiplePersistentContactManifold@Gu@physx@@QEAAXPEIAE@Z 000000018014ea40 f   GuPersistentContactManifold.obj
 0001:0014dba0       ?reduceBatchContacts2@PersistentContactManifold@Gu@physx@@QEAAXPEBVPersistentContact@23@I@Z 000000018014eba0 f   GuPersistentContactManifold.obj
 0001:0014dda0       ?reduceBatchContacts@PersistentContactManifold@Gu@physx@@QEAAXPEBVPersistentContact@23@IM@Z 000000018014eda0 f   GuPersistentContactManifold.obj
 0001:0014e260       ?reduceBatchContactsCapsule@SinglePersistentContactManifold@Gu@physx@@QEAA?AT__m128@@PEBVMeshPersistentContact@23@IAEAUPCMContactPatch@23@@Z 000000018014f260 f   GuPersistentContactManifold.obj
 0001:0014e4f0       ?reduceBatchContactsCluster@PersistentContactManifold@Gu@physx@@QEAAXPEBVPersistentContact@23@I@Z 000000018014f4f0 f   GuPersistentContactManifold.obj
 0001:0014e980       ?reduceBatchContactsConvex@SinglePersistentContactManifold@Gu@physx@@QEAA?AT__m128@@PEBVMeshPersistentContact@23@IAEAUPCMContactPatch@23@@Z 000000018014f980 f   GuPersistentContactManifold.obj
 0001:0014ef70       ?reduceContacts@SinglePersistentContactManifold@Gu@physx@@SAIPEAVMeshPersistentContact@23@I@Z 000000018014ff70 f   GuPersistentContactManifold.obj
 0001:0014f4f0       ?reduceContactsForPCM@PersistentContactManifold@Gu@physx@@QEAAIAEBT__m128@@00@Z 00000001801504f0 f   GuPersistentContactManifold.obj
 0001:0014fa90       ?refreshContactPoints@SinglePersistentContactManifold@Gu@physx@@QEAA?AT__m128@@AEBVPxMatTransformV@aos@3@AEBT4@1@Z 0000000180150a90 f   GuPersistentContactManifold.obj
 0001:0014fbe0       ?replaceManifoldPoint@PersistentContactManifold@Gu@physx@@QEAA_NAEBT__m128@@000@Z 0000000180150be0 f   GuPersistentContactManifold.obj
 0001:0014fca0       ?toBuffer@MultiplePersistentContactManifold@Gu@physx@@QEBAXPEIAE@Z 0000000180150ca0 f   GuPersistentContactManifold.obj
 0001:0014fd80       ?contains@Gu@physx@@YA_NPEAT__m128@@IAEBT3@11@Z 0000000180150d80 f   GuPCMContactGenUtil.obj
 0001:0014ff40       ?getPolygonIndex@Gu@physx@@YAHAEBUPolygonalData@12@PEBVSupportLocal@12@AEBT__m128@@AEAH@Z 0000000180150f40 f   GuPCMContactGenUtil.obj
 0001:001501e0       ?getWitnessPolygonIndex@Gu@physx@@YAIAEBUPolygonalData@12@PEBVSupportLocal@12@AEBT__m128@@2M@Z 00000001801511e0 f   GuPCMContactGenUtil.obj
 0001:00150730       ?sweepBoxBox@Gu@physx@@YA_NAEBVBox@12@0AEBV?$PxVec3T@M@2@MV?$PxFlags@W4Enum@PxHitFlag@physx@@G@2@AEAUPxGeomSweepHit@2@@Z 0000000180151730 f   GuSweepBoxBox.obj
 0001:00151d70       ?sweepBoxSphere@Gu@physx@@YA_NAEBVBox@12@MAEBV?$PxVec3T@M@2@1MAEAMAEAV42@V?$PxFlags@W4Enum@PxHitFlag@physx@@G@2@@Z 0000000180152d70 f   GuSweepBoxSphere.obj
 0001:00152a20       ?sweepBoxTriangle@Gu@physx@@YA_NAEBVPxTriangle@2@AEBVPxBounds3@2@AEBV?$PxVec3T@M@2@2AEAV52@3AEAM_N@Z 0000000180153a20 f   GuSweepBoxTriangle_FeatureBased.obj
 0001:00154140       ?triBoxSweepTestBoxSpace@Gu@physx@@YAHAEBVPxTriangle@2@AEBV?$PxVec3T@M@2@11MAEAM_N@Z 0000000180155140 f   GuSweepBoxTriangle_SAT.obj
 0001:00155a50       ?sweepCapsuleBox@Gu@physx@@YA_NAEBVCapsule@12@AEBV?$PxTransformT@M@2@AEBV?$PxVec3T@M@2@2MAEAV52@AEAM3V?$PxFlags@W4Enum@PxHitFlag@physx@@G@2@@Z 0000000180156a50 f   GuSweepCapsuleBox.obj
 0001:00155da0       ?distancePointSegmentSquared@Gu@physx@@YAMAEBVSegment@12@AEBV?$PxVec3T@M@2@PEAM@Z 0000000180156da0 f i GuSweepCapsuleCapsule.obj
 0001:00155eb0       ?edgeEdgeDist@@YAXAEAV?$PxVec3T@M@physx@@0AEBV12@111@Z 0000000180156eb0 f   GuSweepCapsuleCapsule.obj
 0001:00156120       ?sweepCapsuleCapsule@Gu@physx@@YA_NAEBVCapsule@12@0AEBV?$PxVec3T@M@2@MAEAMAEAV42@3IAEAG@Z 0000000180157120 f   GuSweepCapsuleCapsule.obj
 0001:00156f30       ?sweepCapsuleTriangles_Precise@Gu@physx@@YA_NIPEIBVPxTriangle@2@AEBVCapsule@12@AEBV?$PxVec3T@M@2@MPEIBIAEAUPxGeomSweepHit@2@AEAV52@V?$PxFlags@W4Enum@PxHitFlag@physx@@G@2@_NPEBVBoxPadded@12@@Z 0000000180157f30 f   GuSweepCapsuleTriangle.obj
 0001:001590a0       ?sweepSphereCapsule@Gu@physx@@YA_NAEBVSphere@12@AEBVCapsule@12@AEBV?$PxVec3T@M@2@MAEAMAEAV52@4V?$PxFlags@W4Enum@PxHitFlag@physx@@G@2@@Z 000000018015a0a0 f   GuSweepSphereCapsule.obj
 0001:00159740       ?sweepSphereSphere@Gu@physx@@YA_NAEBV?$PxVec3T@M@2@M0M0AEAMAEAV32@@Z 000000018015a740 f   GuSweepSphereSphere.obj
 0001:001599b0       ?sweepSphereTriangles@Gu@physx@@YA_NIPEIBVPxTriangle@2@AEBV?$PxVec3T@M@2@M1MPEIBIAEAUPxGeomSweepHit@2@AEAV42@_N555@Z 000000018015a9b0 f   GuSweepSphereTriangle.obj
 0001:0015a280       ?sweepSphereVSQuad@Gu@physx@@YA_NPEIBV?$PxVec3T@M@2@AEBV32@1M1AEAM@Z 000000018015b280 f   GuSweepSphereTriangle.obj
 0001:0015b260       ?sweepSphereVSTri@Gu@physx@@YA_NPEIBV?$PxVec3T@M@2@AEBV32@1M1AEAMAEA_N_N@Z 000000018015c260 f   GuSweepSphereTriangle.obj
 0001:0015bf80       ??$gjk@U?$LocalConvex@VTriangleV@Gu@physx@@@Gu@physx@@U?$LocalConvex@VBoxV@Gu@physx@@@23@@Gu@physx@@YA?AW4GjkStatus@01@AEBU?$LocalConvex@VTriangleV@Gu@physx@@@01@AEBU?$LocalConvex@VBoxV@Gu@physx@@@01@AEBT__m128@@2AEAT5@333@Z 000000018015cf80 f i GuSweepTriangleUtils.obj
 0001:0015cc60       ?computeBoxTriImpactData@Gu@physx@@YAXAEAV?$PxVec3T@M@2@0AEBV32@1AEBVPxTriangle@2@M@Z 000000018015dc60 f   GuSweepTriangleUtils.obj
 0001:0015cee0       ?computeEdgeEdgeNormal@Gu@physx@@YAXAEAV?$PxVec3T@M@2@AEBV32@1111M@Z 000000018015dee0 f   GuSweepTriangleUtils.obj
 0001:0015d190       ?computeSphereTriImpactData@Gu@physx@@YAXAEAV?$PxVec3T@M@2@0AEBV32@1MAEBVPxTriangle@2@@Z 000000018015e190 f   GuSweepTriangleUtils.obj
 0001:0015d670       ??0ShapeData@Gu@physx@@QEAA@AEBVPxGeometry@2@AEBV?$PxTransformT@M@2@M@Z 000000018015e670 f   GuBounds.obj
 0001:0015dbe0       ?computeBounds@Gu@physx@@YAXAEAVPxBounds3@2@AEBVPxGeometry@2@AEBV?$PxTransformT@M@2@MM@Z 000000018015ebe0 f   GuBounds.obj
 0001:0015e760       ?computeBoundsAroundVertices@Gu@physx@@YAXAEAVPxBounds3@2@IPEIBV?$PxVec3T@M@2@@Z 000000018015f760 f   GuBounds.obj
 0001:0015e810       ?computeGlobalBox@Gu@physx@@YAXAEAVPxBounds3@2@IPEIBV32@PEIBI@Z 000000018015f810 f   GuBounds.obj
 0001:0015e8a0       ?computeLocalBoundsAndGeomEpsilon@Gu@physx@@YAXPEBV?$PxVec3T@M@2@IAEAVPxBounds3@2@AEAM@Z 000000018015f8a0 f   GuBounds.obj
 0001:0015f9c0       ?computeTightBounds@Gu@physx@@YAXAEAVPxBounds3@2@IPEIBV?$PxVec3T@M@2@AEBV?$PxTransformT@M@2@AEBVPxMeshScale@2@MM@Z 00000001801609c0 f   GuBounds.obj
 0001:0015fd80       ??0AABBTree@Gu@physx@@QEAA@XZ 0000000180160d80 f   GuAABBTree.obj
 0001:0015fdb0       ??0BVHPartialRefitData@Gu@physx@@QEAA@XZ 0000000180160db0 f   GuAABBTree.obj
 0001:0015fde0       ??0NodeAllocator@Gu@physx@@QEAA@XZ 0000000180160de0 f   GuAABBTree.obj
 0001:0015fe00       ??1AABBTree@Gu@physx@@QEAA@XZ 0000000180160e00 f   GuAABBTree.obj
 0001:0015fe20       ??1BVHPartialRefitData@Gu@physx@@QEAA@XZ 0000000180160e20 f   GuAABBTree.obj
 0001:0015fec0       ??1NodeAllocator@Gu@physx@@QEAA@XZ 0000000180160ec0 f   GuAABBTree.obj
 0001:0015ff10       ?_buildHierarchy@AABBTreeBuildNode@Gu@physx@@QEAAXAEBVAABBTreeBuildParams@23@AEAUBuildStats@23@AEAVNodeAllocator@23@QEAI@Z 0000000180160f10 f   GuAABBTree.obj
 0001:0015ffa0       ?_buildHierarchySAH@AABBTreeBuildNode@Gu@physx@@QEAAXAEBVAABBTreeBuildParams@23@AEAUSAH_Buffers@23@AEAUBuildStats@23@AEAVNodeAllocator@23@QEAI@Z 0000000180160fa0 f   GuAABBTree.obj
 0001:00160050       ?addRuntimeChilds@AABBTree@Gu@physx@@AEAAXAEAIAEBVAABBTreeMergeData@23@@Z 0000000180161050 f   GuAABBTree.obj
 0001:00160150       ?build@AABBTree@Gu@physx@@QEAA_NAEBVAABBTreeBuildParams@23@AEAVNodeAllocator@23@@Z 0000000180161150 f   GuAABBTree.obj
 0001:00160370       ?buildAABBTree@Gu@physx@@YAPEAIAEBVAABBTreeBuildParams@12@AEAVNodeAllocator@12@AEAUBuildStats@12@@Z 0000000180161370 f   GuAABBTree.obj
 0001:00160410       ?buildAABBTree@Gu@physx@@YAXIAEBVAABBTreeBounds@12@AEAV?$PxArray@UBVHNode@Gu@physx@@V?$PxReflectionAllocator@UBVHNode@Gu@physx@@@3@@2@@Z 0000000180161410 f   GuAABBTree.obj
 0001:001607e0       ?buildEnd@AABBTree@Gu@physx@@AEAAXAEBVAABBTreeBuildParams@23@AEAVNodeAllocator@23@AEBUBuildStats@23@@Z 00000001801617e0 f   GuAABBTree.obj
 0001:00160a00       ?createUpdateMap@BVHPartialRefitData@Gu@physx@@QEAAXI@Z 0000000180161a00 f   GuAABBTree.obj
 0001:00160b20       ?flattenTree@Gu@physx@@YAXAEBVNodeAllocator@12@PEAUBVHNode@12@PEBI@Z 0000000180161b20 f   GuAABBTree.obj
 0001:00160d10       ?fullRefit@BVHCoreData@Gu@physx@@QEAAXPEBVPxBounds3@3@@Z 0000000180161d10 f   GuAABBTree.obj
 0001:00160ed0       ?getBiNode@NodeAllocator@Gu@physx@@QEAAPEAVAABBTreeBuildNode@23@XZ 0000000180161ed0 f   GuAABBTree.obj
 0001:00161000       ?getParentIndices@BVHPartialRefitData@Gu@physx@@IEAAPEAIXZ 0000000180162000 f   GuAABBTree.obj
 0001:00161090       ?growAndPushBack@?$PxArray@PEAVAABBTreeBuildNode@Gu@physx@@V?$PxReflectionAllocator@PEAVAABBTreeBuildNode@Gu@physx@@@3@@physx@@IEAAAEAPEAVAABBTreeBuildNode@Gu@2@AEBQEAV342@@Z 0000000180162090 f i GuAABBTree.obj
 0001:001611b0       ?growAndPushBack@?$PxArray@USlab@NodeAllocator@Gu@physx@@V?$PxReflectionAllocator@USlab@NodeAllocator@Gu@physx@@@4@@physx@@IEAAAEAUSlab@NodeAllocator@Gu@2@AEBU3452@@Z 00000001801621b0 f i GuAABBTree.obj
 0001:00161270       ?init@AABBTreeBounds@Gu@physx@@QEAAXIPEBVPxBounds3@3@@Z 0000000180162270 f   GuAABBTree.obj
 0001:00161330       ?init@NodeAllocator@Gu@physx@@QEAAXII@Z 0000000180162330 f   GuAABBTree.obj
 0001:00161670       ?initTree@AABBTree@Gu@physx@@QEAAXAEBVAABBTreeMergeData@23@@Z 0000000180162670 f   GuAABBTree.obj
 0001:001617a0       ?markNodeForRefit@BVHPartialRefitData@Gu@physx@@QEAAXI@Z 00000001801627a0 f   GuAABBTree.obj
 0001:001618b0       ?mergeRuntimeLeaf@AABBTree@Gu@physx@@AEAAXAEAUBVHNode@23@AEBVAABBTreeMergeData@23@I@Z 00000001801628b0 f   GuAABBTree.obj
 0001:00161b00       ?mergeRuntimeNode@AABBTree@Gu@physx@@AEAAXAEAUBVHNode@23@AEBVAABBTreeMergeData@23@I@Z 0000000180162b00 f   GuAABBTree.obj
 0001:00161e20       ?mergeTree@AABBTree@Gu@physx@@QEAAXAEBVAABBTreeMergeData@23@@Z 0000000180162e20 f   GuAABBTree.obj
 0001:001620b0       ?progressiveBuild@AABBTree@Gu@physx@@QEAAIAEBVAABBTreeBuildParams@23@AEAVNodeAllocator@23@AEAUBuildStats@23@II@Z 00000001801630b0 f   GuAABBTree.obj
 0001:00162360       ?refitMarkedNodes@BVHPartialRefitData@Gu@physx@@QEAAXPEBVPxBounds3@3@@Z 0000000180163360 f   GuAABBTree.obj
 0001:001624d0       ?release@AABBTree@Gu@physx@@QEAAX_N@Z 00000001801634d0 f   GuAABBTree.obj
 0001:001625c0       ?release@AABBTreeBounds@Gu@physx@@QEAAXXZ 00000001801635c0 f   GuAABBTree.obj
 0001:00162610       ?release@NodeAllocator@Gu@physx@@QEAAXXZ 0000000180163610 f   GuAABBTree.obj
 0001:001626c0       ?releasePartialRefitData@BVHPartialRefitData@Gu@physx@@QEAAX_N@Z 00000001801636c0 f   GuAABBTree.obj
 0001:00162750       ?reshuffle@Gu@physx@@YAIIQEIAIPEIBV?$PxVec3T@M@2@MI@Z 0000000180163750 f   GuAABBTree.obj
 0001:00162890       ?resize@?$PxArray@USlab@NodeAllocator@Gu@physx@@V?$PxReflectionAllocator@USlab@NodeAllocator@Gu@physx@@@4@@physx@@QEAAXIAEBUSlab@NodeAllocator@Gu@2@@Z 0000000180163890 f i GuAABBTree.obj
 0001:00162910       ?resize@AABBTreeBounds@Gu@physx@@QEAAXII@Z 0000000180163910 f   GuAABBTree.obj
 0001:001629b0       ?shiftIndices@AABBTree@Gu@physx@@QEAAXI@Z 00000001801639b0 f   GuAABBTree.obj
 0001:001629d0       ?shiftOrigin@AABBTree@Gu@physx@@QEAAXAEBV?$PxVec3T@M@3@@Z 00000001801639d0 f   GuAABBTree.obj
 0001:00162d40       ?subdivide@AABBTreeBuildNode@Gu@physx@@QEAAXAEBVAABBTreeBuildParams@23@AEAUBuildStats@23@AEAVNodeAllocator@23@QEAI@Z 0000000180163d40 f   GuAABBTree.obj
 0001:00162f40       ?subdivideSAH@AABBTreeBuildNode@Gu@physx@@QEAAXAEBVAABBTreeBuildParams@23@AEAUSAH_Buffers@23@AEAUBuildStats@23@AEAVNodeAllocator@23@QEAI@Z 0000000180163f40 f   GuAABBTree.obj
 0001:00163030       ?traverseRuntimeNode@AABBTree@Gu@physx@@AEAAXAEAUBVHNode@23@AEBVAABBTreeMergeData@23@I@Z 0000000180164030 f   GuAABBTree.obj
 0001:00163170       ?initMap@AABBTreeUpdateMap@Gu@physx@@QEAAXIAEBVAABBTree@23@@Z 0000000180164170 f   GuAABBTreeUpdateMap.obj
 0001:00163300       ?invalidate@AABBTreeUpdateMap@Gu@physx@@QEAAXIIAEAVAABBTree@23@@Z 0000000180164300 f   GuAABBTreeUpdateMap.obj
 0001:001635a0       ?visualizeTree@@YAXAEAVPxRenderOutput@physx@@IPEBVAABBTree@Gu@2@@Z 00000001801645a0 f   GuSqInternal.obj
 0001:00163610       ?visualizeTree@@YAXAEAVPxRenderOutput@physx@@IPEBVBVH@Gu@2@@Z 0000000180164610 f   GuSqInternal.obj
 0001:00163680       ?visualizeTree@@YAXAEAVPxRenderOutput@physx@@IPEBVIncrementalAABBTree@Gu@2@PEAVDebugVizCallback@2@@Z 0000000180164680 f   GuSqInternal.obj
 0001:00163700       ??$PxSort@PEAXU?$PxLess@PEAX@physx@@V?$PxReflectionAllocator@UAABBTreeIndices@Gu@physx@@@2@@physx@@YAXPEAPEAXIAEBU?$PxLess@PEAX@0@AEBV?$PxReflectionAllocator@UAABBTreeIndices@Gu@physx@@@0@I@Z 0000000180164700 f i GuIncrementalAABBTree.obj
 0001:00163b60       ??$PxSort@PEAXU?$PxLess@PEAX@physx@@V?$PxReflectionAllocator@UIncrementalAABBTreeNodePair@Gu@physx@@@2@@physx@@YAXPEAPEAXIAEBU?$PxLess@PEAX@0@AEBV?$PxReflectionAllocator@UIncrementalAABBTreeNodePair@Gu@physx@@@0@I@Z 0000000180164b60 f i GuIncrementalAABBTree.obj
 0001:00163fc0       ??0IncrementalAABBTree@Gu@physx@@QEAA@XZ 0000000180164fc0 f   GuIncrementalAABBTree.obj
 0001:00164040       ??1?$PxPoolBase@UAABBTreeIndices@Gu@physx@@V?$PxReflectionAllocator@UAABBTreeIndices@Gu@physx@@@3@@physx@@QEAA@XZ 0000000180165040 f i GuIncrementalAABBTree.obj
 0001:001641a0       ??1?$PxPoolBase@UIncrementalAABBTreeNodePair@Gu@physx@@V?$PxReflectionAllocator@UIncrementalAABBTreeNodePair@Gu@physx@@@3@@physx@@QEAA@XZ 00000001801651a0 f i GuIncrementalAABBTree.obj
 0001:00164300       ??1IncrementalAABBTree@Gu@physx@@QEAA@XZ 0000000180165300 f   GuIncrementalAABBTree.obj
 0001:00164340       ?allocate@?$PxArray@PEAXV?$PxReflectionAllocator@UAABBTreeIndices@Gu@physx@@@physx@@@physx@@IEAAPEAPEAXI@Z 0000000180165340 f i GuIncrementalAABBTree.obj
 0001:001643d0       ?allocate@?$PxArray@PEAXV?$PxReflectionAllocator@UIncrementalAABBTreeNodePair@Gu@physx@@@physx@@@physx@@IEAAPEAPEAXI@Z 00000001801653d0 f i GuIncrementalAABBTree.obj
 0001:00164460       ?allocate@?$PxPoolBase@UAABBTreeIndices@Gu@physx@@V?$PxReflectionAllocator@UAABBTreeIndices@Gu@physx@@@3@@physx@@QEAAPEAUAABBTreeIndices@Gu@2@XZ 0000000180165460 f i GuIncrementalAABBTree.obj
 0001:00164550       ?allocate@?$PxPoolBase@UIncrementalAABBTreeNodePair@Gu@physx@@V?$PxReflectionAllocator@UIncrementalAABBTreeNodePair@Gu@physx@@@3@@physx@@QEAAPEAUIncrementalAABBTreeNodePair@Gu@2@XZ 0000000180165550 f i GuIncrementalAABBTree.obj
 0001:00164640       ?build@IncrementalAABBTree@Gu@physx@@QEAA_NAEBVAABBTreeBuildParams@23@AEAV?$PxArray@PEAVIncrementalAABBTreeNode@Gu@physx@@V?$PxReflectionAllocator@PEAVIncrementalAABBTreeNode@Gu@physx@@@3@@3@@Z 0000000180165640 f   GuIncrementalAABBTree.obj
 0001:00164820       ?clone@IncrementalAABBTree@Gu@physx@@AEAAXAEAV?$PxArray@PEAVIncrementalAABBTreeNode@Gu@physx@@V?$PxReflectionAllocator@PEAVIncrementalAABBTreeNode@Gu@physx@@@3@@3@PEBIPEAPEAVIncrementalAABBTreeNode@23@@Z 0000000180165820 f   GuIncrementalAABBTree.obj
 0001:00164d10       ?copy@IncrementalAABBTree@Gu@physx@@QEAAXAEBVBVH@23@AEAV?$PxArray@PEAVIncrementalAABBTreeNode@Gu@physx@@V?$PxReflectionAllocator@PEAVIncrementalAABBTreeNode@Gu@physx@@@3@@3@@Z 0000000180165d10 f   GuIncrementalAABBTree.obj
 0001:00164dc0       ?copyNode@IncrementalAABBTree@Gu@physx@@AEAAXAEAVIncrementalAABBTreeNode@23@AEBUBVHNode@23@PEBU523@PEAV423@PEBIAEAV?$PxArray@PEAVIncrementalAABBTreeNode@Gu@physx@@V?$PxReflectionAllocator@PEAVIncrementalAABBTreeNode@Gu@physx@@@3@@3@@Z 0000000180165dc0 f   GuIncrementalAABBTree.obj
 0001:00164f80       ?fixupTreeIndices@IncrementalAABBTree@Gu@physx@@QEAAXPEAVIncrementalAABBTreeNode@23@II@Z 0000000180165f80 f   GuIncrementalAABBTree.obj
 0001:00164fb0       ?getTreeLeafDepth@IncrementalAABBTree@Gu@physx@@QEAAIPEAVIncrementalAABBTreeNode@23@@Z 0000000180165fb0 f   GuIncrementalAABBTree.obj
 0001:00164fd0       ?growAndPushBack@?$PxArray@PEAVIncrementalAABBTreeNode@Gu@physx@@V?$PxReflectionAllocator@PEAVIncrementalAABBTreeNode@Gu@physx@@@3@@physx@@IEAAAEAPEAVIncrementalAABBTreeNode@Gu@2@AEBQEAV342@@Z 0000000180165fd0 f i GuIncrementalAABBTree.obj
 0001:001650f0       ?growAndPushBack@?$PxArray@PEAXV?$PxReflectionAllocator@UAABBTreeIndices@Gu@physx@@@physx@@@physx@@IEAAAEAPEAXAEBQEAX@Z 00000001801660f0 f i GuIncrementalAABBTree.obj
 0001:001651b0       ?growAndPushBack@?$PxArray@PEAXV?$PxReflectionAllocator@UIncrementalAABBTreeNodePair@Gu@physx@@@physx@@@physx@@IEAAAEAPEAXAEBQEAX@Z 00000001801661b0 f i GuIncrementalAABBTree.obj
 0001:00165270       ?hierarchyCheck@IncrementalAABBTree@Gu@physx@@QEAAXIPEBVPxBounds3@3@@Z 0000000180166270 f   GuIncrementalAABBTree.obj
 0001:001653c0       ?hierarchyCheck@IncrementalAABBTree@Gu@physx@@QEAAXPEBVPxBounds3@3@@Z 00000001801663c0 f   GuIncrementalAABBTree.obj
 0001:00165530       ?insert@IncrementalAABBTree@Gu@physx@@QEAAPEAVIncrementalAABBTreeNode@23@IPEBVPxBounds3@3@AEAV?$PxArray@PEAVIncrementalAABBTreeNode@Gu@physx@@V?$PxReflectionAllocator@PEAVIncrementalAABBTreeNode@Gu@physx@@@3@@3@@Z 0000000180166530 f   GuIncrementalAABBTree.obj
 0001:00165c10       ?recreate@?$PxArray@PEAXV?$PxReflectionAllocator@UAABBTreeIndices@Gu@physx@@@physx@@@physx@@IEAAXI@Z 0000000180166c10 f i GuIncrementalAABBTree.obj
 0001:00165cb0       ?recreate@?$PxArray@PEAXV?$PxReflectionAllocator@UIncrementalAABBTreeNodePair@Gu@physx@@@physx@@@physx@@IEAAXI@Z 0000000180166cb0 f i GuIncrementalAABBTree.obj
 0001:00165d50       ?release@IncrementalAABBTree@Gu@physx@@QEAAXXZ 0000000180166d50 f   GuIncrementalAABBTree.obj
 0001:00165d80       ?releaseNode@IncrementalAABBTree@Gu@physx@@AEAAXPEAVIncrementalAABBTreeNode@23@@Z 0000000180166d80 f   GuIncrementalAABBTree.obj
 0001:00165e10       ?remove@IncrementalAABBTree@Gu@physx@@QEAAPEAVIncrementalAABBTreeNode@23@PEAV423@IPEBVPxBounds3@3@@Z 0000000180166e10 f   GuIncrementalAABBTree.obj
 0001:00166130       ?rotateTree@IncrementalAABBTree@Gu@physx@@AEAAXPEAVIncrementalAABBTreeNode@23@AEAV?$PxArray@PEAVIncrementalAABBTreeNode@Gu@physx@@V?$PxReflectionAllocator@PEAVIncrementalAABBTreeNode@Gu@physx@@@3@@3@IPEBVPxBounds3@3@_N@Z 0000000180167130 f   GuIncrementalAABBTree.obj
 0001:00166a90       ?shiftOrigin@IncrementalAABBTree@Gu@physx@@QEAAXAEBV?$PxVec3T@M@3@@Z 0000000180167a90 f   GuIncrementalAABBTree.obj
 0001:00166af0       ?splitLeafNode@IncrementalAABBTree@Gu@physx@@AEAAPEAVIncrementalAABBTreeNode@23@PEAV423@IAEBT__m128@@1PEBVPxBounds3@3@@Z 0000000180167af0 f   GuIncrementalAABBTree.obj
 0001:00166de0       ?update@IncrementalAABBTree@Gu@physx@@QEAAPEAVIncrementalAABBTreeNode@23@PEAV423@IPEBVPxBounds3@3@AEAV?$PxArray@PEAVIncrementalAABBTreeNode@Gu@physx@@V?$PxReflectionAllocator@PEAVIncrementalAABBTreeNode@Gu@physx@@@3@@3@@Z 0000000180167de0 f   GuIncrementalAABBTree.obj
 0001:00166ea0       ?updateFast@IncrementalAABBTree@Gu@physx@@QEAAPEAVIncrementalAABBTreeNode@23@PEAV423@IPEBVPxBounds3@3@AEAV?$PxArray@PEAVIncrementalAABBTreeNode@Gu@physx@@V?$PxReflectionAllocator@PEAVIncrementalAABBTreeNode@Gu@physx@@@3@@3@@Z 0000000180167ea0 f   GuIncrementalAABBTree.obj
 0001:001670c0       ??0SAH_Buffers@Gu@physx@@QEAA@I@Z 00000001801680c0 f   GuSAH.obj
 0001:001671d0       ??1SAH_Buffers@Gu@physx@@QEAA@XZ 00000001801681d0 f   GuSAH.obj
 0001:001672a0       ?split@SAH_Buffers@Gu@physx@@QEAA_NAEAIIPEIBIPEIBVPxBounds3@3@PEIBV?$PxVec3T@M@3@@Z 00000001801682a0 f   GuSAH.obj
 0001:00167980       ??0BVH@Gu@physx@@QEAA@AEBUPxBVHInternalData@2@@Z 0000000180168980 f   GuBVH.obj
 0001:00167a40       ??0BVH@Gu@physx@@QEAA@PEAVMeshFactory@12@@Z 0000000180168a40 f   GuBVH.obj
 0001:00167ab0       ??0BVH@Gu@physx@@QEAA@PEAVMeshFactory@12@AEAVBVHData@12@@Z 0000000180168ab0 f   GuBVH.obj
 0001:00167b60       ??1BVHData@Gu@physx@@QEAA@XZ 0000000180168b60 f i GuBVH.obj
 0001:0016b350       ??_EBVH@Gu@physx@@WBA@EAAPEAXI@Z 000000018016c350 f i GuBVH.obj
 0001:0016b360       ??_EBVH@Gu@physx@@UEAAPEAXI@Z 000000018016c360 f i GuBVH.obj
 0001:0016b360       ??_GBVH@Gu@physx@@UEAAPEAXI@Z 000000018016c360 f i GuBVH.obj
 0001:0016b3f0       ??_ERefCountable@Cm@physx@@UEAAPEAXI@Z 000000018016c3f0 f i GuBVH.obj
 0001:0016b3f0       ??_GRefCountable@Cm@physx@@UEAAPEAXI@Z 000000018016c3f0 f i GuBVH.obj
 0001:0016b620       ?allocate@?$PxArray@PEBUBVHNode@Gu@physx@@V?$PxInlineAllocator@$0IAA@V?$PxReflectionAllocator@PEBUBVHNode@Gu@physx@@@physx@@@3@@physx@@IEAAPEAPEBUBVHNode@Gu@2@I@Z 000000018016c620 f i GuBVH.obj
 0001:0016b6e0       ?build@BVHData@Gu@physx@@QEAA_NIPEBXIMIW4BVHBuildStrategy@23@@Z 000000018016c6e0 f   GuBVH.obj
 0001:0016bae0       ?cull@BVH@Gu@physx@@UEBA_NIPEBVPxPlane@3@AEAUOverlapCallback@PxBVH@3@V?$PxFlags@W4Enum@PxGeometryQueryFlag@physx@@I@3@@Z 000000018016cae0 f   GuBVH.obj
 0001:0016c420       ?getConcreteTypeName@PxBVH@physx@@UEBAPEBDXZ 000000018016d420 f i GuBVH.obj
 0001:0016c430       ?init@BVH@Gu@physx@@QEAA_NIPEAVAABBTreeBounds@23@PEBXIW4BVHBuildStrategy@23@IM@Z 000000018016d430 f   GuBVH.obj
 0001:0016c840       ?isKindOf@PxBVH@physx@@MEBA_NPEBD@Z 000000018016d840 f i GuBVH.obj
 0001:0016c8b0       ?load@BVH@Gu@physx@@QEAA_NAEAVPxInputStream@3@@Z 000000018016d8b0 f   GuBVH.obj
 0001:0016ca40       ?onRefCountZero@BVH@Gu@physx@@UEAAXXZ 000000018016da40 f   GuBVH.obj
 0001:0016cb20       ?onRefCountZero@RefCountable@Cm@physx@@UEAAXXZ 000000018016db20 f i GuBVH.obj
 0001:0016cb40       ?overlap@BVH@Gu@physx@@QEBA_NAEBVShapeData@23@AEAUOverlapCallback@PxBVH@3@V?$PxFlags@W4Enum@PxGeometryQueryFlag@physx@@I@3@@Z 000000018016db40 f   GuBVH.obj
 0001:0016d370       ?overlap@BVH@Gu@physx@@UEBA_NAEBVPxGeometry@3@AEBV?$PxTransformT@M@3@AEAUOverlapCallback@PxBVH@3@V?$PxFlags@W4Enum@PxGeometryQueryFlag@physx@@I@3@@Z 000000018016e370 f   GuBVH.obj
 0001:0016d3d0       ?partialRefit@BVH@Gu@physx@@UEAAXXZ 000000018016e3d0 f   GuBVH.obj
 0001:0016d3e0       ?raycast@BVH@Gu@physx@@UEBA_NAEBV?$PxVec3T@M@3@0MAEAURaycastCallback@PxBVH@3@V?$PxFlags@W4Enum@PxGeometryQueryFlag@physx@@I@3@@Z 000000018016e3e0 f   GuBVH.obj
 0001:0016d510       ?recreate@?$PxArray@PEBUBVHNode@Gu@physx@@V?$PxInlineAllocator@$0IAA@V?$PxReflectionAllocator@PEBUBVHNode@Gu@physx@@@physx@@@3@@physx@@IEAAXI@Z 000000018016e510 f i GuBVH.obj
 0001:0016d5d0       ?refit@BVH@Gu@physx@@UEAAXXZ 000000018016e5d0 f   GuBVH.obj
 0001:0016d5e0       ?release@BVH@Gu@physx@@UEAAXXZ 000000018016e5e0 f   GuBVH.obj
 0001:0016d610       ?resizeUninitialized@?$PxArray@PEBUBVHNode@Gu@physx@@V?$PxInlineAllocator@$0IAA@V?$PxReflectionAllocator@PEBUBVHNode@Gu@physx@@@physx@@@3@@physx@@QEAAXI@Z 000000018016e610 f i GuBVH.obj
 0001:0016d660       ?save@BVHData@Gu@physx@@QEBA_NAEAVPxOutputStream@3@_N@Z 000000018016e660 f   GuBVH.obj
 0001:0016d7d0       ?sweep@BVH@Gu@physx@@QEBA_NAEBVShapeData@23@AEBV?$PxVec3T@M@3@MAEAURaycastCallback@PxBVH@3@V?$PxFlags@W4Enum@PxGeometryQueryFlag@physx@@I@3@@Z 000000018016e7d0 f   GuBVH.obj
 0001:0016d9c0       ?sweep@BVH@Gu@physx@@UEBA_NAEBVPxGeometry@3@AEBV?$PxTransformT@M@3@AEBV?$PxVec3T@M@3@MAEAURaycastCallback@PxBVH@3@V?$PxFlags@W4Enum@PxGeometryQueryFlag@physx@@I@3@@Z 000000018016e9c0 f   GuBVH.obj
 0001:0016da40       ?traverse@BVH@Gu@physx@@UEBA_NAEAUTraversalCallback@PxBVH@3@@Z 000000018016ea40 f   GuBVH.obj
 0001:0016dbb0       ?updateBounds@BVH@Gu@physx@@UEAA_NIAEBVPxBounds3@3@@Z 000000018016ebb0 f   GuBVH.obj
 0001:0016dc60       ?updateBoundsInternal@BVH@Gu@physx@@QEAA_NIAEBVPxBounds3@3@@Z 000000018016ec60 f   GuBVH.obj
 0001:0016dd10       PxFindOverlap              000000018016ed10 f   GuBVH.obj
 0001:0016de00       PxGetBVHInternalData       000000018016ee00 f   GuBVH.obj
 0001:0016de40       ??0IncrementalAABBPrunerCore@Gu@physx@@QEAA@PEBVPruningPool@12@@Z 000000018016ee40 f   GuIncrementalAABBPrunerCore.obj
 0001:0016df50       ??1IncrementalAABBPrunerCore@Gu@physx@@QEAA@XZ 000000018016ef50 f   GuIncrementalAABBPrunerCore.obj
 0001:0016e0c0       ??R?$AABBTreeOverlap@$00U?$OBBAABBTests@$00@Gu@physx@@VIncrementalAABBTree@23@VIncrementalAABBTreeNode@23@UOverlapCallbackAdapter@23@@Gu@physx@@QEAA_NAEBVAABBTreeBounds@12@AEBVIncrementalAABBTree@12@AEBU?$OBBAABBTests@$00@12@AEAUOverlapCallbackAdapter@12@@Z 000000018016f0c0 f i GuIncrementalAABBPrunerCore.obj
 0001:0016e660       ??R?$AABBTreeOverlap@$00UAABBAABBTest@Gu@physx@@VIncrementalAABBTree@23@VIncrementalAABBTreeNode@23@UOverlapCallbackAdapter@23@@Gu@physx@@QEAA_NAEBVAABBTreeBounds@12@AEBVIncrementalAABBTree@12@AEBUAABBAABBTest@12@AEAUOverlapCallbackAdapter@12@@Z 000000018016f660 f i GuIncrementalAABBPrunerCore.obj
 0001:0016e8c0       ??R?$AABBTreeOverlap@$00UCapsuleAABBTest@Gu@physx@@VIncrementalAABBTree@23@VIncrementalAABBTreeNode@23@UOverlapCallbackAdapter@23@@Gu@physx@@QEAA_NAEBVAABBTreeBounds@12@AEBVIncrementalAABBTree@12@AEBUCapsuleAABBTest@12@AEAUOverlapCallbackAdapter@12@@Z 000000018016f8c0 f i GuIncrementalAABBPrunerCore.obj
 0001:0016ec00       ??R?$AABBTreeRaycast@$00$00VIncrementalAABBTree@Gu@physx@@VIncrementalAABBTreeNode@23@URaycastCallbackAdapter@23@@Gu@physx@@QEAA_NAEBVAABBTreeBounds@12@AEBVIncrementalAABBTree@12@AEBV?$PxVec3T@M@2@2AEAM2AEAURaycastCallbackAdapter@12@@Z 000000018016fc00 f i GuIncrementalAABBPrunerCore.obj
 0001:0016f2c0       ??R?$AABBTreeRaycast@$0A@$00VIncrementalAABBTree@Gu@physx@@VIncrementalAABBTreeNode@23@URaycastCallbackAdapter@23@@Gu@physx@@QEAA_NAEBVAABBTreeBounds@12@AEBVIncrementalAABBTree@12@AEBV?$PxVec3T@M@2@2AEAM2AEAURaycastCallbackAdapter@12@@Z 00000001801702c0 f i GuIncrementalAABBPrunerCore.obj
 0001:0016f910       ?addObject@IncrementalAABBPrunerCore@Gu@physx@@QEAA_NII@Z 0000000180170910 f   GuIncrementalAABBPrunerCore.obj
 0001:0016fa00       ?allocate@?$PxArray@PEBVIncrementalAABBTreeNode@Gu@physx@@V?$PxInlineAllocator@$0IAA@V?$PxReflectionAllocator@PEBVIncrementalAABBTreeNode@Gu@physx@@@physx@@@3@@physx@@IEAAPEAPEBVIncrementalAABBTreeNode@Gu@2@I@Z 0000000180170a00 f i GuIncrementalAABBPrunerCore.obj
 0001:0016fac0       ?clear@?$PxHashMapBase@IPEAVIncrementalAABBTreeNode@Gu@physx@@U?$PxHash@I@3@VPxAllocator@3@@physx@@QEAAXXZ 0000000180170ac0 f i GuIncrementalAABBPrunerCore.obj
 0001:0016fac0       ?clear@?$PxHashMapBase@UPrunerPayload@Gu@physx@@UExtendedBucketPrunerData@23@UExtendedBucketPrunerHash@23@VPxAllocator@3@@physx@@QEAAXXZ 0000000180170ac0 f i GuExtendedBucketPruner.obj
 0001:0016fb50       ?create@?$PxHashBase@V?$PxPair@$$CBIPEAVIncrementalAABBTreeNode@Gu@physx@@@physx@@IU?$PxHash@I@2@UGetKey@?$PxHashMapBase@IPEAVIncrementalAABBTreeNode@Gu@physx@@U?$PxHash@I@3@VPxAllocator@3@@2@VPxAllocator@2@$00@physx@@QEAAPEAV?$PxPair@$$CBIPEAVIncrementalAABBTreeNode@Gu@physx@@@2@AEBIAEA_N@Z 0000000180170b50 f i GuIncrementalAABBPrunerCore.obj
 0001:0016fca0       ?erase@?$PxHashBase@V?$PxPair@$$CBIPEAVIncrementalAABBTreeNode@Gu@physx@@@physx@@IU?$PxHash@I@2@UGetKey@?$PxHashMapBase@IPEAVIncrementalAABBTreeNode@Gu@physx@@U?$PxHash@I@3@VPxAllocator@3@@2@VPxAllocator@2@$00@physx@@QEAA_NAEBIAEAV?$PxPair@$$CBIPEAVIncrementalAABBTreeNode@Gu@physx@@@2@@Z 0000000180170ca0 f i GuIncrementalAABBPrunerCore.obj
 0001:0016fe10       ?getCurrentWorldBoxes@PruningPool@Gu@physx@@QEAAPEAVPxBounds3@3@XZ 0000000180170e10 f i GuIncrementalAABBPrunerCore.obj
 0001:0016fe10       ?getCurrentWorldBoxes@PruningPool@Gu@physx@@QEBAPEBVPxBounds3@3@XZ 0000000180170e10 f i GuIncrementalAABBPrunerCore.obj
 0001:0016fe10       ?getMesh@CollisionTetrahedronMeshData@Gu@physx@@UEAAPEAVPxTetrahedronMeshData@3@XZ 0000000180170e10 f i GuCookingTetrahedronMesh.obj
 0001:0016fe10       ?getMesh@CollisionTetrahedronMeshData@Gu@physx@@UEBAPEBVPxTetrahedronMeshData@3@XZ 0000000180170e10 f i GuCookingTetrahedronMesh.obj
 0001:0016fe10       ?getMesh@SimulationTetrahedronMeshData@Gu@physx@@UEAAPEAVPxTetrahedronMeshData@3@XZ 0000000180170e10 f i GuCookingTetrahedronMesh.obj
 0001:0016fe20       ?getGlobalBounds@IncrementalAABBPrunerCore@Gu@physx@@QEBAXAEAVPxBounds3@3@@Z 0000000180170e20 f   GuIncrementalAABBPrunerCore.obj
 0001:0016ff50       ?getIndex@PruningPool@Gu@physx@@QEBAII@Z 0000000180170f50 f i GuIncrementalAABBPrunerCore.obj
 0001:0016ff60       ?getPayloadData@PruningPool@Gu@physx@@QEBAAEBUPrunerPayload@23@IPEAUPrunerPayloadData@23@@Z 0000000180170f60 f i GuIncrementalAABBPrunerCore.obj
 0001:0016ffb0       ?overlap@IncrementalAABBPrunerCore@Gu@physx@@QEBA_NAEBVShapeData@23@AEAUPrunerOverlapCallback@23@@Z 0000000180170fb0 f   GuIncrementalAABBPrunerCore.obj
 0001:00170b00       ?raycast@IncrementalAABBPrunerCore@Gu@physx@@QEBA_NAEBV?$PxVec3T@M@3@0AEAMAEAUPrunerRaycastCallback@23@@Z 0000000180171b00 f   GuIncrementalAABBPrunerCore.obj
 0001:00170be0       ?recreate@?$PxArray@PEAVIncrementalAABBTreeNode@Gu@physx@@V?$PxReflectionAllocator@PEAVIncrementalAABBTreeNode@Gu@physx@@@3@@physx@@IEAAXI@Z 0000000180171be0 f i GuIncrementalAABBPrunerCore.obj
 0001:00170cd0       ?recreate@?$PxArray@PEBVIncrementalAABBTreeNode@Gu@physx@@V?$PxInlineAllocator@$0IAA@V?$PxReflectionAllocator@PEBVIncrementalAABBTreeNode@Gu@physx@@@physx@@@3@@physx@@IEAAXI@Z 0000000180171cd0 f i GuIncrementalAABBPrunerCore.obj
 0001:00170d90       ?release@IncrementalAABBPrunerCore@Gu@physx@@QEAAXXZ 0000000180171d90 f   GuIncrementalAABBPrunerCore.obj
 0001:00170e90       ?removeMarkedObjects@IncrementalAABBPrunerCore@Gu@physx@@QEAAII@Z 0000000180171e90 f   GuIncrementalAABBPrunerCore.obj
 0001:00170ef0       ?removeObject@IncrementalAABBPrunerCore@Gu@physx@@QEAA_NIIAEAI@Z 0000000180171ef0 f   GuIncrementalAABBPrunerCore.obj
 0001:00171100       ?reserveInternal@?$PxHashBase@V?$PxPair@$$CBIPEAVIncrementalAABBTreeNode@Gu@physx@@@physx@@IU?$PxHash@I@2@UGetKey@?$PxHashMapBase@IPEAVIncrementalAABBTreeNode@Gu@physx@@U?$PxHash@I@3@VPxAllocator@3@@2@VPxAllocator@2@$00@physx@@AEAAXI@Z 0000000180172100 f i GuIncrementalAABBPrunerCore.obj
 0001:001712c0       ?resizeUninitialized@?$PxArray@PEBVIncrementalAABBTreeNode@Gu@physx@@V?$PxInlineAllocator@$0IAA@V?$PxReflectionAllocator@PEBVIncrementalAABBTreeNode@Gu@physx@@@physx@@@3@@physx@@QEAAXI@Z 00000001801722c0 f i GuIncrementalAABBPrunerCore.obj
 0001:00171310       ?setTransform@PruningPool@Gu@physx@@QEAA_NIAEBV?$PxTransformT@M@3@@Z 0000000180172310 f i GuIncrementalAABBPrunerCore.obj
 0001:00171370       ?shiftOrigin@IncrementalAABBPrunerCore@Gu@physx@@QEAAXAEBV?$PxVec3T@M@3@@Z 0000000180172370 f   GuIncrementalAABBPrunerCore.obj
 0001:001713c0       ?swapIndex@IncrementalAABBPrunerCore@Gu@physx@@QEAAXII@Z 00000001801723c0 f   GuIncrementalAABBPrunerCore.obj
 0001:001714a0       ?sweep@IncrementalAABBPrunerCore@Gu@physx@@QEBA_NAEBVShapeData@23@AEBV?$PxVec3T@M@3@AEAMAEAUPrunerRaycastCallback@23@@Z 00000001801724a0 f   GuIncrementalAABBPrunerCore.obj
 0001:00171650       ?updateMapping@IncrementalAABBPrunerCore@Gu@physx@@AEAAXAEAV?$PxHashMap@IPEAVIncrementalAABBTreeNode@Gu@physx@@U?$PxHash@I@3@VPxAllocator@3@@3@IPEAVIncrementalAABBTreeNode@23@@Z 0000000180172650 f   GuIncrementalAABBPrunerCore.obj
 0001:001717a0       ?updateObject@IncrementalAABBPrunerCore@Gu@physx@@QEAA_NI@Z 00000001801727a0 f   GuIncrementalAABBPrunerCore.obj
 0001:00171940       ?visualize@IncrementalAABBPrunerCore@Gu@physx@@QEBAXAEAVPxRenderOutput@3@I@Z 0000000180172940 f   GuIncrementalAABBPrunerCore.obj
 0001:001719a0       ??0IncrementalAABBPruner@Gu@physx@@QEAA@I_K@Z 00000001801729a0 f   GuIncrementalAABBPruner.obj
 0001:00171a50       ??R?$AABBTreeOverlap@$00USphereAABBTest@Gu@physx@@VIncrementalAABBTree@23@VIncrementalAABBTreeNode@23@UOverlapCallbackAdapter@23@@Gu@physx@@QEAA_NAEBVAABBTreeBounds@12@AEBVIncrementalAABBTree@12@AEBUSphereAABBTest@12@AEAUOverlapCallbackAdapter@12@@Z 0000000180172a50 f i GuIncrementalAABBPruner.obj
 0001:00171d20       ??_EBasePruner@Gu@physx@@UEAAPEAXI@Z 0000000180172d20 f i GuIncrementalAABBPruner.obj
 0001:00171d20       ??_GBasePruner@Gu@physx@@UEAAPEAXI@Z 0000000180172d20 f i GuIncrementalAABBPruner.obj
 0001:00171d70       ??_EIncrementalAABBPruner@Gu@physx@@UEAAPEAXI@Z 0000000180172d70 f i GuIncrementalAABBPruner.obj
 0001:00171d70       ??_GIncrementalAABBPruner@Gu@physx@@UEAAPEAXI@Z 0000000180172d70 f i GuIncrementalAABBPruner.obj
 0001:00171e80       ?addObjects@IncrementalAABBPruner@Gu@physx@@UEAA_NPEAIPEBVPxBounds3@3@PEBUPrunerPayload@23@PEBV?$PxTransformT@M@3@I_N@Z 0000000180172e80 f   GuIncrementalAABBPruner.obj
 0001:00172020       ?commit@IncrementalAABBPruner@Gu@physx@@UEAAXXZ 0000000180173020 f   GuIncrementalAABBPruner.obj
 0001:00172170       ?getGlobalBounds@IncrementalAABBPruner@Gu@physx@@UEBAXAEAVPxBounds3@3@@Z 0000000180173170 f   GuIncrementalAABBPruner.obj
 0001:001721e0       ?getPayloadData@IncrementalAABBPruner@Gu@physx@@UEBAAEBUPrunerPayload@23@IPEAUPrunerPayloadData@23@@Z 00000001801731e0 f i GuIncrementalAABBPruner.obj
 0001:00172230       ?overlap@IncrementalAABBPruner@Gu@physx@@UEBA_NAEBVShapeData@23@AEAUPrunerOverlapCallback@23@@Z 0000000180173230 f   GuIncrementalAABBPruner.obj
 0001:00172940       ?preallocate@IncrementalAABBPruner@Gu@physx@@UEAAXI@Z 0000000180173940 f i GuIncrementalAABBPruner.obj
 0001:00172950       ?purge@IncrementalAABBPruner@Gu@physx@@UEAAXXZ 0000000180173950 f   GuIncrementalAABBPruner.obj
 0001:001729a0       ?raycast@IncrementalAABBPruner@Gu@physx@@UEBA_NAEBV?$PxVec3T@M@3@0AEAMAEAUPrunerRaycastCallback@23@@Z 00000001801739a0 f   GuIncrementalAABBPruner.obj
 0001:00172a20       ?removeObjects@IncrementalAABBPruner@Gu@physx@@UEAAXPEBIIPEAUPrunerPayloadRemovalCallback@23@@Z 0000000180173a20 f   GuIncrementalAABBPruner.obj
 0001:00172b70       ?resize@?$PxArray@PEAVIncrementalAABBTreeNode@Gu@physx@@V?$PxReflectionAllocator@PEAVIncrementalAABBTreeNode@Gu@physx@@@3@@physx@@QEAAXIAEBQEAVIncrementalAABBTreeNode@Gu@2@@Z 0000000180173b70 f i GuIncrementalAABBPruner.obj
 0001:00172c30       ?resizeUninitialized@?$PxArray@PEAVIncrementalAABBTreeNode@Gu@physx@@V?$PxReflectionAllocator@PEAVIncrementalAABBTreeNode@Gu@physx@@@3@@physx@@QEAAXI@Z 0000000180173c30 f i GuIncrementalAABBPruner.obj
 0001:00172c70       ?setTransform@IncrementalAABBPruner@Gu@physx@@UEAA_NIAEBV?$PxTransformT@M@3@@Z 0000000180173c70 f i GuIncrementalAABBPruner.obj
 0001:00172cd0       ?shiftOrigin@IncrementalAABBPruner@Gu@physx@@UEAAXAEBV?$PxVec3T@M@3@@Z 0000000180173cd0 f   GuIncrementalAABBPruner.obj
 0001:00172d10       ?sweep@IncrementalAABBPruner@Gu@physx@@UEBA_NAEBVShapeData@23@AEBV?$PxVec3T@M@3@AEAMAEAUPrunerRaycastCallback@23@@Z 0000000180173d10 f   GuIncrementalAABBPruner.obj
 0001:00172e30       ?updateObjects@IncrementalAABBPruner@Gu@physx@@UEAAXPEBIIM0PEBVPxBounds3@3@PEBUPxTransformPadded@3@@Z 0000000180173e30 f   GuIncrementalAABBPruner.obj
 0001:00173000       ?visualize@IncrementalAABBPruner@Gu@physx@@UEBAXAEAVPxRenderOutput@3@II@Z 0000000180174000 f   GuIncrementalAABBPruner.obj
 0001:001731f0       ??0PruningPool@Gu@physx@@QEAA@_KW4TransformCacheMode@12@@Z 00000001801741f0 f   GuPruningPool.obj
 0001:00173220       ??1PruningPool@Gu@physx@@QEAA@XZ 0000000180174220 f   GuPruningPool.obj
 0001:001732f0       ?addObjects@PruningPool@Gu@physx@@QEAAIPEAIPEBVPxBounds3@3@PEBUPrunerPayload@23@PEBV?$PxTransformT@M@3@I@Z 00000001801742f0 f   GuPruningPool.obj
 0001:001734a0       ?preallocate@PruningPool@Gu@physx@@QEAAXI@Z 00000001801744a0 f   GuPruningPool.obj
 0001:001734b0       ?removeObject@PruningPool@Gu@physx@@QEAAIIPEAUPrunerPayloadRemovalCallback@23@@Z 00000001801744b0 f   GuPruningPool.obj
 0001:001735f0       ?resize@PruningPool@Gu@physx@@QEAA_NI@Z 00000001801745f0 f   GuPruningPool.obj
 0001:001738d0       ?shiftOrigin@PruningPool@Gu@physx@@QEAAXAEBV?$PxVec3T@M@3@@Z 00000001801748d0 f   GuPruningPool.obj
 0001:00173ca0       ?updateAndInflateBounds@PruningPool@Gu@physx@@QEAAXPEBI0PEBVPxBounds3@3@PEBUPxTransformPadded@3@IM@Z 0000000180174ca0 f   GuPruningPool.obj
 0001:001756c0       ??0BucketPruner@Gu@physx@@QEAA@_K@Z 00000001801766c0 f   GuBucketPruner.obj
 0001:00175710       ??0BucketPrunerCore@Gu@physx@@QEAA@_N@Z 0000000180176710 f   GuBucketPruner.obj
 0001:00175a90       ??1BucketPrunerCore@Gu@physx@@QEAA@XZ 0000000180176a90 f   GuBucketPruner.obj
 0001:00175ab0       ??R?$BucketPrunerOverlapTraversal@UBucketPrunerAABBAABBTest@@$00@@QEBA_NAEBVBucketPrunerCore@Gu@physx@@AEBUBucketPrunerAABBAABBTest@@AEAUPrunerOverlapCallback@23@AEBVPxBounds3@3@@Z 0000000180176ab0 f i GuBucketPruner.obj
 0001:00176070       ??R?$BucketPrunerOverlapTraversal@UOBBAABBTest_SIMD@@$0A@@@QEBA_NAEBVBucketPrunerCore@Gu@physx@@AEBUOBBAABBTest_SIMD@@AEAUPrunerOverlapCallback@23@AEBVPxBounds3@3@@Z 0000000180177070 f i GuBucketPruner.obj
 0001:001768f0       ??R?$BucketPrunerOverlapTraversal@USphereAABBTest_SIMD@@$00@@QEBA_NAEBVBucketPrunerCore@Gu@physx@@AEBUSphereAABBTest_SIMD@@AEAUPrunerOverlapCallback@23@AEBVPxBounds3@3@@Z 00000001801778f0 f i GuBucketPruner.obj
 0001:00176ed0       ??_FBucketPrunerCore@Gu@physx@@QEAAXXZ 0000000180177ed0 f i GuBucketPruner.obj
 0001:00176ee0       ??_EBucketPruner@Gu@physx@@UEAAPEAXI@Z 0000000180177ee0 f i GuBucketPruner.obj
 0001:00176ee0       ??_GBucketPruner@Gu@physx@@UEAAPEAXI@Z 0000000180177ee0 f i GuBucketPruner.obj
 0001:00176f80       ?addObject@BucketPrunerCore@Gu@physx@@QEAA_NAEBUPrunerPayload@23@AEBVPxBounds3@3@AEBV?$PxTransformT@M@3@I@Z 0000000180177f80 f   GuBucketPruner.obj
 0001:00177290       ?addObjects@BucketPruner@Gu@physx@@UEAA_NPEAIPEBVPxBounds3@3@PEBUPrunerPayload@23@PEBV?$PxTransformT@M@3@I_N@Z 0000000180178290 f   GuBucketPruner.obj
 0001:00177320       ?addPair@BucketPrunerMap@Gu@physx@@QEAAPEAUBucketPrunerPair@23@AEBUPrunerPayload@23@II@Z 0000000180178320 f   GuBucketPruner.obj
 0001:00177520       ?allocateSortedMemory@BucketPrunerCore@Gu@physx@@AEAAXI@Z 0000000180178520 f   GuBucketPruner.obj
 0001:001776e0       ?classifyBoxes@BucketPrunerCore@Gu@physx@@AEAAXXZ 00000001801786e0 f   GuBucketPruner.obj
 0001:00177ed0       ?classifyBoxes@BucketPrunerNode@Gu@physx@@QEAAXMMIPEIAUBucketBox@23@PEIBUPrunerPayload@23@PEIBV?$PxTransformT@M@3@0PEIAU523@PEIAV63@_NI@Z 0000000180178ed0 f   GuBucketPruner.obj
 0001:00178750       ?build@CompanionPrunerBucket@@UEAAXXZ 0000000180179750 f   GuSecondaryPruner.obj
 0001:00178750       ?commit@BucketPruner@Gu@physx@@UEAAXXZ 0000000180179750 f   GuBucketPruner.obj
 0001:00178760       ?findPair@BucketPrunerMap@Gu@physx@@QEBAPEBUBucketPrunerPair@23@AEBUPrunerPayload@23@@Z 0000000180179760 f   GuBucketPruner.obj
 0001:00178b50       ?getGlobalBounds@BucketPruner@Gu@physx@@UEBAXAEAVPxBounds3@3@@Z 0000000180179b50 f   GuBucketPruner.obj
 0001:00178bd0       ?getGlobalBounds@BucketPrunerCore@Gu@physx@@QEBAXAEAVPxBounds3@3@@Z 0000000180179bd0 f   GuBucketPruner.obj
 0001:00178c50       ?getPayloadData@BucketPruner@Gu@physx@@UEBAAEBUPrunerPayload@23@IPEAUPrunerPayloadData@23@@Z 0000000180179c50 f i GuBucketPruner.obj
 0001:00178cb0       ?overlap@BucketPruner@Gu@physx@@UEBA_NAEBVShapeData@23@AEAUPrunerOverlapCallback@23@@Z 0000000180179cb0 f   GuBucketPruner.obj
 0001:00178cd0       ?overlap@BucketPrunerCore@Gu@physx@@QEBA_NAEBVShapeData@23@AEAUPrunerOverlapCallback@23@@Z 0000000180179cd0 f   GuBucketPruner.obj
 0001:00178fb0       ?preallocate@BucketPruner@Gu@physx@@UEAAXI@Z 0000000180179fb0 f i GuBucketPruner.obj
 0001:00179190       ?purge@BucketPrunerMap@Gu@physx@@QEAAXXZ 000000018017a190 f   GuBucketPruner.obj
 0001:00179220       ?raycast@BucketPruner@Gu@physx@@UEBA_NAEBV?$PxVec3T@M@3@0AEAMAEAUPrunerRaycastCallback@23@@Z 000000018017a220 f   GuBucketPruner.obj
 0001:00179270       ?raycast@BucketPrunerCore@Gu@physx@@QEBA_NAEBV?$PxVec3T@M@3@0AEAMAEAUPrunerRaycastCallback@23@@Z 000000018017a270 f   GuBucketPruner.obj
 0001:001792b0       ?reallocPairs@BucketPrunerMap@Gu@physx@@QEAAXXZ 000000018017a2b0 f   GuBucketPruner.obj
 0001:001794f0       ?release@BucketPrunerCore@Gu@physx@@QEAAXXZ 000000018017a4f0 f   GuBucketPruner.obj
 0001:00179630       ?removeMarkedObjects@BucketPrunerCore@Gu@physx@@QEAAII@Z 000000018017a630 f   GuBucketPruner.obj
 0001:00179a00       ?removeObject@BucketPrunerCore@Gu@physx@@QEAA_NAEBUPrunerPayload@23@AEAI@Z 000000018017aa00 f   GuBucketPruner.obj
 0001:00179cc0       ?removeObjects@BucketPruner@Gu@physx@@UEAAXPEBIIPEAUPrunerPayloadRemovalCallback@23@@Z 000000018017acc0 f   GuBucketPruner.obj
 0001:00179d70       ?removePair@BucketPrunerMap@Gu@physx@@QEAA_NAEBUPrunerPayload@23@AEAI1@Z 000000018017ad70 f   GuBucketPruner.obj
 0001:00179ef0       ?removePairInternal@BucketPrunerMap@Gu@physx@@QEAAXAEBUPrunerPayload@23@II@Z 000000018017aef0 f   GuBucketPruner.obj
 0001:0017a080       ?resizeCore@BucketPrunerCore@Gu@physx@@AEAAXXZ 000000018017b080 f   GuBucketPruner.obj
 0001:0017a2d0       ?setTransform@BucketPruner@Gu@physx@@UEAA_NIAEBV?$PxTransformT@M@3@@Z 000000018017b2d0 f i GuBucketPruner.obj
 0001:0017a330       ?shiftOrigin@BucketPruner@Gu@physx@@UEAAXAEBV?$PxVec3T@M@3@@Z 000000018017b330 f   GuBucketPruner.obj
 0001:0017a330       ?shiftOrigin@CompanionPrunerBucket@@UEAAXAEBV?$PxVec3T@M@physx@@@Z 000000018017b330 f   GuSecondaryPruner.obj
 0001:0017a340       ?shiftOrigin@BucketPrunerCore@Gu@physx@@QEAAXAEBV?$PxVec3T@M@3@@Z 000000018017b340 f   GuBucketPruner.obj
 0001:0017b170       ?sweep@BucketPruner@Gu@physx@@UEBA_NAEBVShapeData@23@AEBV?$PxVec3T@M@3@AEAMAEAUPrunerRaycastCallback@23@@Z 000000018017c170 f   GuBucketPruner.obj
 0001:0017b190       ?sweep@BucketPrunerCore@Gu@physx@@QEBA_NAEBVShapeData@23@AEBV?$PxVec3T@M@3@AEAMAEAUPrunerRaycastCallback@23@@Z 000000018017c190 f   GuBucketPruner.obj
 0001:0017b260       ?updateObject@BucketPrunerCore@Gu@physx@@QEAA_NAEBVPxBounds3@3@AEBUPrunerPayload@23@AEBV?$PxTransformT@M@3@@Z 000000018017c260 f   GuBucketPruner.obj
 0001:0017b2c0       ?updateObjects@BucketPruner@Gu@physx@@UEAAXPEBIIM0PEBVPxBounds3@3@PEBUPxTransformPadded@3@@Z 000000018017c2c0 f   GuBucketPruner.obj
 0001:0017b3d0       ?visualize@BucketPruner@Gu@physx@@UEBAXAEAVPxRenderOutput@3@II@Z 000000018017c3d0 f   GuBucketPruner.obj
 0001:0017b3d0       ?visualize@CompanionPrunerBucket@@UEBAXAEAVPxRenderOutput@physx@@I@Z 000000018017c3d0 f   GuSecondaryPruner.obj
 0001:0017b3e0       ?visualize@BucketPrunerCore@Gu@physx@@QEBAXAEAVPxRenderOutput@3@I@Z 000000018017c3e0 f   GuBucketPruner.obj
 0001:0017b700       ?addObject@MaverickNode@Gu@physx@@QEAA_NAEBUPrunerPayload@23@IAEBVPxBounds3@3@AEBV?$PxTransformT@M@3@I@Z 000000018017c700 f   GuMaverickNode.obj
 0001:0017b7e0       ?removeMarkedObjects@MaverickNode@Gu@physx@@QEAAII@Z 000000018017c7e0 f   GuMaverickNode.obj
 0001:0017b970       ?removeObject@MaverickNode@Gu@physx@@QEAA_NIAEAI@Z 000000018017c970 f   GuMaverickNode.obj
 0001:0017bb00       ?shiftOrigin@MaverickNode@Gu@physx@@QEAAXAEBV?$PxVec3T@M@3@@Z 000000018017cb00 f   GuMaverickNode.obj
 0001:0017bbf0       ?updateObject@MaverickNode@Gu@physx@@QEAA_NIAEBVPxBounds3@3@AEBV?$PxTransformT@M@3@@Z 000000018017cbf0 f   GuMaverickNode.obj
 0001:0017bcd0       ??0ExtendedBucketPruner@Gu@physx@@QEAA@_KW4CompanionPrunerType@12@PEBVPruningPool@12@@Z 000000018017ccd0 f   GuExtendedBucketPruner.obj
 0001:0017bf00       ??1ExtendedBucketPruner@Gu@physx@@QEAA@XZ 000000018017cf00 f   GuExtendedBucketPruner.obj
 0001:0017c070       ??R?$AABBTreeOverlap@$00U?$OBBAABBTests@$00@Gu@physx@@VAABBTree@23@UBVHNode@23@U?$MainTreeOverlapPrunerCallback@U?$OBBAABBTests@$00@Gu@physx@@@@@Gu@physx@@QEAA_NAEBVAABBTreeBounds@12@AEBVAABBTree@12@AEBU?$OBBAABBTests@$00@12@AEAU?$MainTreeOverlapPrunerCallback@U?$OBBAABBTests@$00@Gu@physx@@@@@Z 000000018017d070 f i GuExtendedBucketPruner.obj
 0001:0017c650       ??R?$AABBTreeOverlap@$00U?$OBBAABBTests@$00@Gu@physx@@VAABBTree@23@UBVHNode@23@UOverlapCallbackAdapter@23@@Gu@physx@@QEAA_NAEBVAABBTreeBounds@12@AEBVAABBTree@12@AEBU?$OBBAABBTests@$00@12@AEAUOverlapCallbackAdapter@12@@Z 000000018017d650 f i GuExtendedBucketPruner.obj
 0001:0017cc10       ??R?$AABBTreeOverlap@$00UAABBAABBTest@Gu@physx@@VAABBTree@23@UBVHNode@23@U?$MainTreeOverlapPrunerCallback@UAABBAABBTest@Gu@physx@@@@@Gu@physx@@QEAA_NAEBVAABBTreeBounds@12@AEBVAABBTree@12@AEBUAABBAABBTest@12@AEAU?$MainTreeOverlapPrunerCallback@UAABBAABBTest@Gu@physx@@@@@Z 000000018017dc10 f i GuExtendedBucketPruner.obj
 0001:0017ceb0       ??R?$AABBTreeOverlap@$00UAABBAABBTest@Gu@physx@@VAABBTree@23@UBVHNode@23@UOverlapCallbackAdapter@23@@Gu@physx@@QEAA_NAEBVAABBTreeBounds@12@AEBVAABBTree@12@AEBUAABBAABBTest@12@AEAUOverlapCallbackAdapter@12@@Z 000000018017deb0 f i GuExtendedBucketPruner.obj
 0001:0017d140       ??R?$AABBTreeOverlap@$00UCapsuleAABBTest@Gu@physx@@VAABBTree@23@UBVHNode@23@U?$MainTreeOverlapPrunerCallback@UCapsuleAABBTest@Gu@physx@@@@@Gu@physx@@QEAA_NAEBVAABBTreeBounds@12@AEBVAABBTree@12@AEBUCapsuleAABBTest@12@AEAU?$MainTreeOverlapPrunerCallback@UCapsuleAABBTest@Gu@physx@@@@@Z 000000018017e140 f i GuExtendedBucketPruner.obj
 0001:0017d4e0       ??R?$AABBTreeOverlap@$00UCapsuleAABBTest@Gu@physx@@VAABBTree@23@UBVHNode@23@UOverlapCallbackAdapter@23@@Gu@physx@@QEAA_NAEBVAABBTreeBounds@12@AEBVAABBTree@12@AEBUCapsuleAABBTest@12@AEAUOverlapCallbackAdapter@12@@Z 000000018017e4e0 f i GuExtendedBucketPruner.obj
 0001:0017d870       ??R?$AABBTreeOverlap@$00USphereAABBTest@Gu@physx@@VAABBTree@23@UBVHNode@23@U?$MainTreeOverlapPrunerCallback@USphereAABBTest@Gu@physx@@@@@Gu@physx@@QEAA_NAEBVAABBTreeBounds@12@AEBVAABBTree@12@AEBUSphereAABBTest@12@AEAU?$MainTreeOverlapPrunerCallback@USphereAABBTest@Gu@physx@@@@@Z 000000018017e870 f i GuExtendedBucketPruner.obj
 0001:0017db80       ??R?$AABBTreeOverlap@$00USphereAABBTest@Gu@physx@@VAABBTree@23@UBVHNode@23@UOverlapCallbackAdapter@23@@Gu@physx@@QEAA_NAEBVAABBTreeBounds@12@AEBVAABBTree@12@AEBUSphereAABBTest@12@AEAUOverlapCallbackAdapter@12@@Z 000000018017eb80 f i GuExtendedBucketPruner.obj
 0001:0017de70       ??R?$AABBTreeRaycast@$00$00VAABBTree@Gu@physx@@UBVHNode@23@U?$MainTreeRaycastPrunerCallback@$00@@@Gu@physx@@QEAA_NAEBVAABBTreeBounds@12@AEBVAABBTree@12@AEBV?$PxVec3T@M@2@2AEAM2AEAU?$MainTreeRaycastPrunerCallback@$00@@@Z 000000018017ee70 f i GuExtendedBucketPruner.obj
 0001:0017e590       ??R?$AABBTreeRaycast@$00$00VAABBTree@Gu@physx@@UBVHNode@23@URaycastCallbackAdapter@23@@Gu@physx@@QEAA_NAEBVAABBTreeBounds@12@AEBVAABBTree@12@AEBV?$PxVec3T@M@2@2AEAM2AEAURaycastCallbackAdapter@12@@Z 000000018017f590 f i GuExtendedBucketPruner.obj
 0001:0017ec70       ??R?$AABBTreeRaycast@$0A@$00VAABBTree@Gu@physx@@UBVHNode@23@U?$MainTreeRaycastPrunerCallback@$0A@@@@Gu@physx@@QEAA_NAEBVAABBTreeBounds@12@AEBVAABBTree@12@AEBV?$PxVec3T@M@2@2AEAM2AEAU?$MainTreeRaycastPrunerCallback@$0A@@@@Z 000000018017fc70 f i GuExtendedBucketPruner.obj
 0001:0017f330       ??R?$AABBTreeRaycast@$0A@$00VAABBTree@Gu@physx@@UBVHNode@23@URaycastCallbackAdapter@23@@Gu@physx@@QEAA_NAEBVAABBTreeBounds@12@AEBVAABBTree@12@AEBV?$PxVec3T@M@2@2AEAM2AEAURaycastCallbackAdapter@12@@Z 0000000180180330 f i GuExtendedBucketPruner.obj
 0001:0017f9b0       ?addTree@ExtendedBucketPruner@Gu@physx@@QEAAXAEBVAABBTreeMergeData@23@I@Z 00000001801809b0 f   GuExtendedBucketPruner.obj
 0001:0017fc80       ?buildMainAABBTree@ExtendedBucketPruner@Gu@physx@@AEAAXXZ 0000000180180c80 f   GuExtendedBucketPruner.obj
 0001:0017fd30       ?create@?$PxHashBase@V?$PxPair@$$CBUPrunerPayload@Gu@physx@@UExtendedBucketPrunerData@23@@physx@@UPrunerPayload@Gu@2@UExtendedBucketPrunerHash@42@UGetKey@?$PxHashMapBase@UPrunerPayload@Gu@physx@@UExtendedBucketPrunerData@23@UExtendedBucketPrunerHash@23@VPxAllocator@3@@2@VPxAllocator@2@$00@physx@@QEAAPEAV?$PxPair@$$CBUPrunerPayload@Gu@physx@@UExtendedBucketPrunerData@23@@2@AEBUPrunerPayload@Gu@2@AEA_N@Z 0000000180180d30 f i GuExtendedBucketPruner.obj
 0001:0017ff00       ?eraseInternal@?$PxHashBase@V?$PxPair@$$CBUPrunerPayload@Gu@physx@@UExtendedBucketPrunerData@23@@physx@@UPrunerPayload@Gu@2@UExtendedBucketPrunerHash@42@UGetKey@?$PxHashMapBase@UPrunerPayload@Gu@physx@@UExtendedBucketPrunerData@23@UExtendedBucketPrunerHash@23@VPxAllocator@3@@2@VPxAllocator@2@$00@physx@@AEAA_NPEAI@Z 0000000180180f00 f i GuExtendedBucketPruner.obj
 0001:00180020       ?find@?$PxHashMapBase@UPrunerPayload@Gu@physx@@UExtendedBucketPrunerData@23@UExtendedBucketPrunerHash@23@VPxAllocator@3@@physx@@QEBAPEBV?$PxPair@$$CBUPrunerPayload@Gu@physx@@UExtendedBucketPrunerData@23@@2@AEBUPrunerPayload@Gu@2@@Z 0000000180181020 f i GuExtendedBucketPruner.obj
 0001:00180110       ?getGlobalBounds@ExtendedBucketPruner@Gu@physx@@QEBAXAEAVPxBounds3@3@@Z 0000000180181110 f   GuExtendedBucketPruner.obj
 0001:001801e0       ?invalidateObject@ExtendedBucketPruner@Gu@physx@@AEAAXAEBUExtendedBucketPrunerData@23@IAEBUPrunerPayload@23@I@Z 00000001801811e0 f   GuExtendedBucketPruner.obj
 0001:00180320       ?overlap@ExtendedBucketPruner@Gu@physx@@QEBA_NAEBVShapeData@23@AEAUPrunerOverlapCallback@23@@Z 0000000180181320 f   GuExtendedBucketPruner.obj
 0001:00180b00       ?raycast@ExtendedBucketPruner@Gu@physx@@QEBA_NAEBV?$PxVec3T@M@3@0AEAMAEAUPrunerRaycastCallback@23@@Z 0000000180181b00 f   GuExtendedBucketPruner.obj
 0001:00180be0       ?refitMarkedNodes@ExtendedBucketPruner@Gu@physx@@QEAAXPEBVPxBounds3@3@@Z 0000000180181be0 f   GuExtendedBucketPruner.obj
 0001:00181170       ?release@ExtendedBucketPruner@Gu@physx@@QEAAXXZ 0000000180182170 f   GuExtendedBucketPruner.obj
 0001:00181240       ?removeMarkedObjects@ExtendedBucketPruner@Gu@physx@@QEAAII@Z 0000000180182240 f   GuExtendedBucketPruner.obj
 0001:00181560       ?removeObject@ExtendedBucketPruner@Gu@physx@@QEAA_NAEBUPrunerPayload@23@II0I@Z 0000000180182560 f   GuExtendedBucketPruner.obj
 0001:00181750       ?reserveInternal@?$PxHashBase@V?$PxPair@$$CBUPrunerPayload@Gu@physx@@UExtendedBucketPrunerData@23@@physx@@UPrunerPayload@Gu@2@UExtendedBucketPrunerHash@42@UGetKey@?$PxHashMapBase@UPrunerPayload@Gu@physx@@UExtendedBucketPrunerData@23@UExtendedBucketPrunerHash@23@VPxAllocator@3@@2@VPxAllocator@2@$00@physx@@AEAAXI@Z 0000000180182750 f i GuExtendedBucketPruner.obj
 0001:00181950       ?shiftOrigin@ExtendedBucketPruner@Gu@physx@@QEAAXAEBV?$PxVec3T@M@3@@Z 0000000180182950 f   GuExtendedBucketPruner.obj
 0001:001819d0       ?swapIndex@ExtendedBucketPruner@Gu@physx@@QEAAXIAEBUPrunerPayload@23@I_N@Z 00000001801829d0 f   GuExtendedBucketPruner.obj
 0001:00181aa0       ?sweep@ExtendedBucketPruner@Gu@physx@@QEBA_NAEBVShapeData@23@AEBV?$PxVec3T@M@3@AEAMAEAUPrunerRaycastCallback@23@@Z 0000000180182aa0 f   GuExtendedBucketPruner.obj
 0001:00181c30       ?updateObject@ExtendedBucketPruner@Gu@physx@@QEAA_NAEBVPxBounds3@3@AEBV?$PxTransformT@M@3@AEBUPrunerPayload@23@II@Z 0000000180182c30 f   GuExtendedBucketPruner.obj
 0001:00181d00       ?visualize@ExtendedBucketPruner@Gu@physx@@QEBAXAEAVPxRenderOutput@3@I@Z 0000000180182d00 f   GuExtendedBucketPruner.obj
 0001:00181d90       ??0?$OBBAABBTests@$00@Gu@physx@@QEAA@AEBV?$PxVec3T@M@2@AEBV?$PxMat33T@M@2@0@Z 0000000180182d90 f i GuSecondaryPruner.obj
 0001:00183ce0       ??_ECompanionPruner@Gu@physx@@UEAAPEAXI@Z 0000000180184ce0 f i GuSecondaryPruner.obj
 0001:00183ce0       ??_GCompanionPruner@Gu@physx@@UEAAPEAXI@Z 0000000180184ce0 f i GuSecondaryPruner.obj
 0001:00183d30       ??_ECompanionPrunerAABBTree@@UEAAPEAXI@Z 0000000180184d30 f i GuSecondaryPruner.obj
 0001:00183d30       ??_GCompanionPrunerAABBTree@@UEAAPEAXI@Z 0000000180184d30 f i GuSecondaryPruner.obj
 0001:00183de0       ??_ECompanionPrunerBucket@@UEAAPEAXI@Z 0000000180184de0 f i GuSecondaryPruner.obj
 0001:00183de0       ??_GCompanionPrunerBucket@@UEAAPEAXI@Z 0000000180184de0 f i GuSecondaryPruner.obj
 0001:00183e60       ??_ECompanionPrunerIncremental@@UEAAPEAXI@Z 0000000180184e60 f i GuSecondaryPruner.obj
 0001:00183e60       ??_GCompanionPrunerIncremental@@UEAAPEAXI@Z 0000000180184e60 f i GuSecondaryPruner.obj
 0001:00183ee0       ?addObject@CompanionPrunerAABBTree@@UEAA_NAEBUPrunerPayload@Gu@physx@@IAEBVPxBounds3@4@AEBV?$PxTransformT@M@4@II@Z 0000000180184ee0 f   GuSecondaryPruner.obj
 0001:00184120       ?addObject@CompanionPrunerBucket@@UEAA_NAEBUPrunerPayload@Gu@physx@@IAEBVPxBounds3@4@AEBV?$PxTransformT@M@4@II@Z 0000000180185120 f i GuSecondaryPruner.obj
 0001:00184140       ?addObject@CompanionPrunerIncremental@@UEAA_NAEBUPrunerPayload@Gu@physx@@IAEBVPxBounds3@4@AEBV?$PxTransformT@M@4@II@Z 0000000180185140 f i GuSecondaryPruner.obj
 0001:00184160       ?addObjectInternal@CompanionPrunerAABBTree@@QEAA_NII@Z 0000000180185160 f   GuSecondaryPruner.obj
 0001:00184300       ?build@CompanionPrunerAABBTree@@UEAAXXZ 0000000180185300 f   GuSecondaryPruner.obj
 0001:001847d0       ?createCompanionPruner@Gu@physx@@YAPEAVCompanionPruner@12@_KW4CompanionPrunerType@12@PEBVPruningPool@12@@Z 00000001801857d0 f   GuSecondaryPruner.obj
 0001:001849d0       ?getGlobalBounds@CompanionPrunerAABBTree@@UEBAXAEAVPxBounds3@physx@@@Z 00000001801859d0 f   GuSecondaryPruner.obj
 0001:00184ae0       ?getGlobalBounds@CompanionPrunerBucket@@UEBAXAEAVPxBounds3@physx@@@Z 0000000180185ae0 f i GuSecondaryPruner.obj
 0001:00184af0       ?getGlobalBounds@CompanionPrunerIncremental@@UEBAXAEAVPxBounds3@physx@@@Z 0000000180185af0 f i GuSecondaryPruner.obj
 0001:00184b00       ?getNbObjects@CompanionPrunerAABBTree@@UEBAIXZ 0000000180185b00 f   GuSecondaryPruner.obj
 0001:00184b10       ?getNbObjects@CompanionPrunerBucket@@UEBAIXZ 0000000180185b10 f i GuSecondaryPruner.obj
 0001:00184b20       ?getNbObjects@CompanionPrunerIncremental@@UEBAIXZ 0000000180185b20 f i GuSecondaryPruner.obj
 0001:00184b30       ?growAndPushBack@?$PxArray@ULocalData@CompanionPrunerAABBTree@@V?$PxReflectionAllocator@ULocalData@CompanionPrunerAABBTree@@@physx@@@physx@@IEAAAEAULocalData@CompanionPrunerAABBTree@@AEBU34@@Z 0000000180185b30 f i GuSecondaryPruner.obj
 0001:00184c50       ?overlap@CompanionPrunerAABBTree@@UEBA_NAEBVShapeData@Gu@physx@@AEAUPrunerOverlapCallback@34@@Z 0000000180185c50 f   GuSecondaryPruner.obj
 0001:00185be0       ?overlap@CompanionPrunerBucket@@UEBA_NAEBVShapeData@Gu@physx@@AEAUPrunerOverlapCallback@34@@Z 0000000180186be0 f i GuSecondaryPruner.obj
 0001:00185c00       ?overlap@CompanionPrunerIncremental@@UEBA_NAEBVShapeData@Gu@physx@@AEAUPrunerOverlapCallback@34@@Z 0000000180186c00 f i GuSecondaryPruner.obj
 0001:00185c20       ?raycast@CompanionPrunerAABBTree@@UEBA_NAEBV?$PxVec3T@M@physx@@0AEAMAEAUPrunerRaycastCallback@Gu@3@@Z 0000000180186c20 f   GuSecondaryPruner.obj
 0001:00186010       ?raycast@CompanionPrunerBucket@@UEBA_NAEBV?$PxVec3T@M@physx@@0AEAMAEAUPrunerRaycastCallback@Gu@3@@Z 0000000180187010 f i GuSecondaryPruner.obj
 0001:00186030       ?raycast@CompanionPrunerIncremental@@UEBA_NAEBV?$PxVec3T@M@physx@@0AEAMAEAUPrunerRaycastCallback@Gu@3@@Z 0000000180187030 f i GuSecondaryPruner.obj
 0001:00186050       ?release@CompanionPrunerAABBTree@@UEAAXXZ 0000000180187050 f   GuSecondaryPruner.obj
 0001:00186060       ?release@CompanionPrunerBucket@@UEAAXXZ 0000000180187060 f i GuSecondaryPruner.obj
 0001:00186070       ?release@CompanionPrunerIncremental@@UEAAXXZ 0000000180187070 f i GuSecondaryPruner.obj
 0001:00186080       ?releaseInternal@CompanionPrunerAABBTree@@QEAAXXZ 0000000180187080 f   GuSecondaryPruner.obj
 0001:00186100       ?removeMarkedObjects@CompanionPrunerAABBTree@@UEAAII@Z 0000000180187100 f   GuSecondaryPruner.obj
 0001:00186120       ?removeMarkedObjects@CompanionPrunerBucket@@UEAAII@Z 0000000180187120 f i GuSecondaryPruner.obj
 0001:00186130       ?removeMarkedObjects@CompanionPrunerIncremental@@UEAAII@Z 0000000180187130 f i GuSecondaryPruner.obj
 0001:00186140       ?removeObject@CompanionPrunerAABBTree@@UEAA_NAEBUPrunerPayload@Gu@physx@@III@Z 0000000180187140 f   GuSecondaryPruner.obj
 0001:001861e0       ?removeObject@CompanionPrunerBucket@@UEAA_NAEBUPrunerPayload@Gu@physx@@III@Z 00000001801871e0 f i GuSecondaryPruner.obj
 0001:00186200       ?removeObject@CompanionPrunerIncremental@@UEAA_NAEBUPrunerPayload@Gu@physx@@III@Z 0000000180187200 f i GuSecondaryPruner.obj
 0001:00186220       ?shiftOrigin@CompanionPrunerAABBTree@@UEAAXAEBV?$PxVec3T@M@physx@@@Z 0000000180187220 f   GuSecondaryPruner.obj
 0001:00186350       ?shiftOrigin@CompanionPrunerIncremental@@UEAAXAEBV?$PxVec3T@M@physx@@@Z 0000000180187350 f i GuSecondaryPruner.obj
 0001:00186360       ?swapIndex@CompanionPrunerIncremental@@UEAAXII@Z 0000000180187360 f i GuSecondaryPruner.obj
 0001:00186370       ?sweep@CompanionPrunerAABBTree@@UEBA_NAEBVShapeData@Gu@physx@@AEBV?$PxVec3T@M@4@AEAMAEAUPrunerRaycastCallback@34@@Z 0000000180187370 f   GuSecondaryPruner.obj
 0001:001868a0       ?sweep@CompanionPrunerBucket@@UEBA_NAEBVShapeData@Gu@physx@@AEBV?$PxVec3T@M@4@AEAMAEAUPrunerRaycastCallback@34@@Z 00000001801878a0 f i GuSecondaryPruner.obj
 0001:001868c0       ?sweep@CompanionPrunerIncremental@@UEBA_NAEBVShapeData@Gu@physx@@AEBV?$PxVec3T@M@4@AEAMAEAUPrunerRaycastCallback@34@@Z 00000001801878c0 f i GuSecondaryPruner.obj
 0001:001868e0       ?timeStampChange@CompanionPrunerIncremental@@UEAAXXZ 00000001801878e0 f i GuSecondaryPruner.obj
 0001:00186900       ?updateObject@CompanionPrunerAABBTree@@UEAA_NAEBUPrunerPayload@Gu@physx@@IAEBVPxBounds3@4@AEBV?$PxTransformT@M@4@I@Z 0000000180187900 f   GuSecondaryPruner.obj
 0001:00186980       ?updateObject@CompanionPrunerBucket@@UEAA_NAEBUPrunerPayload@Gu@physx@@IAEBVPxBounds3@4@AEBV?$PxTransformT@M@4@I@Z 0000000180187980 f i GuSecondaryPruner.obj
 0001:001869a0       ?updateObject@CompanionPrunerIncremental@@UEAA_NAEBUPrunerPayload@Gu@physx@@IAEBVPxBounds3@4@AEBV?$PxTransformT@M@4@I@Z 00000001801879a0 f i GuSecondaryPruner.obj
 0001:001869b0       ?visualize@CompanionPrunerAABBTree@@UEBAXAEAVPxRenderOutput@physx@@I@Z 00000001801879b0 f   GuSecondaryPruner.obj
 0001:001869d0       ?visualize@CompanionPrunerIncremental@@UEBAXAEAVPxRenderOutput@physx@@I@Z 00000001801879d0 f i GuSecondaryPruner.obj
 0001:001869e0       ??0AABBPruner@Gu@physx@@QEAA@_N_KW4CompanionPrunerType@12@W4BVHBuildStrategy@12@I@Z 00000001801879e0 f   GuAABBPruner.obj
 0001:00186b10       ??1AABBPruner@Gu@physx@@UEAA@XZ 0000000180187b10 f   GuAABBPruner.obj
 0001:00186c70       ??_EAABBPruner@Gu@physx@@UEAAPEAXI@Z 0000000180187c70 f i GuAABBPruner.obj
 0001:00186c70       ??_GAABBPruner@Gu@physx@@UEAAPEAXI@Z 0000000180187c70 f i GuAABBPruner.obj
 0001:00186ce0       ?addObjects@AABBPruner@Gu@physx@@UEAA_NPEAIPEBVPxBounds3@3@PEBUPrunerPayload@23@PEBV?$PxTransformT@M@3@I_N@Z 0000000180187ce0 f   GuAABBPruner.obj
 0001:00186e40       ?buildStep@AABBPruner@Gu@physx@@UEAA_N_N@Z 0000000180187e40 f   GuAABBPruner.obj
 0001:00187070       ?commit@AABBPruner@Gu@physx@@UEAAXXZ 0000000180188070 f   GuAABBPruner.obj
 0001:00187430       ?getGlobalBounds@AABBPruner@Gu@physx@@UEBAXAEAVPxBounds3@3@@Z 0000000180188430 f   GuAABBPruner.obj
 0001:00187570       ?getPayloadData@AABBPruner@Gu@physx@@UEBAAEBUPrunerPayload@23@IPEAUPrunerPayloadData@23@@Z 0000000180188570 f i GuAABBPruner.obj
 0001:001875d0       ?growAndPushBack@?$PxArray@UNewTreeFixup@AABBPruner@Gu@physx@@V?$PxReflectionAllocator@UNewTreeFixup@AABBPruner@Gu@physx@@@4@@physx@@IEAAAEAUNewTreeFixup@AABBPruner@Gu@2@AEBU3452@@Z 00000001801885d0 f i GuAABBPruner.obj
 0001:001876f0       ?isDynamic@AABBPruner@Gu@physx@@UEBA_NXZ 00000001801886f0 f i GuAABBPruner.obj
 0001:00187700       ?merge@AABBPruner@Gu@physx@@UEAAXPEBX@Z 0000000180188700 f   GuAABBPruner.obj
 0001:00187780       ?overlap@AABBPruner@Gu@physx@@UEBA_NAEBVShapeData@23@AEAUPrunerOverlapCallback@23@@Z 0000000180188780 f   GuAABBPruner.obj
 0001:00187d50       ?preallocate@AABBPruner@Gu@physx@@UEAAXI@Z 0000000180188d50 f i GuAABBPruner.obj
 0001:00187d60       ?prepareBuild@AABBPruner@Gu@physx@@UEAA_NXZ 0000000180188d60 f   GuAABBPruner.obj
 0001:00187ef0       ?purge@AABBPruner@Gu@physx@@UEAAXXZ 0000000180188ef0 f   GuAABBPruner.obj
 0001:00187f10       ?raycast@AABBPruner@Gu@physx@@UEBA_NAEBV?$PxVec3T@M@3@0AEAMAEAUPrunerRaycastCallback@23@@Z 0000000180188f10 f   GuAABBPruner.obj
 0001:00188000       ?release@AABBPruner@Gu@physx@@QEAAXXZ 0000000180189000 f   GuAABBPruner.obj
 0001:00188130       ?removeObjects@AABBPruner@Gu@physx@@UEAAXPEBIIPEAUPrunerPayloadRemovalCallback@23@@Z 0000000180189130 f   GuAABBPruner.obj
 0001:00188320       ?setRebuildRateHint@AABBPruner@Gu@physx@@UEAAXI@Z 0000000180189320 f   GuAABBPruner.obj
 0001:00188340       ?setTransform@AABBPruner@Gu@physx@@UEAA_NIAEBV?$PxTransformT@M@3@@Z 0000000180189340 f i GuAABBPruner.obj
 0001:001883a0       ?shiftOrigin@AABBPruner@Gu@physx@@UEAAXAEBV?$PxVec3T@M@3@@Z 00000001801893a0 f   GuAABBPruner.obj
 0001:00188410       ?sweep@AABBPruner@Gu@physx@@UEBA_NAEBVShapeData@23@AEBV?$PxVec3T@M@3@AEAMAEAUPrunerRaycastCallback@23@@Z 0000000180189410 f   GuAABBPruner.obj
 0001:001885a0       ?updateObjects@AABBPruner@Gu@physx@@UEAAXPEBIIM0PEBVPxBounds3@3@PEBUPxTransformPadded@3@@Z 00000001801895a0 f   GuAABBPruner.obj
 0001:00188740       ?visualize@AABBPruner@Gu@physx@@UEBAXAEAVPxRenderOutput@3@II@Z 0000000180189740 f   GuAABBPruner.obj
 0001:001887f0       ??0ActorShapeMap@Gu@physx@@QEAA@XZ 00000001801897f0 f   GuActorShapeMap.obj
 0001:00188850       ??1ActorShapeMap@Gu@physx@@QEAA@XZ 0000000180189850 f   GuActorShapeMap.obj
 0001:001888b0       ?add@ActorShapeMap@Gu@physx@@QEAA_NIPEBX0_K@Z 00000001801898b0 f   GuActorShapeMap.obj
 0001:00188a50       ?create@?$PxHashBase@V?$PxPair@$$CBUActorShape@ActorShapeMap@Gu@physx@@_K@physx@@UActorShape@ActorShapeMap@Gu@2@U?$PxHash@UActorShape@ActorShapeMap@Gu@physx@@@2@UGetKey@?$PxHashMapBase@UActorShape@ActorShapeMap@Gu@physx@@_KU?$PxHash@UActorShape@ActorShapeMap@Gu@physx@@@4@VPxAllocator@4@@2@VPxAllocator@2@$00@physx@@QEAAPEAV?$PxPair@$$CBUActorShape@ActorShapeMap@Gu@physx@@_K@2@AEBUActorShape@ActorShapeMap@Gu@2@AEA_N@Z 0000000180189a50 f i GuActorShapeMap.obj
 0001:00188c40       ?eraseInternal@?$PxHashBase@V?$PxPair@$$CBUActorShape@ActorShapeMap@Gu@physx@@_K@physx@@UActorShape@ActorShapeMap@Gu@2@U?$PxHash@UActorShape@ActorShapeMap@Gu@physx@@@2@UGetKey@?$PxHashMapBase@UActorShape@ActorShapeMap@Gu@physx@@_KU?$PxHash@UActorShape@ActorShapeMap@Gu@physx@@@4@VPxAllocator@4@@2@VPxAllocator@2@$00@physx@@AEAA_NPEAI@Z 0000000180189c40 f i GuActorShapeMap.obj
 0001:00188d50       ?find@ActorShapeMap@Gu@physx@@QEBA_KIPEBX0@Z 0000000180189d50 f   GuActorShapeMap.obj
 0001:00188e40       ?remove@ActorShapeMap@Gu@physx@@QEAA_NIPEBX0PEA_K@Z 0000000180189e40 f   GuActorShapeMap.obj
 0001:00188f90       ?reserveInternal@?$PxHashBase@V?$PxPair@$$CBUActorShape@ActorShapeMap@Gu@physx@@_K@physx@@UActorShape@ActorShapeMap@Gu@2@U?$PxHash@UActorShape@ActorShapeMap@Gu@physx@@@2@UGetKey@?$PxHashMapBase@UActorShape@ActorShapeMap@Gu@physx@@_KU?$PxHash@UActorShape@ActorShapeMap@Gu@physx@@@4@VPxAllocator@4@@2@VPxAllocator@2@$00@physx@@AEAAXI@Z 0000000180189f90 f i GuActorShapeMap.obj
 0001:001891a0       ??0QuerySystem@Gu@physx@@QEAA@_KMAEBVAdapter@12@_N@Z 000000018018a1a0 f   GuQuerySystem.obj
 0001:00189270       ??1QuerySystem@Gu@physx@@QEAA@XZ 000000018018a270 f   GuQuerySystem.obj
 0001:001894c0       ??_GPrunerExt@QuerySystem@Gu@physx@@QEAAPEAXI@Z 000000018018a4c0 f i GuQuerySystem.obj
 0001:001895d0       ?addPruner@QuerySystem@Gu@physx@@QEAAIPEAVPruner@23@I@Z 000000018018a5d0 f   GuQuerySystem.obj
 0001:001896f0       ?addPrunerShape@QuerySystem@Gu@physx@@QEAA_KAEBUPrunerPayload@23@I_NAEBV?$PxTransformT@M@3@PEBVPxBounds3@3@@Z 000000018018a6f0 f   GuQuerySystem.obj
 0001:00189830       ?addToDirtyList@PrunerExt@QuerySystem@Gu@physx@@QEAAXIIAEBV?$PxTransformT@M@4@PEBVPxBounds3@4@@Z 000000018018a830 f   GuQuerySystem.obj
 0001:00189a80       ?commitUpdates@QuerySystem@Gu@physx@@QEAAXXZ 000000018018aa80 f   GuQuerySystem.obj
 0001:00189b30       ?createTreeOfPruners@QuerySystem@Gu@physx@@QEAAXXZ 000000018018ab30 f   GuQuerySystem.obj
 0001:00189c90       ?flushMemory@QuerySystem@Gu@physx@@QEAAXXZ 000000018018ac90 f   GuQuerySystem.obj
 0001:00189d20       ?getPayloadData@QuerySystem@Gu@physx@@QEBAAEBUPrunerPayload@23@_KPEAUPrunerPayloadData@23@@Z 000000018018ad20 f   GuQuerySystem.obj
 0001:00189d40       ?growAndPushBack@?$PxArray@PEAUPrunerExt@QuerySystem@Gu@physx@@V?$PxReflectionAllocator@PEAUPrunerExt@QuerySystem@Gu@physx@@@4@@physx@@IEAAAEAPEAUPrunerExt@QuerySystem@Gu@2@AEBQEAU3452@@Z 000000018018ad40 f i GuQuerySystem.obj
 0001:00189e60       ?overlap@QuerySystem@Gu@physx@@QEBAXAEBVShapeData@23@AEAUPrunerOverlapCallback@23@PEBVPrunerFilter@23@@Z 000000018018ae60 f   GuQuerySystem.obj
 0001:00189f60       ?processDirtyLists@QuerySystem@Gu@physx@@AEAAXXZ 000000018018af60 f   GuQuerySystem.obj
 0001:0018a240       ?raycast@QuerySystem@Gu@physx@@QEBAXAEBV?$PxVec3T@M@3@0AEAMAEAUPrunerRaycastCallback@23@PEBVPrunerFilter@23@@Z 000000018018b240 f   GuQuerySystem.obj
 0001:0018a380       ?recreate@?$PxArray@UData@PrunerExt@QuerySystem@Gu@physx@@V?$PxReflectionAllocator@UData@PrunerExt@QuerySystem@Gu@physx@@@5@@physx@@IEAAXI@Z 000000018018b380 f i GuQuerySystem.obj
 0001:0018a670       ?removePruner@QuerySystem@Gu@physx@@QEAAXI@Z 000000018018b670 f   GuQuerySystem.obj
 0001:0018a750       ?removePrunerShape@QuerySystem@Gu@physx@@QEAAX_KPEAUPrunerPayloadRemovalCallback@23@@Z 000000018018b750 f   GuQuerySystem.obj
 0001:0018a980       ?sweep@QuerySystem@Gu@physx@@QEBAXAEBVShapeData@23@AEBV?$PxVec3T@M@3@AEAMAEAUPrunerRaycastCallback@23@PEBVPrunerFilter@23@@Z 000000018018b980 f   GuQuerySystem.obj
 0001:0018aab0       ?sync@QuerySystem@Gu@physx@@QEAAXIPEBI0PEBVPxBounds3@3@PEBUPxTransformPadded@3@I@Z 000000018018bab0 f   GuQuerySystem.obj
 0001:0018ab60       ?update@QuerySystem@Gu@physx@@QEAAX_N0@Z 000000018018bb60 f   GuQuerySystem.obj
 0001:0018ac30       ?updatePrunerShape@QuerySystem@Gu@physx@@QEAAX_K_NAEBV?$PxTransformT@M@3@PEBVPxBounds3@3@@Z 000000018018bc30 f   GuQuerySystem.obj
 0001:0018ae20       createAABBPruner           000000018018be20 f   GuFactory.obj
 0001:0018aee0       createBucketPruner         000000018018bee0 f   GuFactory.obj
 0001:0018af70       createIncrementalPruner    000000018018bf70 f   GuFactory.obj
 0001:0018b000       ??$PxSmallSort@I$$CBUSortBoundsPredicate@physx@@@physx@@YAXPEAIHHAEBUSortBoundsPredicate@0@@Z 000000018018c000 f i GuRTreeCooking.obj
 0001:0018b2a0       ??$PxSort@IU?$PxLess@I@physx@@V?$PxReflectionAllocator@I@2@@physx@@YAXPEAIIAEBU?$PxLess@I@0@AEBV?$PxReflectionAllocator@I@0@I@Z 000000018018c2a0 f i GuRTreeCooking.obj
 0001:0018b6f0       ??$PxSort@IUSortBoundsPredicate@physx@@V?$PxReflectionAllocator@I@2@@physx@@YAXPEAIIAEBUSortBoundsPredicate@0@AEBV?$PxReflectionAllocator@I@0@I@Z 000000018018c6f0 f i GuRTreeCooking.obj
 0001:0018bba0       ??$quickSelectFirstK@UBoundsLTE@physx@@@quickSelect@physx@@YAXPEIAIIIIAEBUBoundsLTE@1@@Z 000000018018cba0 f i GuRTreeCooking.obj
 0001:0018bd80       ?allocate@?$PxArray@UInterval@physx@@V?$PxInlineAllocator@$0CAAA@V?$PxReflectionAllocator@UInterval@physx@@@physx@@@2@@physx@@IEAAPEAUInterval@2@I@Z 000000018018cd80 f i GuRTreeCooking.obj
 0001:0018be40       ?allocate@?$PxArray@UPxBounds3V@physx@@V?$PxReflectionAllocator@UPxBounds3V@physx@@@2@@physx@@IEAAPEAUPxBounds3V@2@I@Z 000000018018ce40 f i GuRTreeCooking.obj
 0001:0018bed0       ?allocate@?$PxArray@URTreeNodeNQ@physx@@V?$PxReflectionAllocator@URTreeNodeNQ@physx@@@2@@physx@@IEAAPEAURTreeNodeNQ@2@I@Z 000000018018ced0 f i GuRTreeCooking.obj
 0001:0018bf60       ?allocate@?$PxArray@URTreeNodeQ@Gu@physx@@V?$PxReflectionAllocator@URTreeNodeQ@Gu@physx@@@3@@physx@@IEAAPEAURTreeNodeQ@Gu@2@I@Z 000000018018cf60 f i GuRTreeCooking.obj
 0001:0018cc70       ?buildFromTriangles@RTreeCooker@physx@@SAXAEAURTree@Gu@2@PEBV?$PxVec3T@M@2@IPEBGPEBIIAEAV?$PxArray@IV?$PxReflectionAllocator@I@physx@@@2@PEAURemapCallback@12@MW4Enum@PxMeshCookingHint@2@@Z 000000018018dc70 f   GuRTreeCooking.obj
 0001:0018cf30       ?copy@?$PxArray@URTreeNodeNQ@physx@@V?$PxReflectionAllocator@URTreeNodeNQ@physx@@@2@@physx@@KAXPEAURTreeNodeNQ@2@0PEBU32@@Z 000000018018df30 f i GuRTreeCooking.obj
 0001:0018d0f0       ?growAndPushBack@?$PxArray@UInterval@physx@@V?$PxInlineAllocator@$0CAAA@V?$PxReflectionAllocator@UInterval@physx@@@physx@@@2@@physx@@IEAAAEAUInterval@2@AEBU32@@Z 000000018018e0f0 f i GuRTreeCooking.obj
 0001:0018d1d0       ?growAndPushBack@?$PxArray@UPxBounds3V@physx@@V?$PxReflectionAllocator@UPxBounds3V@physx@@@2@@physx@@IEAAAEAUPxBounds3V@2@AEBU32@@Z 000000018018e1d0 f i GuRTreeCooking.obj
 0001:0018d2b0       ?growAndPushBack@?$PxArray@URTreeNodeNQ@physx@@V?$PxReflectionAllocator@URTreeNodeNQ@physx@@@2@@physx@@IEAAAEAURTreeNodeNQ@2@AEBU32@@Z 000000018018e2b0 f i GuRTreeCooking.obj
 0001:0018d390       ?growAndPushBack@?$PxArray@URTreeNodeQ@Gu@physx@@V?$PxReflectionAllocator@URTreeNodeQ@Gu@physx@@@3@@physx@@IEAAAEAURTreeNodeQ@Gu@2@AEBU342@@Z 000000018018e390 f i GuRTreeCooking.obj
 0001:0018d480       ?recreate@?$PxArray@UPxBounds3V@physx@@V?$PxReflectionAllocator@UPxBounds3V@physx@@@2@@physx@@IEAAXI@Z 000000018018e480 f i GuRTreeCooking.obj
 0001:0018d530       ?recreate@?$PxArray@URTreeNodeNQ@physx@@V?$PxReflectionAllocator@URTreeNodeNQ@physx@@@2@@physx@@IEAAXI@Z 000000018018e530 f i GuRTreeCooking.obj
 0001:0018d5c0       ?recreate@?$PxArray@URTreeNodeQ@Gu@physx@@V?$PxReflectionAllocator@URTreeNodeQ@Gu@physx@@@3@@physx@@IEAAXI@Z 000000018018e5c0 f i GuRTreeCooking.obj
 0001:0018d680       ?resizeUninitialized@?$PxArray@URTreeNodeNQ@physx@@V?$PxReflectionAllocator@URTreeNodeNQ@physx@@@2@@physx@@QEAAXI@Z 000000018018e680 f i GuRTreeCooking.obj
 0001:0018d6c0       ?sort4@SubSortQuick@physx@@QEAAXPEIAIIAEAV?$PxArray@URTreeNodeNQ@physx@@V?$PxReflectionAllocator@URTreeNodeNQ@physx@@@2@@2@AEAIAEAUPxBounds3V@2@I@Z 000000018018e6c0 f i GuRTreeCooking.obj
 0001:0018da50       ?sort4@SubSortSAH@physx@@QEAAXPEAIIAEAV?$PxArray@URTreeNodeNQ@physx@@V?$PxReflectionAllocator@URTreeNodeNQ@physx@@@2@@2@AEAIIPEAURTreeNodeNQ@2@@Z 000000018018ea50 f i GuRTreeCooking.obj
 0001:0018e290       ?split@SubSortSAH@physx@@QEAAIPEAII@Z 000000018018f290 f i GuRTreeCooking.obj
 0001:0018ed00       cookBVH                    000000018018fd00 f   GuCookingBVH.obj
 0001:0018ee90       createBVH                  000000018018fe90 f   GuCookingBVH.obj
 0001:0018f020       cookHeightField            0000000180190020 f   GuCookingHF.obj
 0001:0018f130       createHeightField          0000000180190130 f   GuCookingHF.obj
 0001:0018f7c0       ?isFinite@?$PxVec3T@M@physx@@QEBA_NXZ 00000001801907c0 f i GuCookingConvexMesh.obj
 0001:0018f820       computeHullPolygons        0000000180190820 f   GuCookingConvexMesh.obj
 0001:0018fa00       cookConvexMesh             0000000180190a00 f   GuCookingConvexMesh.obj
 0001:0018fb70       createConvexMesh           0000000180190b70 f   GuCookingConvexMesh.obj
 0001:0018fd10       validateConvexMesh         0000000180190d10 f   GuCookingConvexMesh.obj
 0001:0018fe30       ??1BV4TriangleMeshBuilder@physx@@UEAA@XZ 0000000180190e30 f   GuCookingTriangleMesh.obj
 0001:0018fec0       ??1RTreeTriangleMeshBuilder@physx@@UEAA@XZ 0000000180190ec0 f   GuCookingTriangleMesh.obj
 0001:0018ff30       ??_EBV4TriangleMeshBuilder@physx@@UEAAPEAXI@Z 0000000180190f30 f i GuCookingTriangleMesh.obj
 0001:0018ff30       ??_GBV4TriangleMeshBuilder@physx@@UEAAPEAXI@Z 0000000180190f30 f i GuCookingTriangleMesh.obj
 0001:0018ff70       ??_ERTreeTriangleMeshBuilder@physx@@UEAAPEAXI@Z 0000000180190f70 f i GuCookingTriangleMesh.obj
 0001:0018ff70       ??_GRTreeTriangleMeshBuilder@physx@@UEAAPEAXI@Z 0000000180190f70 f i GuCookingTriangleMesh.obj
 0001:0018ffb0       ??_ETriangleMeshBuilder@physx@@UEAAPEAXI@Z 0000000180190fb0 f i GuCookingTriangleMesh.obj
 0001:0018ffb0       ??_GTriangleMeshBuilder@physx@@UEAAPEAXI@Z 0000000180190fb0 f i GuCookingTriangleMesh.obj
 0001:00190960       ?buildInertiaTensor@TriangleMeshBuilder@physx@@IEAAX_N@Z 0000000180191960 f   GuCookingTriangleMesh.obj
 0001:00190ac0       ?buildInertiaTensorFromSDF@TriangleMeshBuilder@physx@@IEAAXXZ 0000000180191ac0 f   GuCookingTriangleMesh.obj
 0001:00190d00       ?cleanMesh@TriangleMeshBuilder@physx@@QEAA_N_NPEAW4Enum@PxTriangleMeshCookingResult@2@@Z 0000000180191d00 f   GuCookingTriangleMesh.obj
 0001:001911f0       ?createGRBMidPhaseAndData@TriangleMeshBuilder@physx@@QEAA_NI@Z 00000001801921f0 f   GuCookingTriangleMesh.obj
 0001:001913a0       ?createMidPhaseStructure@BV32TriangleMeshBuilder@physx@@SA_NAEBUPxCookingParams@2@AEAVTriangleMeshData@Gu@2@AEAVBV32Tree@52@@Z 00000001801923a0 f   GuCookingTriangleMesh.obj
 0001:001915f0       ?createMidPhaseStructure@BV4TriangleMeshBuilder@physx@@UEAA_NXZ 00000001801925f0 f   GuCookingTriangleMesh.obj
 0001:001918b0       ?createMidPhaseStructure@RTreeTriangleMeshBuilder@physx@@UEAA_NXZ 00000001801928b0 f   GuCookingTriangleMesh.obj
 0001:001919a0       ?createSharedEdgeData@TriangleMeshBuilder@physx@@QEAAX_N0@Z 00000001801929a0 f   GuCookingTriangleMesh.obj
 0001:00192050       ?createVertMapping@TriangleMeshBuilder@physx@@QEAAXXZ 0000000180193050 f   GuCookingTriangleMesh.obj
 0001:001923b0       ?importMesh@TriangleMeshBuilder@physx@@IEAA_NAEBVPxTriangleMeshDesc@2@PEAW4Enum@PxTriangleMeshCookingResult@2@_N@Z 00000001801933b0 f   GuCookingTriangleMesh.obj
 0001:00192870       ?isValid@PxTriangleMeshDesc@physx@@QEBA_NXZ 0000000180193870 f i GuCookingTriangleMesh.obj
 0001:00192940       ?loadFromDescInternal@TriangleMeshBuilder@physx@@IEAA_NAEAVPxTriangleMeshDesc@2@PEAW4Enum@PxTriangleMeshCookingResult@2@_N@Z 0000000180193940 f   GuCookingTriangleMesh.obj
 0001:00192b60       ?onMeshIndexFormatChange@BV4TriangleMeshBuilder@physx@@UEAAXXZ 0000000180193b60 f   GuCookingTriangleMesh.obj
 0001:00192ba0       ?remap@RTreeCookerRemap@@UEAAXPEAIII@Z 0000000180193ba0 f i GuCookingTriangleMesh.obj
 0001:00192bc0       ?remapTopology@TriangleMeshBuilder@physx@@QEAAXPEBI@Z 0000000180193bc0 f   GuCookingTriangleMesh.obj
 0001:00192e60       ?save@TriangleMeshBuilder@physx@@QEBA_NAEAVPxOutputStream@2@_NAEBUPxCookingParams@2@@Z 0000000180193e60 f   GuCookingTriangleMesh.obj
 0001:00193610       ?saveMidPhaseStructure@BV32TriangleMeshBuilder@physx@@SAXPEAVBV32Tree@Gu@2@AEAVPxOutputStream@2@_N@Z 0000000180194610 f   GuCookingTriangleMesh.obj
 0001:00193810       ?saveMidPhaseStructure@BV4TriangleMeshBuilder@physx@@UEBAXAEAVPxOutputStream@2@_N@Z 0000000180194810 f   GuCookingTriangleMesh.obj
 0001:001939c0       ?saveMidPhaseStructure@RTreeTriangleMeshBuilder@physx@@UEBAXAEAVPxOutputStream@2@_N@Z 00000001801949c0 f   GuCookingTriangleMesh.obj
 0001:00193c00       cookTriangleMesh           0000000180194c00 f   GuCookingTriangleMesh.obj
 0001:00193f10       createTriangleMesh         0000000180194f10 f   GuCookingTriangleMesh.obj
 0001:00194130       validateTriangleMesh       0000000180195130 f   GuCookingTriangleMesh.obj
 0001:001943f0       ??0SoftBodyCollisionData@Gu@physx@@QEAA@XZ 00000001801953f0 f i GuCookingTetrahedronMesh.obj
 0001:00194450       ??_ECollisionTetrahedronMeshData@Gu@physx@@UEAAPEAXI@Z 0000000180195450 f i GuCookingTetrahedronMesh.obj
 0001:00194450       ??_GCollisionTetrahedronMeshData@Gu@physx@@UEAAPEAXI@Z 0000000180195450 f i GuCookingTetrahedronMesh.obj
 0001:00194520       ??_EPxCollisionTetrahedronMeshData@physx@@UEAAPEAXI@Z 0000000180195520 f i GuCookingTetrahedronMesh.obj
 0001:00194520       ??_GPxCollisionTetrahedronMeshData@physx@@UEAAPEAXI@Z 0000000180195520 f i GuCookingTetrahedronMesh.obj
 0001:00194570       ??_EPxSimulationTetrahedronMeshData@physx@@UEAAPEAXI@Z 0000000180195570 f i GuCookingTetrahedronMesh.obj
 0001:00194570       ??_GPxSimulationTetrahedronMeshData@physx@@UEAAPEAXI@Z 0000000180195570 f i GuCookingTetrahedronMesh.obj
 0001:001945c0       ??_ESimulationTetrahedronMeshData@Gu@physx@@UEAAPEAXI@Z 00000001801955c0 f i GuCookingTetrahedronMesh.obj
 0001:001945c0       ??_GSimulationTetrahedronMeshData@Gu@physx@@UEAAPEAXI@Z 00000001801955c0 f i GuCookingTetrahedronMesh.obj
 0001:00194690       ?combineGridModelPartitions@@YAXAEBVTetrahedronMeshData@Gu@physx@@AEAVSoftBodySimulationData@23@PEAPEAI@Z 0000000180195690 f   GuCookingTetrahedronMesh.obj
 0001:00194ee0       ?combineGridModelPartitionsHexMesh@@YAXAEBVTetrahedronMeshData@Gu@physx@@AEAVSoftBodySimulationData@23@PEAPEAII@Z 0000000180195ee0 f   GuCookingTetrahedronMesh.obj
 0001:00195920       ?computeCollisionData@TetrahedronMeshBuilder@physx@@SA_NAEBVPxTetrahedronMeshDesc@2@AEAVTetrahedronMeshData@Gu@2@AEAVSoftBodyCollisionData@52@AEBUPxCookingParams@2@_N@Z 0000000180196920 f   GuCookingTetrahedronMesh.obj
 0001:00195b60       ?computeGridModelTetrahedronPartitions@@YAPEAIAEBVTetrahedronMeshData@Gu@physx@@AEAVSoftBodySimulationData@23@@Z 0000000180196b60 f   GuCookingTetrahedronMesh.obj
 0001:00196000       ?computeModelsMapping@TetrahedronMeshBuilder@physx@@SAXAEAVTetrahedronMeshData@Gu@2@AEBV342@AEBVSoftBodyCollisionData@42@AEAVCollisionMeshMappingData@42@_NPEBUPxBoundedData@2@@Z 0000000180197000 f   GuCookingTetrahedronMesh.obj
 0001:00196c10       ?computeRestPoseAndPointMass@@YAXPEAU?$TetrahedronT@I@Gu@physx@@IPEBV?$PxVec3T@M@3@PEAMPEAV?$PxMat33T@M@3@@Z 0000000180197c10 f   GuCookingTetrahedronMesh.obj
 0001:00197160       ?computeSimData@TetrahedronMeshBuilder@physx@@SAXAEBVPxTetrahedronMeshDesc@2@AEAVTetrahedronMeshData@Gu@2@AEAVSoftBodySimulationData@52@AEBUPxCookingParams@2@@Z 0000000180198160 f   GuCookingTetrahedronMesh.obj
 0001:00197830       ?computeTetData@TetrahedronMeshBuilder@physx@@SAXAEBVPxTetrahedronMeshDesc@2@AEAVTetrahedronMeshData@Gu@2@@Z 0000000180198830 f   GuCookingTetrahedronMesh.obj
 0001:00197920       ?computeTetrahedronPartition@@YAIPEBU?$TetrahedronT@I@Gu@physx@@IPEAII@Z 0000000180198920 f   GuCookingTetrahedronMesh.obj
 0001:00197a10       ?createCollisionModelMapping@TetrahedronMeshBuilder@physx@@SAXAEBVTetrahedronMeshData@Gu@2@AEBVSoftBodyCollisionData@42@AEAVCollisionMeshMappingData@42@@Z 0000000180198a10 f   GuCookingTetrahedronMesh.obj
 0001:00197ff0       ?createGRBMidPhaseAndData@TetrahedronMeshBuilder@physx@@SA_NIAEAVTetrahedronMeshData@Gu@2@AEAVSoftBodyCollisionData@42@AEBUPxCookingParams@2@@Z 0000000180198ff0 f   GuCookingTetrahedronMesh.obj
 0001:00198d40       ?createMidPhaseStructure@BV32TetrahedronMeshBuilder@physx@@SA_NAEBUPxCookingParams@2@AEAVTetrahedronMeshData@Gu@2@AEAVBV32Tree@52@AEAVSoftBodyCollisionData@52@@Z 0000000180199d40 f   GuCookingTetrahedronMesh.obj
 0001:00199010       ?createMidPhaseStructure@TetrahedronMeshBuilder@physx@@SA_NAEAVTetrahedronMeshData@Gu@2@AEAVSoftBodyCollisionData@42@AEBUPxCookingParams@2@@Z 000000018019a010 f   GuCookingTetrahedronMesh.obj
 0001:00199ce0       ?getData@CollisionTetrahedronMeshData@Gu@physx@@UEAAPEAVPxSoftBodyCollisionData@3@XZ 000000018019ace0 f i GuCookingTetrahedronMesh.obj
 0001:00199ce0       ?getData@CollisionTetrahedronMeshData@Gu@physx@@UEBAPEBVPxSoftBodyCollisionData@3@XZ 000000018019ace0 f i GuCookingTetrahedronMesh.obj
 0001:00199ce0       ?getData@SimulationTetrahedronMeshData@Gu@physx@@UEAAPEAVPxSoftBodySimulationData@3@XZ 000000018019ace0 f i GuCookingTetrahedronMesh.obj
 0001:00199d00       ?importMesh@TetrahedronMeshBuilder@physx@@SA_NAEBVPxTetrahedronMeshDesc@2@AEBUPxCookingParams@2@AEAVTetrahedronMeshData@Gu@2@AEAVSoftBodyCollisionData@62@_N@Z 000000018019ad00 f   GuCookingTetrahedronMesh.obj
 0001:0019a000       ?isValid@PxTetrahedronMeshDesc@physx@@QEBA_NXZ 000000018019b000 f i GuCookingTetrahedronMesh.obj
 0001:0019a080       ?loadFromDesc@TetrahedronMeshBuilder@physx@@SA_NAEBVPxTetrahedronMeshDesc@2@0VPxSoftBodySimulationDataDesc@2@AEAVTetrahedronMeshData@Gu@2@AEAVSoftBodySimulationData@62@2AEAVSoftBodyCollisionData@62@AEAVCollisionMeshMappingData@62@AEBUPxCookingParams@2@_N@Z 000000018019b080 f   GuCookingTetrahedronMesh.obj
 0001:0019a1f0       ?release@CollisionTetrahedronMeshData@Gu@physx@@UEAAXXZ 000000018019b1f0 f i GuCookingTetrahedronMesh.obj
 0001:0019a210       ?reserveInternal@?$PxHashBase@V?$PxPair@$$CBVSortedTriangleInds@@I@physx@@VSortedTriangleInds@@USortedTriangleIndsHash@@UGetKey@?$PxHashMapBase@VSortedTriangleInds@@IUSortedTriangleIndsHash@@VPxAllocator@physx@@@2@VPxAllocator@2@$00@physx@@AEAAXI@Z 000000018019b210 f i GuCookingTetrahedronMesh.obj
 0001:0019a450       ?saveSoftBodyMeshData@TetrahedronMeshBuilder@physx@@SA_NAEAVPxOutputStream@2@_NAEBUPxCookingParams@2@AEBVTetrahedronMeshData@Gu@2@AEBVSoftBodySimulationData@62@3AEBVSoftBodyCollisionData@62@AEBVCollisionMeshMappingData@62@@Z 000000018019b450 f   GuCookingTetrahedronMesh.obj
 0001:0019ab60       ?saveTetrahedronMeshData@TetrahedronMeshBuilder@physx@@SA_NAEAVPxOutputStream@2@_NAEBUPxCookingParams@2@AEBVTetrahedronMeshData@Gu@2@@Z 000000018019bb60 f   GuCookingTetrahedronMesh.obj
 0001:0019ad10       ?smoothMassRatiosWhilePreservingTotalMass@@YAXPEAMIPEBIHMM@Z 000000018019bd10 f   GuCookingTetrahedronMesh.obj
 0001:0019b1b0       ?support@?$LocalConvex@VTetrahedronV@Gu@physx@@@Gu@physx@@UEBA?AT__m128@@AEBT4@@Z 000000018019c1b0 f i GuCookingTetrahedronMesh.obj
 0001:0019b270       ?support@?$LocalConvex@VTetrahedronV@Gu@physx@@@Gu@physx@@UEBA?AT__m128@@AEBT4@AEAH@Z 000000018019c270 f i GuCookingTetrahedronMesh.obj
 0001:0019b420       assembleSoftBodyMesh       000000018019c420 f   GuCookingTetrahedronMesh.obj
 0001:0019b480       assembleSoftBodyMesh_Sim   000000018019c480 f   GuCookingTetrahedronMesh.obj
 0001:0019b530       computeCollisionData       000000018019c530 f   GuCookingTetrahedronMesh.obj
 0001:0019b730       computeModelsMapping       000000018019c730 f   GuCookingTetrahedronMesh.obj
 0001:0019b830       computeSimulationData      000000018019c830 f   GuCookingTetrahedronMesh.obj
 0001:0019ba00       cookSoftBodyMesh           000000018019ca00 f   GuCookingTetrahedronMesh.obj
 0001:0019c020       cookTetrahedronMesh        000000018019d020 f   GuCookingTetrahedronMesh.obj
 0001:0019c110       createSoftBodyMesh         000000018019d110 f   GuCookingTetrahedronMesh.obj
 0001:0019c7b0       createTetrahedronMesh      000000018019d7b0 f   GuCookingTetrahedronMesh.obj
 0001:0019e490       ?computeVolumeIntegrals@physx@@YA_NAEBVPxSimpleTriangleMesh@1@MAEAUPxIntegrals@1@@Z 000000018019f490 f   GuCookingVolumeIntegration.obj
 0001:0019e4d0       ?computeVolumeIntegralsEberly@physx@@YA_NAEBVPxConvexMeshDesc@1@MAEAUPxIntegrals@1@AEBV?$PxVec3T@M@1@_N@Z 000000018019f4d0 f   GuCookingVolumeIntegration.obj
 0001:0019eb30       ??0QuickHull@local@@QEAA@AEBUPxCookingParams@physx@@AEBVPxConvexMeshDesc@3@@Z 000000018019fb30 f   GuCookingQuickHullConvexHullLib.obj
 0001:0019ebe0       ??0QuickHullConvexHullLib@physx@@QEAA@AEBVPxConvexMeshDesc@1@AEBUPxCookingParams@1@@Z 000000018019fbe0 f   GuCookingQuickHullConvexHullLib.obj
 0001:0019ecc0       ??1?$MemBlock@UQuickHullFace@local@@$00@local@@QEAA@XZ 000000018019fcc0 f i GuCookingQuickHullConvexHullLib.obj
 0001:0019ecc0       ??1?$MemBlock@UQuickHullHalfEdge@local@@$0A@@local@@QEAA@XZ 000000018019fcc0 f i GuCookingQuickHullConvexHullLib.obj
 0001:0019ed80       ??1QuickHull@local@@QEAA@XZ 000000018019fd80 f   GuCookingQuickHullConvexHullLib.obj
 0001:0019eee0       ??_GConvexHull@physx@@QEAAPEAXI@Z 000000018019fee0 f i GuCookingQuickHullConvexHullLib.obj
 0001:0019efd0       ??_EConvexHullLib@physx@@UEAAPEAXI@Z 000000018019ffd0 f i GuCookingQuickHullConvexHullLib.obj
 0001:0019efd0       ??_GConvexHullLib@physx@@UEAAPEAXI@Z 000000018019ffd0 f i GuCookingQuickHullConvexHullLib.obj
 0001:0019f010       ??_EQuickHullConvexHullLib@physx@@UEAAPEAXI@Z 00000001801a0010 f i GuCookingQuickHullConvexHullLib.obj
 0001:0019f010       ??_GQuickHullConvexHullLib@physx@@UEAAPEAXI@Z 00000001801a0010 f i GuCookingQuickHullConvexHullLib.obj
 0001:0019f130       ?addPointToHull@QuickHull@local@@IEAA_NPEBUQuickHullVertex@2@AEAUQuickHullFace@2@AEA_N@Z 00000001801a0130 f   GuCookingQuickHullConvexHullLib.obj
 0001:0019f400       ?addSimplex@QuickHull@local@@IEAA_NPEAUQuickHullVertex@2@_N@Z 00000001801a0400 f   GuCookingQuickHullConvexHullLib.obj
 0001:0019f910       ?allocate@?$PxArray@PEAUQuickHullFace@local@@V?$PxReflectionAllocator@PEAUQuickHullFace@local@@@physx@@@physx@@IEAAPEAPEAUQuickHullFace@local@@I@Z 00000001801a0910 f i GuCookingQuickHullConvexHullLib.obj
 0001:0019f9a0       ?allocate@?$PxArray@PEAUQuickHullHalfEdge@local@@V?$PxReflectionAllocator@PEAUQuickHullHalfEdge@local@@@physx@@@physx@@IEAAPEAPEAUQuickHullHalfEdge@local@@I@Z 00000001801a09a0 f i GuCookingQuickHullConvexHullLib.obj
 0001:0019fa30       ?allocate@?$PxArray@PEAUQuickHullVertex@local@@V?$PxReflectionAllocator@PEAUQuickHullVertex@local@@@physx@@@physx@@IEAAPEAPEAUQuickHullVertex@local@@I@Z 00000001801a0a30 f i GuCookingQuickHullConvexHullLib.obj
 0001:0019fac0       ?allocate@?$PxArray@UExpandPoint@local@@V?$PxReflectionAllocator@UExpandPoint@local@@@physx@@@physx@@IEAAPEAUExpandPoint@local@@I@Z 00000001801a0ac0 f i GuCookingQuickHullConvexHullLib.obj
 0001:0019fb50       ?allocate@?$PxArray@VPxPlane@physx@@V?$PxReflectionAllocator@VPxPlane@physx@@@2@@physx@@IEAAPEAVPxPlane@2@I@Z 00000001801a0b50 f i GuCookingQuickHullConvexHullLib.obj
 0001:0019fbe0       ?buildHull@QuickHull@local@@QEAA?AW4Enum@QuickHullResult@2@XZ 00000001801a0be0 f   GuCookingQuickHullConvexHullLib.obj
 0001:0019fe30       ?calculateHorizon@QuickHull@local@@IEAAXAEBV?$PxVec3T@M@physx@@PEAUQuickHullHalfEdge@2@AEAUQuickHullFace@2@AEAV?$PxArray@PEAUQuickHullHalfEdge@local@@V?$PxReflectionAllocator@PEAUQuickHullHalfEdge@local@@@physx@@@4@AEAV?$PxArray@PEAUQuickHullFace@local@@V?$PxReflectionAllocator@PEAUQuickHullFace@local@@@physx@@@4@@Z 00000001801a0e30 f   GuCookingQuickHullConvexHullLib.obj
 0001:0019ffe0       ?canMergeFaces@QuickHull@local@@IEAA_NAEBUQuickHullHalfEdge@2@@Z 00000001801a0fe0 f   GuCookingQuickHullConvexHullLib.obj
 0001:001a0810       ?cleanupForSimplex@QuickHullConvexHullLib@physx@@IEAA_NPEAV?$PxVec3T@M@2@IPEAUQuickHullVertex@local@@1AEAM2@Z 00000001801a1810 f   GuCookingQuickHullConvexHullLib.obj
 0001:001a1460       ?computeMinMaxVerts@QuickHull@local@@IEAAXXZ 00000001801a2460 f   GuCookingQuickHullConvexHullLib.obj
 0001:001a1830       ?connectHalfEdges@QuickHullFace@local@@AEAAPEAU12@PEAUQuickHullHalfEdge@2@0@Z 00000001801a2830 f   GuCookingQuickHullConvexHullLib.obj
 0001:001a1ba0       ?copy@?$PxArray@UExpandPoint@local@@V?$PxReflectionAllocator@UExpandPoint@local@@@physx@@@physx@@KAXPEAUExpandPoint@local@@0PEBU34@@Z 00000001801a2ba0 f i GuCookingQuickHullConvexHullLib.obj
 0001:001a1c50       ?copy@?$PxArray@VPxPlane@physx@@V?$PxReflectionAllocator@VPxPlane@physx@@@2@@physx@@KAXPEAVPxPlane@2@0PEBV32@@Z 00000001801a2c50 f i GuCookingQuickHullConvexHullLib.obj
 0001:001a1d50       ?createConvexHull@QuickHullConvexHullLib@physx@@UEAA?AW4Enum@PxConvexMeshCookingResult@2@XZ 00000001801a2d50 f   GuCookingQuickHullConvexHullLib.obj
 0001:001a2160       ?createEdgeList@QuickHullConvexHullLib@physx@@UEAA_NIPEBEPEAPEAEPEAPEAG2@Z 00000001801a3160 f   GuCookingQuickHullConvexHullLib.obj
 0001:001a2380       ?createTriangle@QuickHull@local@@IEAAPEAUQuickHullFace@2@AEBUQuickHullVertex@2@00@Z 00000001801a3380 f   GuCookingQuickHullConvexHullLib.obj
 0001:001a2750       ?doAdjacentMerge@QuickHull@local@@IEAA_NAEAUQuickHullFace@2@_NAEA_N@Z 00000001801a3750 f   GuCookingQuickHullConvexHullLib.obj
 0001:001a2aa0       ?expandHull@QuickHullConvexHullLib@physx@@IEAA?AW4Enum@PxConvexMeshCookingResult@2@XZ 00000001801a3aa0 f   GuCookingQuickHullConvexHullLib.obj
 0001:001a33e0       ?expandHullOBB@QuickHullConvexHullLib@physx@@IEAA?AW4Enum@PxConvexMeshCookingResult@2@XZ 00000001801a43e0 f   GuCookingQuickHullConvexHullLib.obj
 0001:001a3820       ?fillConvexMeshDesc@QuickHullConvexHullLib@physx@@UEAAXAEAVPxConvexMeshDesc@2@@Z 00000001801a4820 f   GuCookingQuickHullConvexHullLib.obj
 0001:001a3870       ?fillConvexMeshDescFromCroppedHull@QuickHullConvexHullLib@physx@@IEAAXAEAVPxConvexMeshDesc@2@@Z 00000001801a4870 f   GuCookingQuickHullConvexHullLib.obj
 0001:001a3a60       ?fillConvexMeshDescFromQuickHull@QuickHullConvexHullLib@physx@@IEAAXAEAVPxConvexMeshDesc@2@@Z 00000001801a4a60 f   GuCookingQuickHullConvexHullLib.obj
 0001:001a3de0       ?findSimplex@QuickHull@local@@IEAA_NXZ 00000001801a4de0 f   GuCookingQuickHullConvexHullLib.obj
 0001:001a4a80       ?getFreeItem@?$MemBlock@UQuickHullFace@local@@$00@local@@QEAAPEAUQuickHullFace@2@XZ 00000001801a5a80 f i GuCookingQuickHullConvexHullLib.obj
 0001:001a4bb0       ?getFreeItem@?$MemBlock@UQuickHullHalfEdge@local@@$0A@@local@@QEAAPEAUQuickHullHalfEdge@2@XZ 00000001801a5bb0 f i GuCookingQuickHullConvexHullLib.obj
 0001:001a4c80       ?growAndPushBack@?$PxArray@PEAUQuickHullFace@local@@V?$PxReflectionAllocator@PEAUQuickHullFace@local@@@physx@@@physx@@IEAAAEAPEAUQuickHullFace@local@@AEBQEAU34@@Z 00000001801a5c80 f i GuCookingQuickHullConvexHullLib.obj
 0001:001a4d40       ?growAndPushBack@?$PxArray@PEAUQuickHullHalfEdge@local@@V?$PxReflectionAllocator@PEAUQuickHullHalfEdge@local@@@physx@@@physx@@IEAAAEAPEAUQuickHullHalfEdge@local@@AEBQEAU34@@Z 00000001801a5d40 f i GuCookingQuickHullConvexHullLib.obj
 0001:001a4e00       ?growAndPushBack@?$PxArray@PEAUQuickHullVertex@local@@V?$PxReflectionAllocator@PEAUQuickHullVertex@local@@@physx@@@physx@@IEAAAEAPEAUQuickHullVertex@local@@AEBQEAU34@@Z 00000001801a5e00 f i GuCookingQuickHullConvexHullLib.obj
 0001:001a4ec0       ?growAndPushBack@?$PxArray@UExpandPoint@local@@V?$PxReflectionAllocator@UExpandPoint@local@@@physx@@@physx@@IEAAAEAUExpandPoint@local@@AEBU34@@Z 00000001801a5ec0 f i GuCookingQuickHullConvexHullLib.obj
 0001:001a4fc0       ?growAndPushBack@?$PxArray@VPxPlane@physx@@V?$PxReflectionAllocator@VPxPlane@physx@@@2@@physx@@IEAAAEAVPxPlane@2@AEBV32@@Z 00000001801a5fc0 f i GuCookingQuickHullConvexHullLib.obj
 0001:001a5080       ?init@?$MemBlock@UQuickHullFace@local@@$00@local@@QEAAXI@Z 00000001801a6080 f i GuCookingQuickHullConvexHullLib.obj
 0001:001a5180       ?init@?$MemBlock@UQuickHullHalfEdge@local@@$0A@@local@@QEAAXI@Z 00000001801a6180 f i GuCookingQuickHullConvexHullLib.obj
 0001:001a5220       ?mergeAdjacentFace@QuickHullFace@local@@QEAA_NPEAUQuickHullHalfEdge@2@AEAV?$PxArray@PEAUQuickHullFace@local@@V?$PxReflectionAllocator@PEAUQuickHullFace@local@@@physx@@@physx@@@Z 00000001801a6220 f   GuCookingQuickHullConvexHullLib.obj
 0001:001a5680       ?nextPointToAdd@QuickHull@local@@IEAAPEAUQuickHullVertex@2@AEAPEAUQuickHullFace@2@@Z 00000001801a6680 f   GuCookingQuickHullConvexHullLib.obj
 0001:001a5800       ?parseInputVertices@QuickHull@local@@QEAAXPEBV?$PxVec3T@M@physx@@I@Z 00000001801a6800 f   GuCookingQuickHullConvexHullLib.obj
 0001:001a5980       ?postMergeHull@QuickHull@local@@IEAAXXZ 00000001801a6980 f   GuCookingQuickHullConvexHullLib.obj
 0001:001a5be0       ?preallocate@QuickHull@local@@QEAAXI@Z 00000001801a6be0 f   GuCookingQuickHullConvexHullLib.obj
 0001:001a5d20       ?recreate@?$PxArray@PEAUQuickHullFace@local@@V?$PxReflectionAllocator@PEAUQuickHullFace@local@@@physx@@@physx@@IEAAXI@Z 00000001801a6d20 f i GuCookingQuickHullConvexHullLib.obj
 0001:001a5dc0       ?recreate@?$PxArray@PEAUQuickHullHalfEdge@local@@V?$PxReflectionAllocator@PEAUQuickHullHalfEdge@local@@@physx@@@physx@@IEAAXI@Z 00000001801a6dc0 f i GuCookingQuickHullConvexHullLib.obj
 0001:001a5e60       ?recreate@?$PxArray@PEAUQuickHullVertex@local@@V?$PxReflectionAllocator@PEAUQuickHullVertex@local@@@physx@@@physx@@IEAAXI@Z 00000001801a6e60 f i GuCookingQuickHullConvexHullLib.obj
 0001:001a5f00       ?recreate@?$PxArray@UExpandPoint@local@@V?$PxReflectionAllocator@UExpandPoint@local@@@physx@@@physx@@IEAAXI@Z 00000001801a6f00 f i GuCookingQuickHullConvexHullLib.obj
 0001:001a5f90       ?recreate@?$PxArray@VPxPlane@physx@@V?$PxReflectionAllocator@VPxPlane@physx@@@2@@physx@@IEAAXI@Z 00000001801a6f90 f i GuCookingQuickHullConvexHullLib.obj
 0001:001a6020       ?resolveUnclaimedPoints@QuickHull@local@@IEAAXAEBV?$PxArray@PEAUQuickHullFace@local@@V?$PxReflectionAllocator@PEAUQuickHullFace@local@@@physx@@@physx@@@Z 00000001801a7020 f   GuCookingQuickHullConvexHullLib.obj
 0001:001a62a0       ??$copy@V?$PxReflectionAllocator@VPair@@@physx@@@?$PxArray@VPair@@V?$PxReflectionAllocator@VPair@@@physx@@@physx@@IEAAXAEBV01@@Z 00000001801a72a0 f i GuCookingConvexPolygonsBuilder.obj
 0001:001a6320       ??0ConvexPolygonsBuilder@physx@@QEAA@PEAUConvexHullData@Gu@1@_N@Z 00000001801a7320 f   GuCookingConvexPolygonsBuilder.obj
 0001:001a6340       ??1ConvexPolygonsBuilder@physx@@QEAA@XZ 00000001801a7340 f   GuCookingConvexPolygonsBuilder.obj
 0001:001a6b90       ?allocate@?$PxArray@VPair@@V?$PxReflectionAllocator@VPair@@@physx@@@physx@@IEAAPEAVPair@@I@Z 00000001801a7b90 f i GuCookingConvexPolygonsBuilder.obj
 0001:001a7670       ?computeHullPolygons@ConvexPolygonsBuilder@physx@@QEAA_NAEBIPEBV?$PxVec3T@M@2@0PEBI@Z 00000001801a8670 f   GuCookingConvexPolygonsBuilder.obj
 0001:001a8930       ?createPolygonData@ConvexPolygonsBuilder@physx@@AEAA_NXZ 00000001801a9930 f   GuCookingConvexPolygonsBuilder.obj
 0001:001a9390       ?createTrianglesFromPolygons@ConvexPolygonsBuilder@physx@@AEAA_NXZ 00000001801aa390 f   GuCookingConvexPolygonsBuilder.obj
 0001:001aaa10       ?growAndPushBack@?$PxArray@VPair@@V?$PxReflectionAllocator@VPair@@@physx@@@physx@@IEAAAEAVPair@@AEBV3@@Z 00000001801aba10 f i GuCookingConvexPolygonsBuilder.obj
 0001:001aaba0       ??0ConvexMeshBuilder@physx@@QEAA@_N@Z 00000001801abba0 f   GuCookingConvexMeshBuilder.obj
 0001:001aac10       ??1ConvexMeshBuilder@physx@@QEAA@XZ 00000001801abc10 f   GuCookingConvexMeshBuilder.obj
 0001:001ab0a0       ?build@ConvexMeshBuilder@physx@@QEAA_NAEBVPxConvexMeshDesc@2@I_NPEAVConvexHullLib@2@@Z 00000001801ac0a0 f   GuCookingConvexMeshBuilder.obj
 0001:001ab430       ?checkExtentRadiusRatio@ConvexMeshBuilder@physx@@QEAA_NXZ 00000001801ac430 f   GuCookingConvexMeshBuilder.obj
 0001:001ab460       ?computeHullPolygons@ConvexMeshBuilder@physx@@QEAA_NAEBIPEBV?$PxVec3T@M@2@0PEBIAEAVPxAllocatorCallback@2@AEAIAEAPEAV32@4AEAPEAI4AEAPEAUPxHullPolygon@2@@Z 00000001801ac460 f   GuCookingConvexMeshBuilder.obj
 0001:001ab670       ?computeMassInfo@ConvexMeshBuilder@physx@@QEAAX_N@Z 00000001801ac670 f   GuCookingConvexMeshBuilder.obj
 0001:001aba10       ?computeSDF@ConvexMeshBuilder@physx@@QEAAXAEBVPxConvexMeshDesc@2@@Z 00000001801aca10 f   GuCookingConvexMeshBuilder.obj
 0001:001abed0       ?copy@ConvexMeshBuilder@physx@@QEAA_NAEAUConvexHullInitData@Gu@2@@Z 00000001801aced0 f   GuCookingConvexMeshBuilder.obj
 0001:001ac030       ?loadConvexHull@ConvexMeshBuilder@physx@@QEAA_NAEBVPxConvexMeshDesc@2@PEAVConvexHullLib@2@@Z 00000001801ad030 f   GuCookingConvexMeshBuilder.obj
 0001:001ac280       ?save@ConvexMeshBuilder@physx@@QEBA_NAEAVPxOutputStream@2@_N@Z 00000001801ad280 f   GuCookingConvexMeshBuilder.obj
 0001:001ac6a0       ??0ConvexHull@physx@@QEAA@AEBV?$PxVec3T@M@1@AEBV?$PxTransformT@M@1@AEBV?$PxArray@VPxPlane@physx@@V?$PxReflectionAllocator@VPxPlane@physx@@@2@@1@@Z 00000001801ad6a0 f   GuCookingConvexHullUtils.obj
 0001:001ad7c0       ?allocate@?$PxArray@VHalfEdge@ConvexHull@physx@@V?$PxReflectionAllocator@VHalfEdge@ConvexHull@physx@@@3@@physx@@IEAAPEAVHalfEdge@ConvexHull@2@I@Z 00000001801ae7c0 f i GuCookingConvexHullUtils.obj
 0001:001ad850       ?assertIntact@ConvexHull@physx@@QEBA_NM@Z 00000001801ae850 f   GuCookingConvexHullUtils.obj
 0001:001adb70       ?computeOBBFromConvex@physx@@YA_NAEBVPxConvexMeshDesc@1@AEAV?$PxVec3T@M@1@AEAV?$PxTransformT@M@1@@Z 00000001801aeb70 f   GuCookingConvexHullUtils.obj
 0001:001ae1d0       ?computeOBBSIMD@local@@YAXIPEBT__m128@@AEAT2@AEBT2@1@Z 00000001801af1d0 f   GuCookingConvexHullUtils.obj
 0001:001ae580       ?convexHullCrop@physx@@YAPEAVConvexHull@1@AEBV21@AEBVPxPlane@1@M@Z 00000001801af580 f   GuCookingConvexHullUtils.obj
 0001:001af380       ?findCandidatePlane@ConvexHull@physx@@QEBAHMM@Z 00000001801b0380 f   GuCookingConvexHullUtils.obj
 0001:001af7d0       ?growAndPushBack@?$PxArray@VHalfEdge@ConvexHull@physx@@V?$PxReflectionAllocator@VHalfEdge@ConvexHull@physx@@@3@@physx@@IEAAAEAVHalfEdge@ConvexHull@2@AEBV342@@Z 00000001801b07d0 f i GuCookingConvexHullUtils.obj
 0001:001af890       ?maxNumVertsPerFace@ConvexHull@physx@@QEBAIXZ 00000001801b0890 f   GuCookingConvexHullUtils.obj
 0001:001af900       ?recreate@?$PxArray@VHalfEdge@ConvexHull@physx@@V?$PxReflectionAllocator@VHalfEdge@ConvexHull@physx@@@3@@physx@@IEAAXI@Z 00000001801b0900 f i GuCookingConvexHullUtils.obj
 0001:001af9a0       ?resize@?$PxArray@VHalfEdge@ConvexHull@physx@@V?$PxReflectionAllocator@VHalfEdge@ConvexHull@physx@@@3@@physx@@QEAAXIAEBVHalfEdge@ConvexHull@2@@Z 00000001801b09a0 f i GuCookingConvexHullUtils.obj
 0001:001afa60       ?resize@?$PxArray@VPxPlane@physx@@V?$PxReflectionAllocator@VPxPlane@physx@@@2@@physx@@QEAAXIAEBVPxPlane@2@@Z 00000001801b0a60 f i GuCookingConvexHullUtils.obj
 0001:001afb80       ??1ConvexHullLib@physx@@UEAA@XZ 00000001801b0b80 f   GuCookingConvexHullLib.obj
 0001:001b0170       ?cleanupVertices@ConvexHullLib@physx@@IEAA_NIPEBV?$PxVec3T@M@2@IAEAIPEAV32@@Z 00000001801b1170 f   GuCookingConvexHullLib.obj
 0001:001b02b0       ?shiftAndcleanupVertices@ConvexHullLib@physx@@IEAA_NIPEBV?$PxVec3T@M@2@IAEAIPEAV32@@Z 00000001801b12b0 f   GuCookingConvexHullLib.obj
 0001:001b0890       ?shiftConvexMeshDesc@ConvexHullLib@physx@@IEAAXAEAVPxConvexMeshDesc@2@@Z 00000001801b1890 f   GuCookingConvexHullLib.obj
 0001:001b0950       ?swapLargestFace@ConvexHullLib@physx@@IEAAXAEAVPxConvexMeshDesc@2@@Z 00000001801b1950 f   GuCookingConvexHullLib.obj
 0001:001b0b80       ??0ConvexHullBuilder@physx@@QEAA@PEAUConvexHullData@Gu@1@_N@Z 00000001801b1b80 f   GuCookingConvexHullBuilder.obj
 0001:001b0bb0       ??1ConvexHullBuilder@physx@@QEAA@XZ 00000001801b1bb0 f   GuCookingConvexHullBuilder.obj
 0001:001b0cc0       ?calculateVertexMapTable@ConvexHullBuilder@physx@@QEAA_NI_N@Z 00000001801b1cc0 f   GuCookingConvexHullBuilder.obj
 0001:001b0e80       ?checkHullPolygons@ConvexHullBuilder@physx@@QEBA_NXZ 00000001801b1e80 f   GuCookingConvexHullBuilder.obj
 0001:001b1440       ?copy@ConvexHullBuilder@physx@@QEAA_NAEAUConvexHullData@Gu@2@AEAI@Z 00000001801b2440 f   GuCookingConvexHullBuilder.obj
 0001:001b16b0       ?createEdgeList@ConvexHullBuilder@physx@@QEAA_N_NI@Z 00000001801b26b0 f   GuCookingConvexHullBuilder.obj
 0001:001b1df0       ?init@ConvexHullBuilder@physx@@QEAA_NIPEBV?$PxVec3T@M@2@PEBIIIPEBUPxHullPolygon@2@_NPEAVConvexHullLib@2@@Z 00000001801b2df0 f   GuCookingConvexHullBuilder.obj
 0001:001b2730       ?save@ConvexHullBuilder@physx@@QEBA_NAEAVPxOutputStream@2@_N@Z 00000001801b3730 f   GuCookingConvexHullBuilder.obj
 0001:001b2a50       ??0BigConvexDataBuilder@physx@@QEAA@PEBUConvexHullData@Gu@1@PEAVBigConvexData@1@PEBV?$PxVec3T@M@1@@Z 00000001801b3a50 f   GuCookingBigConvexDataBuilder.obj
 0001:001b2a60       ?computeValencies@BigConvexDataBuilder@physx@@QEAA_NAEBVConvexHullBuilder@2@@Z 00000001801b3a60 f   GuCookingBigConvexDataBuilder.obj
 0001:001b2e50       ?precompute@BigConvexDataBuilder@physx@@QEAA_NI@Z 00000001801b3e50 f   GuCookingBigConvexDataBuilder.obj
 0001:001b3a40       ?save@BigConvexDataBuilder@physx@@QEBA_NAEAVPxOutputStream@2@_N@Z 00000001801b4a40 f   GuCookingBigConvexDataBuilder.obj
 0001:001b3c2e       __imp_load_PxGetFoundation 00000001801b4c2e f   PhysXFoundation_64:PhysXFoundation_64.dll
 0001:001b3c3a       __tailMerge_physxfoundation_64_dll 00000001801b4c3a     PhysXFoundation_64:PhysXFoundation_64.dll
 0001:001b3cb3       __imp_load_PxGetBroadcastAllocator 00000001801b4cb3 f   PhysXFoundation_64:PhysXFoundation_64.dll
 0001:001b3cbf       __imp_load_?PxAtomicIncrement@physx@@YAHPECH@Z 00000001801b4cbf f   PhysXFoundation_64:PhysXFoundation_64.dll
 0001:001b3ccb       __imp_load_??0PxMutexImpl@physx@@QEAA@XZ 00000001801b4ccb f   PhysXFoundation_64:PhysXFoundation_64.dll
 0001:001b3cd7       __imp_load_??1PxMutexImpl@physx@@QEAA@XZ 00000001801b4cd7 f   PhysXFoundation_64:PhysXFoundation_64.dll
 0001:001b3ce3       __imp_load_?lock@PxMutexImpl@physx@@QEAAXXZ 00000001801b4ce3 f   PhysXFoundation_64:PhysXFoundation_64.dll
 0001:001b3cef       __imp_load_?unlock@PxMutexImpl@physx@@QEAAXXZ 00000001801b4cef f   PhysXFoundation_64:PhysXFoundation_64.dll
 0001:001b3cfb       __imp_load_?getSize@PxMutexImpl@physx@@SAIXZ 00000001801b4cfb f   PhysXFoundation_64:PhysXFoundation_64.dll
 0001:001b3d07       __imp_load_?PxTransformFromSegment@physx@@YA?AV?$PxTransformT@M@1@AEBV?$PxVec3T@M@1@0PEAM@Z 00000001801b4d07 f   PhysXFoundation_64:PhysXFoundation_64.dll
 0001:001b3d13       __imp_load_?PxAtomicAdd@physx@@YAHPECHH@Z 00000001801b4d13 f   PhysXFoundation_64:PhysXFoundation_64.dll
 0001:001b3d1f       __imp_load_?getDefaultStackSize@PxThreadImpl@physx@@SAIXZ 00000001801b4d1f f   PhysXFoundation_64:PhysXFoundation_64.dll
 0001:001b3d2b       __imp_load_??0PxThreadImpl@physx@@QEAA@P6APEAXPEAX@Z0PEBD@Z 00000001801b4d2b f   PhysXFoundation_64:PhysXFoundation_64.dll
 0001:001b3d37       __imp_load_??1PxThreadImpl@physx@@QEAA@XZ 00000001801b4d37 f   PhysXFoundation_64:PhysXFoundation_64.dll
 0001:001b3d43       __imp_load_?start@PxThreadImpl@physx@@QEAAXIPEAVPxRunnable@2@@Z 00000001801b4d43 f   PhysXFoundation_64:PhysXFoundation_64.dll
 0001:001b3d4f       __imp_load_?waitForQuit@PxThreadImpl@physx@@QEAA_NXZ 00000001801b4d4f f   PhysXFoundation_64:PhysXFoundation_64.dll
 0001:001b3d5b       __imp_load_?getSize@PxThreadImpl@physx@@SAIXZ 00000001801b4d5b f   PhysXFoundation_64:PhysXFoundation_64.dll
 0001:001b3d67       __imp_load_?allocate@PxTempAllocator@physx@@QEAAPEAX_KPEBDH@Z 00000001801b4d67 f   PhysXFoundation_64:PhysXFoundation_64.dll
 0001:001b3d73       __imp_load_?deallocate@PxTempAllocator@physx@@QEAAXPEAX@Z 00000001801b4d73 f   PhysXFoundation_64:PhysXFoundation_64.dll
 0001:001b3d7f       __imp_load_?PxOptimizeBoundingBox@physx@@YA?AV?$PxVec3T@M@1@AEAV?$PxMat33T@M@1@@Z 00000001801b4d7f f   PhysXFoundation_64:PhysXFoundation_64.dll
 0001:001b3d8b       __imp_load_?Pxstrcmp@physx@@YAHPEBD0@Z 00000001801b4d8b f   PhysXFoundation_64:PhysXFoundation_64.dll
 0001:001b3d97       __imp_load_?PxAtomicDecrement@physx@@YAHPECH@Z 00000001801b4d97 f   PhysXFoundation_64:PhysXFoundation_64.dll
 0001:001b3da3       __imp_load_??0PxFPUGuard@physx@@QEAA@XZ 00000001801b4da3 f   PhysXFoundation_64:PhysXFoundation_64.dll
 0001:001b3daf       __imp_load_??1PxFPUGuard@physx@@QEAA@XZ 00000001801b4daf f   PhysXFoundation_64:PhysXFoundation_64.dll
 0001:001b3dbb       __imp_load_?PxDiagonalize@physx@@YA?AV?$PxVec3T@M@1@AEBV?$PxMat33T@M@1@AEAV?$PxQuatT@M@1@@Z 00000001801b4dbb f   PhysXFoundation_64:PhysXFoundation_64.dll
 0001:001b3dc8       ?DloadAcquireSectionWriteAccess@@YAXXZ 00000001801b4dc8 f i Delayimp:delayhlp.obj
 0001:001b3e74       ?DloadGetSRWLockFunctionPointers@@YAEXZ 00000001801b4e74 f i Delayimp:delayhlp.obj
 0001:001b3f14       ?DloadMakePermanentImageCommit@@YAXPEAX_K@Z 00000001801b4f14 f i Delayimp:delayhlp.obj
 0001:001b3fac       ?DloadObtainSection@@YAPEAXPEAK0@Z 00000001801b4fac f i Delayimp:delayhlp.obj
 0001:001b4048       ?DloadProtectSection@@YAXKPEAK@Z 00000001801b5048 f i Delayimp:delayhlp.obj
 0001:001b40d8       ?DloadReleaseSectionWriteAccess@@YAXXZ 00000001801b50d8 f i Delayimp:delayhlp.obj
 0001:001b416c       __delayLoadHelper2         00000001801b516c f   Delayimp:delayhlp.obj
 0001:001b4444       ??3@YAXPEAX_K@Z            00000001801b5444 f   MSVCRT:delete_scalar_size.obj
 0001:001b4444       ??_V@YAXPEAX@Z             00000001801b5444 f   MSVCRT:delete_array.obj
 0001:001b444c       ??_Etype_info@@UEAAPEAXI@Z 00000001801b544c f i MSVCRT:std_type_info_static.obj
 0001:001b444c       ??_Gtype_info@@UEAAPEAXI@Z 00000001801b544c f i MSVCRT:std_type_info_static.obj
 0001:001b4478       ?__scrt_initialize_type_info@@YAXXZ 00000001801b5478 f   MSVCRT:tncleanup.obj
 0001:001b4488       ?__scrt_uninitialize_type_info@@YAXXZ 00000001801b5488 f   MSVCRT:tncleanup.obj
 0001:001b44b0       __chkstk                   00000001801b54b0 f   MSVCRT:chkstk.obj
 0001:001b44b0       _alloca_probe              00000001801b54b0 f   MSVCRT:chkstk.obj
 0001:001b4500       __vdecl_sinf4              00000001801b5500 f   MSVCRT:svml_ssinf4_dispatch.obj
 0001:001b4520       __libm_sse2_sincosf_       00000001801b5520 f   MSVCRT:svml_ssinf4_dispatch.obj
 0001:001b4563       __libm_sse2_sincosf4_      00000001801b5563 f   MSVCRT:svml_ssinf4_dispatch.obj
 0001:001b4570       ??3@YAXPEAX@Z              00000001801b5570 f   MSVCRT:delete_scalar.obj
 0001:001b4578       __scrt_acquire_startup_lock 00000001801b5578 f   MSVCRT:utility.obj
 0001:001b45b4       __scrt_dllmain_after_initialize_c 00000001801b55b4 f   MSVCRT:utility.obj
 0001:001b45e8       __scrt_dllmain_before_initialize_c 00000001801b55e8 f   MSVCRT:utility.obj
 0001:001b4600       __scrt_dllmain_crt_thread_attach 00000001801b5600 f   MSVCRT:utility.obj
 0001:001b4628       __scrt_dllmain_crt_thread_detach 00000001801b5628 f   MSVCRT:utility.obj
 0001:001b4640       __scrt_dllmain_exception_filter 00000001801b5640 f   MSVCRT:utility.obj
 0001:001b46a0       __scrt_dllmain_uninitialize_c 00000001801b56a0 f   MSVCRT:utility.obj
 0001:001b46d0       __scrt_dllmain_uninitialize_critical 00000001801b56d0 f   MSVCRT:utility.obj
 0001:001b46e4       __scrt_initialize_crt      00000001801b56e4 f   MSVCRT:utility.obj
 0001:001b4730       __scrt_initialize_onexit_tables 00000001801b5730 f   MSVCRT:utility.obj
 0001:001b47bc       __scrt_is_nonwritable_in_current_image 00000001801b57bc f   MSVCRT:utility.obj
 0001:001b4854       __scrt_release_startup_lock 00000001801b5854 f   MSVCRT:utility.obj
 0001:001b4878       __scrt_uninitialize_crt    00000001801b5878 f   MSVCRT:utility.obj
 0001:001b48a4       _onexit                    00000001801b58a4 f   MSVCRT:utility.obj
 0001:001b48e0       atexit                     00000001801b58e0 f   MSVCRT:utility.obj
 0001:001b48f8       __isa_available_init       00000001801b58f8 f   MSVCRT:cpu_disp.obj
 0001:001b4dc4       _DllMainCRTStartup         00000001801b5dc4 f   MSVCRT:dll_dllmain.obj
 0001:001b4e10       __sse2_sinf4@@16           00000001801b5e10 f   MSVCRT:svml_ssinf4_sse2.obj
 0001:001b5750       __sse4_sinf4@@16           00000001801b6750 f   MSVCRT:svml_ssinf4_sse4.obj
 0001:001b5ec4       __scrt_is_ucrt_dll_in_use  00000001801b6ec4 f   MSVCRT:ucrt_detection.obj
 0001:001b5ed0       __crt_debugger_hook        00000001801b6ed0 f   MSVCRT:utility_desktop.obj
 0001:001b5ed8       __scrt_fastfail            00000001801b6ed8 f   MSVCRT:utility_desktop.obj
 0001:001b6024       __security_init_cookie     00000001801b7024 f   MSVCRT:gs_support.obj
 0001:001b60d0       DllMain                    00000001801b70d0 f   MSVCRT:dll_dllmain_stub.obj
 0001:001b60f4       __local_stdio_scanf_options 00000001801b70f4 f i MSVCRT:default_local_stdio_options.obj
 0001:001b60fc       __scrt_initialize_default_local_stdio_options 00000001801b70fc f   MSVCRT:default_local_stdio_options.obj
 0001:001b6118       __scrt_get_dyn_tls_init_callback 00000001801b7118 f   MSVCRT:dyn_tls_init.obj
 0001:001b6120       _RTC_Initialize            00000001801b7120 f   MSVCRT:initsect.obj
 0001:001b615c       _RTC_Terminate             00000001801b715c f   MSVCRT:initsect.obj
 0001:001b61a0       __common_ssin_cout_rare    00000001801b71a0 f   MSVCRT:svml_s_sin_cout.obj
 0001:001b6210       memcpy                     00000001801b7210 f   vcruntime:VCRUNTIME140.dll
 0001:001b6216       _purecall                  00000001801b7216 f   vcruntime:VCRUNTIME140.dll
 0001:001b621c       __std_type_info_name       00000001801b721c f   vcruntime:VCRUNTIME140.dll
 0001:001b6222       memset                     00000001801b7222 f   vcruntime:VCRUNTIME140.dll
 0001:001b6228       strstr                     00000001801b7228 f   vcruntime:VCRUNTIME140.dll
 0001:001b622e       __std_type_info_destroy_list 00000001801b722e f   vcruntime:VCRUNTIME140.dll
 0001:001b6234       __C_specific_handler       00000001801b7234 f   vcruntime:VCRUNTIME140.dll
 0001:001b623a       tanf                       00000001801b723a f   ucrt:api-ms-win-crt-math-l1-1-0.dll
 0001:001b6240       powf                       00000001801b7240 f   ucrt:api-ms-win-crt-math-l1-1-0.dll
 0001:001b6246       atan2f                     00000001801b7246 f   ucrt:api-ms-win-crt-math-l1-1-0.dll
 0001:001b624c       acosf                      00000001801b724c f   ucrt:api-ms-win-crt-math-l1-1-0.dll
 0001:001b6252       free                       00000001801b7252 f   ucrt:api-ms-win-crt-heap-l1-1-0.dll
 0001:001b6258       _seh_filter_dll            00000001801b7258 f   ucrt:api-ms-win-crt-runtime-l1-1-0.dll
 0001:001b625e       _configure_narrow_argv     00000001801b725e f   ucrt:api-ms-win-crt-runtime-l1-1-0.dll
 0001:001b6264       _initialize_narrow_environment 00000001801b7264 f   ucrt:api-ms-win-crt-runtime-l1-1-0.dll
 0001:001b626a       _initialize_onexit_table   00000001801b726a f   ucrt:api-ms-win-crt-runtime-l1-1-0.dll
 0001:001b6270       _register_onexit_function  00000001801b7270 f   ucrt:api-ms-win-crt-runtime-l1-1-0.dll
 0001:001b6276       _execute_onexit_table      00000001801b7276 f   ucrt:api-ms-win-crt-runtime-l1-1-0.dll
 0001:001b627c       _crt_atexit                00000001801b727c f   ucrt:api-ms-win-crt-runtime-l1-1-0.dll
 0001:001b6282       _cexit                     00000001801b7282 f   ucrt:api-ms-win-crt-runtime-l1-1-0.dll
 0001:001b6288       _initterm                  00000001801b7288 f   ucrt:api-ms-win-crt-runtime-l1-1-0.dll
 0001:001b628e       _initterm_e                00000001801b728e f   ucrt:api-ms-win-crt-runtime-l1-1-0.dll
 0001:001b6294       __acrt_initialize          00000001801b7294 f   MSVCRT:ucrt_stubs.obj
 0001:001b6294       __acrt_thread_attach       00000001801b7294 f   MSVCRT:ucrt_stubs.obj
 0001:001b6294       __acrt_thread_detach       00000001801b7294 f   MSVCRT:ucrt_stubs.obj
 0001:001b6294       __acrt_uninitialize        00000001801b7294 f   MSVCRT:ucrt_stubs.obj
 0001:001b6294       __acrt_uninitialize_critical 00000001801b7294 f   MSVCRT:ucrt_stubs.obj
 0001:001b6294       __scrt_stub_for_acrt_initialize 00000001801b7294 f   MSVCRT:ucrt_stubs.obj
 0001:001b6294       __scrt_stub_for_acrt_thread_attach 00000001801b7294 f   MSVCRT:ucrt_stubs.obj
 0001:001b6294       __scrt_stub_for_acrt_thread_detach 00000001801b7294 f   MSVCRT:ucrt_stubs.obj
 0001:001b6294       __scrt_stub_for_acrt_uninitialize 00000001801b7294 f   MSVCRT:ucrt_stubs.obj
 0001:001b6294       __scrt_stub_for_acrt_uninitialize_critical 00000001801b7294 f   MSVCRT:ucrt_stubs.obj
 0001:001b6294       __vcrt_initialize          00000001801b7294 f   MSVCRT:ucrt_stubs.obj
 0001:001b6294       __vcrt_thread_attach       00000001801b7294 f   MSVCRT:ucrt_stubs.obj
 0001:001b6294       __vcrt_thread_detach       00000001801b7294 f   MSVCRT:ucrt_stubs.obj
 0001:001b6294       __vcrt_uninitialize        00000001801b7294 f   MSVCRT:ucrt_stubs.obj
 0001:001b6294       __vcrt_uninitialize_critical 00000001801b7294 f   MSVCRT:ucrt_stubs.obj
 0001:001b62b0       _guard_dispatch_icall_nop  00000001801b72b0 f   MSVCRT:guard_dispatch.obj
 0001:001b62d0       _guard_xfg_dispatch_icall_nop 00000001801b72d0 f   MSVCRT:guard_xfg_dispatch.obj
 0002:00000000       __imp_GetLastError         00000001801b8000     kernel32:KERNEL32.dll
 0002:00000008       __imp_FreeLibrary          00000001801b8008     kernel32:KERNEL32.dll
 0002:00000010       __imp_GetProcAddress       00000001801b8010     kernel32:KERNEL32.dll
 0002:00000018       __imp_LoadLibraryA         00000001801b8018     kernel32:KERNEL32.dll
 0002:00000020       __imp_GetSystemTimeAsFileTime 00000001801b8020     kernel32:KERNEL32.dll
 0002:00000028       __imp_GetCurrentThreadId   00000001801b8028     kernel32:KERNEL32.dll
 0002:00000030       __imp_GetCurrentProcessId  00000001801b8030     kernel32:KERNEL32.dll
 0002:00000038       __imp_QueryPerformanceCounter 00000001801b8038     kernel32:KERNEL32.dll
 0002:00000040       __imp_IsProcessorFeaturePresent 00000001801b8040     kernel32:KERNEL32.dll
 0002:00000048       __imp_SetUnhandledExceptionFilter 00000001801b8048     kernel32:KERNEL32.dll
 0002:00000050       __imp_UnhandledExceptionFilter 00000001801b8050     kernel32:KERNEL32.dll
 0002:00000058       __imp_IsDebuggerPresent    00000001801b8058     kernel32:KERNEL32.dll
 0002:00000060       __imp_RtlVirtualUnwind     00000001801b8060     kernel32:KERNEL32.dll
 0002:00000068       __imp_RtlLookupFunctionEntry 00000001801b8068     kernel32:KERNEL32.dll
 0002:00000070       __imp_RtlCaptureContext    00000001801b8070     kernel32:KERNEL32.dll
 0002:00000078       __imp_InitializeSListHead  00000001801b8078     kernel32:KERNEL32.dll
 0002:00000080       __imp_LoadLibraryExA       00000001801b8080     kernel32:KERNEL32.dll
 0002:00000088       __imp_GetModuleHandleW     00000001801b8088     kernel32:KERNEL32.dll
 0002:00000090       __imp_VirtualQuery         00000001801b8090     kernel32:KERNEL32.dll
 0002:00000098       __imp_VirtualProtect       00000001801b8098     kernel32:KERNEL32.dll
 0002:000000a0       __imp_GetSystemInfo        00000001801b80a0     kernel32:KERNEL32.dll
 0002:000000a8       __imp_RaiseException       00000001801b80a8     kernel32:KERNEL32.dll
 0002:000000b0       __imp_DisableThreadLibraryCalls 00000001801b80b0     kernel32:KERNEL32.dll
 0002:000000b8       \177KERNEL32_NULL_THUNK_DATA 00000001801b80b8     kernel32:KERNEL32.dll
 0002:000000c0       __imp___std_type_info_destroy_list 00000001801b80c0     vcruntime:VCRUNTIME140.dll
 0002:000000c8       __imp_memcpy               00000001801b80c8     vcruntime:VCRUNTIME140.dll
 0002:000000d0       __imp__purecall            00000001801b80d0     vcruntime:VCRUNTIME140.dll
 0002:000000d8       __imp___std_type_info_name 00000001801b80d8     vcruntime:VCRUNTIME140.dll
 0002:000000e0       __imp_memset               00000001801b80e0     vcruntime:VCRUNTIME140.dll
 0002:000000e8       __imp_strstr               00000001801b80e8     vcruntime:VCRUNTIME140.dll
 0002:000000f0       __imp___C_specific_handler 00000001801b80f0     vcruntime:VCRUNTIME140.dll
 0002:000000f8       \177VCRUNTIME140_NULL_THUNK_DATA 00000001801b80f8     vcruntime:VCRUNTIME140.dll
 0002:00000100       __imp_free                 00000001801b8100     ucrt:api-ms-win-crt-heap-l1-1-0.dll
 0002:00000108       \177api-ms-win-crt-heap-l1-1-0_NULL_THUNK_DATA 00000001801b8108     ucrt:api-ms-win-crt-heap-l1-1-0.dll
 0002:00000110       __imp_acosf                00000001801b8110     ucrt:api-ms-win-crt-math-l1-1-0.dll
 0002:00000118       __imp_tanf                 00000001801b8118     ucrt:api-ms-win-crt-math-l1-1-0.dll
 0002:00000120       __imp_atan2f               00000001801b8120     ucrt:api-ms-win-crt-math-l1-1-0.dll
 0002:00000128       __imp_powf                 00000001801b8128     ucrt:api-ms-win-crt-math-l1-1-0.dll
 0002:00000130       __imp__fpclass             00000001801b8130     ucrt:api-ms-win-crt-math-l1-1-0.dll
 0002:00000138       \177api-ms-win-crt-math-l1-1-0_NULL_THUNK_DATA 00000001801b8138     ucrt:api-ms-win-crt-math-l1-1-0.dll
 0002:00000140       __imp__configure_narrow_argv 00000001801b8140     ucrt:api-ms-win-crt-runtime-l1-1-0.dll
 0002:00000148       __imp__initialize_narrow_environment 00000001801b8148     ucrt:api-ms-win-crt-runtime-l1-1-0.dll
 0002:00000150       __imp__seh_filter_dll      00000001801b8150     ucrt:api-ms-win-crt-runtime-l1-1-0.dll
 0002:00000158       __imp__cexit               00000001801b8158     ucrt:api-ms-win-crt-runtime-l1-1-0.dll
 0002:00000160       __imp__initterm_e          00000001801b8160     ucrt:api-ms-win-crt-runtime-l1-1-0.dll
 0002:00000168       __imp__initterm            00000001801b8168     ucrt:api-ms-win-crt-runtime-l1-1-0.dll
 0002:00000170       __imp__execute_onexit_table 00000001801b8170     ucrt:api-ms-win-crt-runtime-l1-1-0.dll
 0002:00000178       __imp__crt_atexit          00000001801b8178     ucrt:api-ms-win-crt-runtime-l1-1-0.dll
 0002:00000180       __imp__register_onexit_function 00000001801b8180     ucrt:api-ms-win-crt-runtime-l1-1-0.dll
 0002:00000188       __imp__initialize_onexit_table 00000001801b8188     ucrt:api-ms-win-crt-runtime-l1-1-0.dll
 0002:00000190       \177api-ms-win-crt-runtime-l1-1-0_NULL_THUNK_DATA 00000001801b8190     ucrt:api-ms-win-crt-runtime-l1-1-0.dll
 0002:00000198       __imp___acrt_iob_func      00000001801b8198     ucrt:api-ms-win-crt-stdio-l1-1-0.dll
 0002:000001a0       __imp___stdio_common_vfprintf 00000001801b81a0     ucrt:api-ms-win-crt-stdio-l1-1-0.dll
 0002:000001a8       \177api-ms-win-crt-stdio-l1-1-0_NULL_THUNK_DATA 00000001801b81a8     ucrt:api-ms-win-crt-stdio-l1-1-0.dll
 0002:000001b0       __guard_check_icall_fptr   00000001801b81b0     MSVCRT:guard_support.obj
 0002:000001b8       __guard_xfg_check_icall_fptr 00000001801b81b8     MSVCRT:guard_support.obj
 0002:000001c0       __guard_dispatch_icall_fptr 00000001801b81c0     MSVCRT:guard_support.obj
 0002:000001c8       __guard_xfg_dispatch_icall_fptr 00000001801b81c8     MSVCRT:guard_support.obj
 0002:000001d0       __guard_xfg_table_dispatch_icall_fptr 00000001801b81d0     MSVCRT:guard_support.obj
 0002:000001d8       __castguard_check_failure_os_handled_fptr 00000001801b81d8     MSVCRT:guard_support.obj
 0002:000001e0       __guard_memcpy_fptr        00000001801b81e0     vcruntime:softmemtag.obj
 0002:000001e8       __xc_a                     00000001801b81e8     MSVCRT:initializers.obj
 0002:00001bc0       __xc_z                     00000001801b9bc0     MSVCRT:initializers.obj
 0002:00001bc8       __xi_a                     00000001801b9bc8     MSVCRT:initializers.obj
 0002:00001bd0       __xi_z                     00000001801b9bd0     MSVCRT:initializers.obj
 0002:00001bd8       __xp_a                     00000001801b9bd8     MSVCRT:initializers.obj
 0002:00001be0       __xp_z                     00000001801b9be0     MSVCRT:initializers.obj
 0002:00001be8       __xt_a                     00000001801b9be8     MSVCRT:initializers.obj
 0002:00001bf0       __xt_z                     00000001801b9bf0     MSVCRT:initializers.obj
 0002:00001c00       ??_C@_08MDGMHCHN@PtrTable@ 00000001801b9c00     CmPtrTable.obj
 0002:00001c0c       ??_C@_04GKJNKENE@void@     00000001801b9c0c     CmPtrTable.obj
 0002:00001c18       ??_C@_07DFEBJDHE@mSingle@  00000001801b9c18     CmPtrTable.obj
 0002:00001c20       ??_C@_05NLHHBMOH@PxU16@    00000001801b9c20     CmPtrTable.obj
 0002:00001c28       ??_C@_06EPKHJPIM@mCount@   00000001801b9c28     CmPtrTable.obj
 0002:00001c30       ??_C@_04DDKJGDCM@bool@     00000001801b9c30     CmPtrTable.obj
 0002:00001c38       ??_C@_0M@DAGELID@mOwnsMemory@ 00000001801b9c38     CmPtrTable.obj
 0002:00001c48       ??_C@_0M@MMPOMMLP@mBufferUsed@ 00000001801b9c48     CmPtrTable.obj
 0002:00001c54       ??_C@_05LMJPANIN@PxU32@    00000001801b9c54     CmPtrTable.obj
 0002:00001c60       ??_C@_09PMLNMEMN@mFreeSlot@ 00000001801b9c60     CmPtrTable.obj
 0002:00001c70       ??_7PxCollection@physx@@6B@ 00000001801b9c70     CmCollection.obj
 0002:00001cf0       ??_C@_00CNPNBAHC@@         00000001801b9cf0     CmCollection.obj
 0002:00001cf8       ??_7Collection@Cm@physx@@6B@ 00000001801b9cf8     CmCollection.obj
 0002:00001d80       ??_C@_0GE@GBACBMOC@PxCollection?3?3add?5called?5for?5an@ 00000001801b9d80     CmCollection.obj
 0002:00001df0       ??_C@_0EP@HGIALHLJ@C?3?2Users?2livinamuk?2Desktop?2Phys@ 00000001801b9df0     CmCollection.obj
 0002:00001e40       ??_C@_0EM@OMMGDOMK@PxCollection?3?3add?5called?5with?5a@ 00000001801b9e40     CmCollection.obj
 0002:00001e90       ??_C@_0FB@POMCDOBI@C?3?2Users?2livinamuk?2Desktop?2Phys@ 00000001801b9e90     CmCollection.obj
 0002:00001ee8       ??_C@_0BM@OIFKLHDN@?$DMallocation?5names?5disabled?$DO@ 00000001801b9ee8     CmCollection.obj
 0002:00001f08       ??_7RadixSort@Cm@physx@@6B@ 00000001801b9f08     CmRadixSort.obj
 0002:00001f10       ??_7RadixSortBuffered@Cm@physx@@6B@ 00000001801b9f10     CmRadixSort.obj
 0002:00001f20       ??_C@_0EO@IEGGELHB@C?3?2Users?2livinamuk?2Desktop?2Phys@ 00000001801b9f20     CmRadixSort.obj
 0002:00001f70       __xmm@00000001000000010000000100000001 00000001801b9f70     CmRadixSort.obj
 0002:00001f80       __xmm@00000003000000020000000100000000 00000001801b9f80     CmRadixSort.obj
 0002:00001f90       __real@3d4ccccd            00000001801b9f90     CmVisualization.obj
 0002:00001f94       __real@3e19999a            00000001801b9f94     CmVisualization.obj
 0002:00001f98       __real@3e490fdb            00000001801b9f98     CmVisualization.obj
 0002:00001f9c       __real@3e800000            00000001801b9f9c     CmVisualization.obj
 0002:00001fa0       __real@3e99999a            00000001801b9fa0     CmVisualization.obj
 0002:00001fa4       __real@3ea0d97c            00000001801b9fa4     CmVisualization.obj
 0002:00001fa8       __real@3eddb3d7            00000001801b9fa8     CmVisualization.obj
 0002:00001fac       __real@3f3504f3            00000001801b9fac     CmVisualization.obj
 0002:00001fb0       __real@3f800000            00000001801b9fb0     CmVisualization.obj
 0002:00001fb4       __real@3fc00000            00000001801b9fb4     CmVisualization.obj
 0002:00001fb8       __real@3fddb3d7            00000001801b9fb8     CmVisualization.obj
 0002:00001fbc       __real@40100000            00000001801b9fbc     CmVisualization.obj
 0002:00001fc0       __real@40c90fdb            00000001801b9fc0     CmVisualization.obj
 0002:00001fc4       __real@bfddb3d7            00000001801b9fc4     CmVisualization.obj
 0002:00001fc8       __real@c0000000            00000001801b9fc8     CmVisualization.obj
 0002:00001fd0       __xmm@3f800000000000000000000000000000 00000001801b9fd0     CmVisualization.obj
 0002:00001fe0       __xmm@7fffffff7fffffff7fffffff7fffffff 00000001801b9fe0     CmVisualization.obj
 0002:00001ff0       __xmm@80000000800000008000000080000000 00000001801b9ff0     CmVisualization.obj
 0002:00002000       ??_C@_0BB@CPDDPFKD@GetUpdatedModule@ 00000001801ba000     CmWindowsModuleUpdateLoader.obj
 0002:00002020       ??_C@_0GG@OBNNDFLJ@C?3?2Users?2livinamuk?2Desktop?2Phys@ 00000001801ba020     CmWindowsModuleUpdateLoader.obj
 0002:00002088       ??_C@_0CP@PGOIOJOO@?$CFs?3?$CFi?3?5loadLibrary?5error?5when?5l@ 00000001801ba088     CmWindowsModuleUpdateLoader.obj
 0002:000020b8       ??_C@_0BA@EGLNOO@PhysXFoundation@ 00000001801ba0b8     CmWindowsDelayLoadHook.obj
 0002:000020c8       ??_C@_0M@ILKNCJKN@PhysXCommon@ 00000001801ba0c8     CmWindowsDelayLoadHook.obj
 0002:00002100       __real@3f000000            00000001801ba100     GuBox.obj
 0002:00002104       __real@3f7ff972            00000001801ba104     GuBox.obj
 0002:00002110       __xmm@000000003a83126f3a83126f3a83126f 00000001801ba110     GuBox.obj
 0002:00002120       __xmm@00000000ba83126fba83126fba83126f 00000001801ba120     GuBox.obj
 0002:00002130       __xmm@3a83126f3a83126f3a83126f3a83126f 00000001801ba130     GuBox.obj
 0002:00002140       __xmm@ba83126fba83126fba83126fba83126f 00000001801ba140     GuBox.obj
 0002:00002170       ??_7EntityReport@Gu@physx@@6B@ 00000001801ba170     GuSweepsHF.obj
 0002:00002170       ??_7OverlapCallback@PxBVH@physx@@6B@ 00000001801ba170     GuQuerySystem.obj
 0002:00002170       ??_7OverlapReport@Gu@physx@@6B@ 00000001801ba170     GuCCTSweepTests.obj
 0002:00002170       ??_7RaycastCallback@PxBVH@physx@@6B@ 00000001801ba170     GuQuerySystem.obj
 0002:00002170       ??_7RemapCallback@RTreeCooker@physx@@6B@ 00000001801ba170     GuCookingTriangleMesh.obj
 0002:00002190       __real@3b03126f            00000001801ba190     GuCCTSweepTests.obj
 0002:00002194       __real@40000000            00000001801ba194     GuCCTSweepTests.obj
 0002:000021d0       ??_7SupportLocal@Gu@physx@@6B@ 00000001801ba1d0     GuGeometryQuery.obj
 0002:000021f0       ??_7?$SupportLocalImpl@VBoxV@Gu@physx@@@Gu@physx@@6B@ 00000001801ba1f0     GuGeometryQuery.obj
 0002:00002210       ??_7?$SupportLocalImpl@VConvexHullV@Gu@physx@@@Gu@physx@@6B@ 00000001801ba210     GuGeometryQuery.obj
 0002:00002230       ??_C@_0EJ@PKDKJGKF@C?3?2Users?2livinamuk?2Desktop?2Phys@ 00000001801ba230     GuGeometryQuery.obj
 0002:0000227c       __real@30d1b7e9            00000001801ba27c     GuGeometryQuery.obj
 0002:00002280       __real@322bcc77            00000001801ba280     GuGeometryQuery.obj
 0002:00002284       __real@358637bd            00000001801ba284     GuGeometryQuery.obj
 0002:00002288       __real@3a83126f            00000001801ba288     GuGeometryQuery.obj
 0002:0000228c       __real@3ccccccd            00000001801ba28c     GuGeometryQuery.obj
 0002:00002290       __real@3dcccccd            00000001801ba290     GuGeometryQuery.obj
 0002:00002294       __real@49742400            00000001801ba294     GuGeometryQuery.obj
 0002:00002298       __real@7f7fffff            00000001801ba298     GuGeometryQuery.obj
 0002:0000229c       __real@bf800000            00000001801ba29c     GuGeometryQuery.obj
 0002:000022a0       __xmm@0000000000000000000000003f800000 00000001801ba2a0     GuGeometryQuery.obj
 0002:000022b0       __xmm@00000000000000003f80000000000000 00000001801ba2b0     GuGeometryQuery.obj
 0002:000022c0       __xmm@00000000000000003f8000003f800000 00000001801ba2c0     GuGeometryQuery.obj
 0002:000022d0       __xmm@000000003f8000000000000000000000 00000001801ba2d0     GuGeometryQuery.obj
 0002:000022e0       __xmm@000000003f8000003f8000003f800000 00000001801ba2e0     GuGeometryQuery.obj
 0002:000022f0       __xmm@00000000ffffffffffffffffffffffff 00000001801ba2f0     GuGeometryQuery.obj
 0002:00002300       __xmm@3d4ccccd3d4ccccd3d4ccccd3d4ccccd 00000001801ba300     GuGeometryQuery.obj
 0002:00002310       __xmm@3e19999a3e19999a3e19999a3e19999a 00000001801ba310     GuGeometryQuery.obj
 0002:00002320       __xmm@3e4ccccd3e4ccccd3e4ccccd3e4ccccd 00000001801ba320     GuGeometryQuery.obj
 0002:00002330       __xmm@3e8000003e8000003e8000003e800000 00000001801ba330     GuGeometryQuery.obj
 0002:00002340       __xmm@3f7ef9db3f7ef9db3f7ef9db3f7ef9db 00000001801ba340     GuGeometryQuery.obj
 0002:00002350       __xmm@3f7ff2e53f7ff2e53f7ff2e53f7ff2e5 00000001801ba350     GuGeometryQuery.obj
 0002:00002360       __xmm@3f8000003f8000003f8000003f800000 00000001801ba360     GuGeometryQuery.obj
 0002:00002370       __xmm@7f7fffff7f7fffff7f7fffff7f7fffff 00000001801ba370     GuGeometryQuery.obj
 0002:00002380       __xmm@bf000000bf000000bf000000bf000000 00000001801ba380     GuGeometryQuery.obj
 0002:000023b0       ??_C@_0FD@MBAMHJOC@C?3?2Users?2livinamuk?2Desktop?2Phys@ 00000001801ba3b0     GuMeshFactory.obj
 0002:00002420       ??_C@_0EM@BDFDGBD@Inserting?5object?5failed?3?5Object@ 00000001801ba420     GuMeshFactory.obj
 0002:00002490       ??_7CallbackRaycast@RTree@Gu@physx@@6B@ 00000001801ba490     GuMidphaseRTree.obj
 0002:00002490       ??_7CallbackRefit@RTree@Gu@physx@@6B@ 00000001801ba490     GuTriangleMeshRTree.obj
 0002:00002490       ??_7PxInsertionCallback@physx@@6B@ 00000001801ba490     GuMeshFactory.obj
 0002:000024a0       ??_7PxCollisionMeshMappingData@physx@@6B@ 00000001801ba4a0     GuMeshFactory.obj
 0002:000024b0       ??_7MeshFactory@Gu@physx@@6B@ 00000001801ba4b0     GuMeshFactory.obj
 0002:000024b8       ??_7MeshDataBase@Gu@physx@@6B@ 00000001801ba4b8     GuMeshFactory.obj
 0002:000024c0       ??_C@_0FD@CPNKHHGF@C?3?2Users?2livinamuk?2Desktop?2Phys@ 00000001801ba4c0     GuMeshFactory.obj
 0002:00002518       ??_7TriangleMeshData@Gu@physx@@6B@ 00000001801ba518     GuMeshFactory.obj
 0002:00002520       ??_7RTreeTriangleData@Gu@physx@@6B@ 00000001801ba520     GuMeshFactory.obj
 0002:00002528       ??_7BV4TriangleData@Gu@physx@@6B@ 00000001801ba528     GuMeshFactory.obj
 0002:00002530       ??_7SoftBodyCollisionData@Gu@physx@@6B@ 00000001801ba530     GuMeshFactory.obj
 0002:00002538       ??_7CollisionMeshMappingData@Gu@physx@@6B@ 00000001801ba538     GuMeshFactory.obj
 0002:00002548       ??_7SoftBodySimulationData@Gu@physx@@6B@ 00000001801ba548     GuMeshFactory.obj
 0002:00002550       ??_C@_0GP@NHELMDAL@Loading?5triangle?5mesh?5failed?3?5D@ 00000001801ba550     GuMeshFactory.obj
 0002:000025c0       ??_C@_0BP@CDOKDACA@RTree?5binary?5image?5load?5error?4@ 00000001801ba5c0     GuMeshFactory.obj
 0002:000025e0       ??_C@_0BN@MJPNIELF@BV4?5binary?5image?5load?5error?4@ 00000001801ba5e0     GuMeshFactory.obj
 0002:00002600       ??_C@_0BO@JDPABAOF@BV32?5binary?5image?5load?5error?4@ 00000001801ba600     GuMeshFactory.obj
 0002:00002620       ??_C@_0EJ@PDFHJPNM@C?3?2Users?2livinamuk?2Desktop?2Phys@ 00000001801ba620     GuMeshFactory.obj
 0002:00002670       __xmm@fe7fffff7e7fffff7e7fffff7e7fffff 00000001801ba670     GuMeshFactory.obj
 0002:000026a0       ??_C@_06EJKDJEDO@PxBase@   00000001801ba6a0     GuMetaData.obj
 0002:000026a8       ??_C@_07GFCEJNGM@Valency@  00000001801ba6a8     GuMetaData.obj
 0002:000026b0       ??_C@_07NHGKEEIN@mOffset@  00000001801ba6b0     GuMetaData.obj
 0002:000026b8       ??_C@_0BB@BAGHBMNJ@BigConvexRawData@ 00000001801ba6b8     GuMetaData.obj
 0002:000026d0       ??_C@_07PBDEJAAC@mSubdiv@  00000001801ba6d0     GuMetaData.obj
 0002:000026d8       ??_C@_0L@HNPACPGH@mNbSamples@ 00000001801ba6d8     GuMetaData.obj
 0002:000026e4       ??_C@_04NCKNBPPK@PxU8@     00000001801ba6e4     GuMetaData.obj
 0002:000026f0       ??_C@_08DEPEKJNI@mSamples@ 00000001801ba6f0     GuMetaData.obj
 0002:00002700       ??_C@_08IJDNJBMI@mNbVerts@ 00000001801ba700     GuMetaData.obj
 0002:00002710       ??_C@_0M@MMKMIJAF@mNbAdjVerts@ 00000001801ba710     GuMetaData.obj
 0002:00002720       ??_C@_0L@EOKMNILC@mValencies@ 00000001801ba720     GuMetaData.obj
 0002:00002730       ??_C@_0P@DLGEAMHJ@mAdjacentVerts@ 00000001801ba730     GuMetaData.obj
 0002:00002740       ??_C@_04GGOEHDKB@Dim3@     00000001801ba740     GuMetaData.obj
 0002:00002748       ??_C@_01FJMABOPO@x@        00000001801ba748     GuMetaData.obj
 0002:0000274c       ??_C@_01EANLCPLP@y@        00000001801ba74c     GuMetaData.obj
 0002:00002750       ??_C@_01GLPGHMHM@z@        00000001801ba750     GuMetaData.obj
 0002:00002754       ??_C@_03NGLDENDA@SDF@      00000001801ba754     GuMetaData.obj
 0002:00002758       ??_C@_06KDGGGLIJ@PxVec3@   00000001801ba758     GuMetaData.obj
 0002:00002760       ??_C@_0L@COALOJDH@mMeshLower@ 00000001801ba760     GuMetaData.obj
 0002:0000276c       ??_C@_06GIEBFILM@PxReal@   00000001801ba76c     GuMetaData.obj
 0002:00002778       ??_C@_08LAPKNLAN@mSpacing@ 00000001801ba778     GuMetaData.obj
 0002:00002784       ??_C@_05FFBHHGJO@mDims@    00000001801ba784     GuMetaData.obj
 0002:00002790       ??_C@_08BEIPGJN@mNumSdfs@  00000001801ba790     GuMetaData.obj
 0002:0000279c       ??_C@_04PNLOLEIP@mSdf@     00000001801ba79c     GuMetaData.obj
 0002:000027a8       ??_C@_0N@ILJLOAFB@mSubgridSize@ 00000001801ba7a8     GuMetaData.obj
 0002:000027b8       ??_C@_0P@EMNLEPPL@mNumStartSlots@ 00000001801ba7b8     GuMetaData.obj
 0002:000027c8       ??_C@_0BD@BIMMHJEO@mSubgridStartSlots@ 00000001801ba7c8     GuMetaData.obj
 0002:000027e0       ??_C@_0BA@OKNFKLGG@mNumSubgridSdfs@ 00000001801ba7e0     GuMetaData.obj
 0002:000027f0       ??_C@_0M@PGCPOAID@mSubgridSdf@ 00000001801ba7f0     GuMetaData.obj
 0002:00002800       ??_C@_0BK@KJPHDIOI@mSdfSubgrids3DTexBlockDim@ 00000001801ba800     GuMetaData.obj
 0002:00002820       ??_C@_0BF@PONLKCNL@mSubgridsMinSdfValue@ 00000001801ba820     GuMetaData.obj
 0002:00002838       ??_C@_0BF@GOKILCDB@mSubgridsMaxSdfValue@ 00000001801ba838     GuMetaData.obj
 0002:00002850       ??_C@_0BF@NMEHBGBK@mBytesPerSparsePixel@ 00000001801ba850     GuMetaData.obj
 0002:00002868       ??_C@_0O@PFOPBKAM@BigConvexData@ 00000001801ba868     GuMetaData.obj
 0002:00002878       ??_C@_05PLKALGFN@mData@    00000001801ba878     GuMetaData.obj
 0002:00002880       ??_C@_08PEMCLHEM@mVBuffer@ 00000001801ba880     GuMetaData.obj
 0002:00002890       ??_C@_09FBMAGD@Alignment@  00000001801ba890     GuMetaData.obj
 0002:000028a0       ??_C@_0BE@KFHIBEEA@InternalObjectsData@ 00000001801ba8a0     GuMetaData.obj
 0002:000028b8       ??_C@_07NKGFFIBH@mRadius@  00000001801ba8b8     GuMetaData.obj
 0002:000028c0       ??_C@_08EHFCACAE@mExtents@ 00000001801ba8c0     GuMetaData.obj
 0002:000028d0       ??_C@_0BA@LFMGGCBK@HullPolygonData@ 00000001801ba8d0     GuMetaData.obj
 0002:000028e0       ??_C@_06BOHHGLB@mPlane@    00000001801ba8e0     GuMetaData.obj
 0002:000028e8       ??_C@_06EHMLHGLN@mVRef8@   00000001801ba8e8     GuMetaData.obj
 0002:000028f0       ??_C@_09BAHHHINI@mMinIndex@ 00000001801ba8f0     GuMetaData.obj
 0002:00002900       ??_C@_0P@GBLBPIPB@ConvexHullData@ 00000001801ba900     GuMetaData.obj
 0002:00002910       ??_C@_09JDCJAPKD@PxBounds3@ 00000001801ba910     GuMetaData.obj
 0002:0000291c       ??_C@_05NDNHIFA@mAABB@     00000001801ba91c     GuMetaData.obj
 0002:00002928       ??_C@_0O@LNOGEMJI@mCenterOfMass@ 00000001801ba928     GuMetaData.obj
 0002:00002938       ??_C@_09CNMCBBKH@mPolygons@ 00000001801ba938     GuMetaData.obj
 0002:00002948       ??_C@_0BC@KKPDCFJC@mBigConvexRawData@ 00000001801ba948     GuMetaData.obj
 0002:00002960       ??_C@_08MPNAAJLD@mSdfData@ 00000001801ba960     GuMetaData.obj
 0002:00002970       ??_C@_08ELDMKGKH@mNbEdges@ 00000001801ba970     GuMetaData.obj
 0002:00002980       ??_C@_0BA@CGLOHBAC@mNbHullVertices@ 00000001801ba980     GuMetaData.obj
 0002:00002990       ??_C@_0M@HGFFLLDM@mNbPolygons@ 00000001801ba990     GuMetaData.obj
 0002:000029a0       ??_C@_09BHJEMDGO@mInternal@ 00000001801ba9a0     GuMetaData.obj
 0002:000029b0       ??_C@_0L@GMFHOMKA@ConvexMesh@ 00000001801ba9b0     GuMetaData.obj
 0002:000029c0       ??_C@_09ILEBDLJH@mHullData@ 00000001801ba9c0     GuMetaData.obj
 0002:000029cc       ??_C@_03DKDIKGNC@mNb@      00000001801ba9cc     GuMetaData.obj
 0002:000029d0       ??_C@_0P@ENLHFHMD@mBigConvexData@ 00000001801ba9d0     GuMetaData.obj
 0002:000029e0       ??_C@_05ILALLCHK@mMass@    00000001801ba9e0     GuMetaData.obj
 0002:000029e8       ??_C@_07DBPDADGB@PxMat33@  00000001801ba9e8     GuMetaData.obj
 0002:000029f0       ??_C@_08FNBHNDBI@mInertia@ 00000001801ba9f0     GuMetaData.obj
 0002:00002a00       ??_C@_0O@FCKNKLMJ@GuMeshFactory@ 00000001801baa00     GuMetaData.obj
 0002:00002a10       ??_C@_0N@EGBCLMAK@mMeshFactory@ 00000001801baa10     GuMetaData.obj
 0002:00002a20       ??_C@_0BE@CJJAMAMK@PxHeightFieldSample@ 00000001801baa20     GuMetaData.obj
 0002:00002a34       ??_C@_05MBLIPEMA@PxI16@    00000001801baa34     GuMetaData.obj
 0002:00002a3c       ??_C@_06LNLHEAAG@height@   00000001801baa3c     GuMetaData.obj
 0002:00002a48       ??_C@_0N@HHDGHJN@PxBitAndByte@ 00000001801baa48     GuMetaData.obj
 0002:00002a58       ??_C@_0P@MBBMLBO@materialIndex0@ 00000001801baa58     GuMetaData.obj
 0002:00002a68       ??_C@_0P@BFAKPKFP@materialIndex1@ 00000001801baa68     GuMetaData.obj
 0002:00002a78       ??_C@_0BD@EBLPJEOE@PxHeightFieldFlags@ 00000001801baa78     GuMetaData.obj
 0002:00002a90       ??_C@_0BK@FNNCFFCN@PxHeightFieldFormat?3?3Enum@ 00000001801baa90     GuMetaData.obj
 0002:00002ab0       ??_C@_0BA@CLNFMAAA@HeightFieldData@ 00000001801baab0     GuMetaData.obj
 0002:00002ac0       ??_C@_04IMCGAIPI@rows@     00000001801baac0     GuMetaData.obj
 0002:00002ac8       ??_C@_07HIFEPIJN@columns@  00000001801baac8     GuMetaData.obj
 0002:00002ad0       ??_C@_08MOAGOABI@rowLimit@ 00000001801baad0     GuMetaData.obj
 0002:00002ae0       ??_C@_08BAGEHOBO@colLimit@ 00000001801baae0     GuMetaData.obj
 0002:00002af0       ??_C@_09LKDBLADF@nbColumns@ 00000001801baaf0     GuMetaData.obj
 0002:00002b00       ??_C@_07ODIFGGLK@samples@  00000001801bab00     GuMetaData.obj
 0002:00002b08       ??_C@_0BE@POHEGOJG@convexEdgeThreshold@ 00000001801bab08     GuMetaData.obj
 0002:00002b1c       ??_C@_05GECEPKB@flags@     00000001801bab1c     GuMetaData.obj
 0002:00002b24       ??_C@_06DLEPGFEF@format@   00000001801bab24     GuMetaData.obj
 0002:00002b30       ??_C@_0BF@MOGDNMPL@PxMaterialTableIndex@ 00000001801bab30     GuMetaData.obj
 0002:00002b48       ??_C@_0M@JMJICJJO@HeightField@ 00000001801bab48     GuMetaData.obj
 0002:00002b58       ??_C@_0O@ENGHMLJP@mSampleStride@ 00000001801bab58     GuMetaData.obj
 0002:00002b68       ??_C@_0L@EBEEMFFB@mMinHeight@ 00000001801bab68     GuMetaData.obj
 0002:00002b78       ??_C@_0L@EAEIFPOF@mMaxHeight@ 00000001801bab78     GuMetaData.obj
 0002:00002b88       ??_C@_0N@FEFJOKKE@mModifyCount@ 00000001801bab88     GuMetaData.obj
 0002:00002b98       ??_C@_09PHDKHCK@RTreePage@ 00000001801bab98     GuMetaData.obj
 0002:00002ba4       ??_C@_04LLPOBGED@minx@     00000001801baba4     GuMetaData.obj
 0002:00002bac       ??_C@_04KCOFCHAC@miny@     00000001801babac     GuMetaData.obj
 0002:00002bb4       ??_C@_04IJMIHEMB@minz@     00000001801babb4     GuMetaData.obj
 0002:00002bbc       ??_C@_04GGOBOBGO@maxx@     00000001801babbc     GuMetaData.obj
 0002:00002bc4       ??_C@_04HPPKNACP@maxy@     00000001801babc4     GuMetaData.obj
 0002:00002bcc       ??_C@_04FENHIDOM@maxz@     00000001801babcc     GuMetaData.obj
 0002:00002bd4       ??_C@_04HHDFEJON@ptrs@     00000001801babd4     GuMetaData.obj
 0002:00002bdc       ??_C@_05FFEIGAJF@RTree@    00000001801babdc     GuMetaData.obj
 0002:00002be4       ??_C@_06OMCHPNEO@PxVec4@   00000001801babe4     GuMetaData.obj
 0002:00002bf0       ??_C@_0L@NBIFEFLN@mBoundsMin@ 00000001801babf0     GuMetaData.obj
 0002:00002c00       ??_C@_0L@MDAOKBNC@mBoundsMax@ 00000001801bac00     GuMetaData.obj
 0002:00002c10       ??_C@_0N@NJEHLCOF@mInvDiagonal@ 00000001801bac10     GuMetaData.obj
 0002:00002c20       ??_C@_0BA@BEFIGPFG@mDiagonalScaler@ 00000001801bac20     GuMetaData.obj
 0002:00002c30       ??_C@_09DICGGKGO@mPageSize@ 00000001801bac30     GuMetaData.obj
 0002:00002c40       ??_C@_0O@BOFFCNOL@mNumRootPages@ 00000001801bac40     GuMetaData.obj
 0002:00002c50       ??_C@_0L@JKLGBKAE@mNumLevels@ 00000001801bac50     GuMetaData.obj
 0002:00002c60       ??_C@_0M@PHDOHJGK@mTotalNodes@ 00000001801bac60     GuMetaData.obj
 0002:00002c70       ??_C@_0M@GDGHALAO@mTotalPages@ 00000001801bac70     GuMetaData.obj
 0002:00002c7c       ??_C@_06MHCBBJGP@mFlags@   00000001801bac7c     GuMetaData.obj
 0002:00002c84       ??_C@_06MMNBLHOK@mPages@   00000001801bac84     GuMetaData.obj
 0002:00002c90       ??_C@_0P@JNLGHJNH@SourceMeshBase@ 00000001801bac90     GuMetaData.obj
 0002:00002ca0       ??_C@_06JFCLJMNN@mVerts@   00000001801baca0     GuMetaData.obj
 0002:00002ca8       ??_C@_05GNIIDDHH@mType@    00000001801baca8     GuMetaData.obj
 0002:00002cb0       ??_C@_06DHAAKLFK@mRemap@   00000001801bacb0     GuMetaData.obj
 0002:00002cb8       ??_C@_0L@LEOGNOEC@SourceMesh@ 00000001801bacb8     GuMetaData.obj
 0002:00002cc8       ??_C@_07MPIKOOAP@mNbTris@  00000001801bacc8     GuMetaData.obj
 0002:00002cd0       ??_C@_0N@FBMOMEHF@mTriangles32@ 00000001801bacd0     GuMetaData.obj
 0002:00002ce0       ??_C@_0N@DGCGNFBP@mTriangles16@ 00000001801bace0     GuMetaData.obj
 0002:00002cf0       ??_C@_0O@NLNHFNO@QuantizedAABB@ 00000001801bacf0     GuMetaData.obj
 0002:00002d00       ??_C@_0BC@OOGBEMHH@mData?$FL0?$FN?4mExtents@ 00000001801bad00     GuMetaData.obj
 0002:00002d18       ??_C@_0BB@OCEDKIEF@mData?$FL0?$FN?4mCenter@ 00000001801bad18     GuMetaData.obj
 0002:00002d30       ??_C@_0BC@HFMEAABI@mData?$FL1?$FN?4mExtents@ 00000001801bad30     GuMetaData.obj
 0002:00002d48       ??_C@_0BB@CDMNHHIF@mData?$FL1?$FN?4mCenter@ 00000001801bad48     GuMetaData.obj
 0002:00002d60       ??_C@_0BC@CFKNCOI@mData?$FL2?$FN?4mExtents@ 00000001801bad60     GuMetaData.obj
 0002:00002d78       ??_C@_0BB@LKCPBBIE@mData?$FL2?$FN?4mCenter@ 00000001801bad78     GuMetaData.obj
 0002:00002d90       ??_C@_0O@MJJKKPFN@BVDataPackedQ@ 00000001801bad90     GuMetaData.obj
 0002:00002da0       ??_C@_0O@JFMLAIPJ@CenterExtents@ 00000001801bada0     GuMetaData.obj
 0002:00002db0       ??_C@_07GNKDIIKJ@mCenter@  00000001801badb0     GuMetaData.obj
 0002:00002db8       ??_C@_0P@KBMJDPLO@BVDataPackedNQ@ 00000001801badb8     GuMetaData.obj
 0002:00002dc8       ??_C@_0M@PNCEBOG@LocalBounds@ 00000001801badc8     GuMetaData.obj
 0002:00002dd4       ??_C@_05KNFBNCOH@float@    00000001801badd4     GuMetaData.obj
 0002:00002de0       ??_C@_0BC@LADJKHPL@mExtentsMagnitude@ 00000001801bade0     GuMetaData.obj
 0002:00002df8       ??_C@_07HELIOLAF@BV4Tree@  00000001801badf8     GuMetaData.obj
 0002:00002e00       ??_C@_0P@EMMDNPMH@mMeshInterface@ 00000001801bae00     GuMetaData.obj
 0002:00002e10       ??_C@_0N@DCKMHLCL@mLocalBounds@ 00000001801bae10     GuMetaData.obj
 0002:00002e20       ??_C@_08EEJOMIJL@mNbNodes@ 00000001801bae20     GuMetaData.obj
 0002:00002e2c       ??_C@_06FIIIMFIO@mNodes@   00000001801bae2c     GuMetaData.obj
 0002:00002e38       ??_C@_09FGKNPI@mInitData@  00000001801bae38     GuMetaData.obj
 0002:00002e48       ??_C@_0BC@CLDEHKCO@mCenterOrMinCoeff@ 00000001801bae48     GuMetaData.obj
 0002:00002e60       ??_C@_0BD@LAOLBNJ@mExtentsOrMaxCoeff@ 00000001801bae60     GuMetaData.obj
 0002:00002e78       ??_C@_0P@JEECKKBL@mUserAllocated@ 00000001801bae78     GuMetaData.obj
 0002:00002e88       ??_C@_0L@GLIMNECG@mQuantized@ 00000001801bae88     GuMetaData.obj
 0002:00002e98       ??_C@_0L@CCOJDAID@mIsEdgeSet@ 00000001801bae98     GuMetaData.obj
 0002:00002ea8       ??_C@_08BNDBAGDH@mPadding@ 00000001801baea8     GuMetaData.obj
 0002:00002eb8       ??_C@_0N@OJNNNLIB@TriangleMesh@ 00000001801baeb8     GuMetaData.obj
 0002:00002ec8       ??_C@_0M@OGEDMEAL@mNbVertices@ 00000001801baec8     GuMetaData.obj
 0002:00002ed8       ??_C@_0N@MGGDNHNI@mNbTriangles@ 00000001801baed8     GuMetaData.obj
 0002:00002ee8       ??_C@_09LNNEGOJA@mVertices@ 00000001801baee8     GuMetaData.obj
 0002:00002ef8       ??_C@_0L@KBOFAKLO@mTriangles@ 00000001801baef8     GuMetaData.obj
 0002:00002f08       ??_C@_0P@MHDFIHLD@mExtraTrigData@ 00000001801baf08     GuMetaData.obj
 0002:00002f18       ??_C@_0N@MGIKKCI@mGeomEpsilon@ 00000001801baf18     GuMetaData.obj
 0002:00002f28       ??_C@_0BB@IFLOOCNA@mMaterialIndices@ 00000001801baf28     GuMetaData.obj
 0002:00002f40       ??_C@_0L@OPJMBFMI@mFaceRemap@ 00000001801baf40     GuMetaData.obj
 0002:00002f50       ??_C@_0N@BIOECAPM@mAdjacencies@ 00000001801baf50     GuMetaData.obj
 0002:00002f60       ??_C@_09CICJHLPI@mEdgeList@ 00000001801baf60     GuMetaData.obj
 0002:00002f70       ??_C@_0BD@IPKCNNIK@mLocalCenterOfMass@ 00000001801baf70     GuMetaData.obj
 0002:00002f88       ??_C@_0BA@OCOIGPII@mGRB_triIndices@ 00000001801baf88     GuMetaData.obj
 0002:00002f98       ??_C@_0BE@JPINNDAH@mGRB_triAdjacencies@ 00000001801baf98     GuMetaData.obj
 0002:00002fb0       ??_C@_0P@EDFJJHEF@mGRB_faceRemap@ 00000001801bafb0     GuMetaData.obj
 0002:00002fc0       ??_C@_0BG@EEALPPCP@mGRB_faceRemapInverse@ 00000001801bafc0     GuMetaData.obj
 0002:00002fd8       ??_C@_0N@NAKPIGJP@Gu?3?3BV32Tree@ 00000001801bafd8     GuMetaData.obj
 0002:00002fe8       ??_C@_0O@CKMBAIFN@mGRB_BV32Tree@ 00000001801bafe8     GuMetaData.obj
 0002:00002ff8       ??_C@_0BJ@LEBGJKBE@mAccumulatedTrianglesRef@ 00000001801baff8     GuMetaData.obj
 0002:00003018       ??_C@_0BF@OJMCNCDP@mTrianglesReferences@ 00000001801bb018     GuMetaData.obj
 0002:00003030       ??_C@_0BH@LDGPOFA@mNbTrianglesReferences@ 00000001801bb030     GuMetaData.obj
 0002:00003048       ??_C@_0BC@IFGECKF@RTreeTriangleMesh@ 00000001801bb048     GuMetaData.obj
 0002:0000305c       ??_C@_06JDIHDDGN@mRTree@   00000001801bb05c     GuMetaData.obj
 0002:00003068       ??_C@_0BA@LNNFPOKA@BV4TriangleMesh@ 00000001801bb068     GuMetaData.obj
 0002:00003078       ??_C@_08FKLPEGDB@mBV4Tree@ 00000001801bb078     GuMetaData.obj
 0002:00003088       ??_7?$SupportLocalImpl@VConvexHullNoScaleV@Gu@physx@@@Gu@physx@@6B@ 00000001801bb088     GuMTD.obj
 0002:000030d0       ?absMask@?1??FAbs@aos@physx@@YA?AT__m128@@T4@@Z@4QBIB 00000001801bb0d0     GuMTD.obj
 0002:000030e0       ??_7GjkConvex@Gu@physx@@6B@ 00000001801bb0e0     GuMTD.obj
 0002:00003110       ??_7?$LocalConvex@VCapsuleV@Gu@physx@@@Gu@physx@@6B@ 00000001801bb110     GuMTD.obj
 0002:00003140       ??_7?$LocalConvex@VConvexHullV@Gu@physx@@@Gu@physx@@6B@ 00000001801bb140     GuMTD.obj
 0002:00003170       __real@2edbe6ff            00000001801bb170     GuMTD.obj
 0002:00003174       __real@34000000            00000001801bb174     GuMTD.obj
 0002:00003178       __real@ff7fffff            00000001801bb178     GuMTD.obj
 0002:00003180       __xmm@34000000340000003400000034000000 00000001801bb180     GuMTD.obj
 0002:00003190       __xmm@358637bd358637bd358637bd358637bd 00000001801bb190     GuMTD.obj
 0002:000031a0       __xmm@3dcccccd3dcccccd3dcccccd3dcccccd 00000001801bb1a0     GuMTD.obj
 0002:000031b0       __xmm@3f7ff1413f7ff1413f7ff1413f7ff141 00000001801bb1b0     GuMTD.obj
 0002:000031e0       ??_7?$RelativeConvex@VBoxV@Gu@physx@@@Gu@physx@@6B@ 00000001801bb1e0     GuOverlapTests.obj
 0002:00003210       ??_7?$RelativeConvex@VConvexHullV@Gu@physx@@@Gu@physx@@6B@ 00000001801bb210     GuOverlapTests.obj
 0002:00003270       __real@1e3ce508            00000001801bb270     GuRaycastTests.obj
 0002:00003274       __real@28800000            00000001801bb274     GuRaycastTests.obj
 0002:00003278       __real@33d6bf95            00000001801bb278     GuRaycastTests.obj
 0002:0000327c       __real@3727c5ac            00000001801bb27c     GuRaycastTests.obj
 0002:00003280       __real@38d1b717            00000001801bb280     GuRaycastTests.obj
 0002:00003284       __real@3f0147ae            00000001801bb284     GuRaycastTests.obj
 0002:00003288       __real@3f7ffffe            00000001801bb288     GuRaycastTests.obj
 0002:0000328c       __real@3f800347            00000001801bb28c     GuRaycastTests.obj
 0002:00003290       __real@41200000            00000001801bb290     GuRaycastTests.obj
 0002:00003294       __real@80000000            00000001801bb294     GuRaycastTests.obj
 0002:00003298       __real@b3d6bf95            00000001801bb298     GuRaycastTests.obj
 0002:0000329c       __real@b8d1b717            00000001801bb29c     GuRaycastTests.obj
 0002:000032a0       __real@c1200000            00000001801bb2a0     GuRaycastTests.obj
 0002:000032e0       ??_7?$MeshHitCallback@UPxGeomRaycastHit@physx@@@Gu@physx@@6B@ 00000001801bb2e0     GuSweepMTD.obj
 0002:000032f0       ??_7MeshMTDGenerationCallback@@6B@ 00000001801bb2f0     GuSweepMTD.obj
 0002:00003300       ??_7MidPhaseQueryLocalReport@@6B@ 00000001801bb300     GuSweepMTD.obj
 0002:00003310       __real@3f8147ae            00000001801bb310     GuSweepMTD.obj
 0002:00003314       __real@3f933333            00000001801bb314     GuSweepMTD.obj
 0002:00003340       __real@3c23d70a            00000001801bb340     GuSweepSharedTests.obj
 0002:00003344       __real@42c80000            00000001801bb344     GuSweepSharedTests.obj
 0002:00003350       __xmm@ffffffffffffffffffffffffffffffff 00000001801bb350     GuSweepSharedTests.obj
 0002:00003380       ??_7?$LocalConvex@VBoxV@Gu@physx@@@Gu@physx@@6B@ 00000001801bb380     GuSweepTests.obj
 0002:000033b0       ??_7?$LocalConvex@VTriangleV@Gu@physx@@@Gu@physx@@6B@ 00000001801bb3b0     GuSweepTests.obj
 0002:000033e0       __xmm@00000002000000020000000200000002 00000001801bb3e0     GuSweepTests.obj
 0002:000033f0       __xmm@3eaaaa9f3eaaaa9f3eaaaa9f3eaaaa9f 00000001801bb3f0     GuSweepTests.obj
 0002:000034a8       ??_7PxRunnable@physx@@6B@  00000001801bb4a8     GuSDF.obj
 0002:000034c0       ??_C@_0EL@LLLCGONO@C?3?2Users?2livinamuk?2Desktop?2Phys@ 00000001801bb4c0     GuSDF.obj
 0002:00003510       ??_7PointOntoTriangleMeshProjector@Gu@physx@@6B@ 00000001801bb510     GuSDF.obj
 0002:00003528       ??_7?$PxThreadT@V?$PxReflectionAllocator@VPxThreadImpl@physx@@@physx@@@physx@@6B@ 00000001801bb528     GuSDF.obj
 0002:00003538       ??_C@_06FJHNOCKE@thread@   00000001801bb538     GuSDF.obj
 0002:00003540       ??_C@_0BAK@OPLLKLNG@SDF?5creation?3?5Mesh?5is?5not?5suita@ 00000001801bb540     GuSDF.obj
 0002:00003650       ??_C@_0FB@OMEANACP@SDF?5creation?3?5Input?5mesh?5is?5not@ 00000001801bb650     GuSDF.obj
 0002:000036b0       ??_C@_0EK@ELPBHBPN@C?3?2Users?2livinamuk?2Desktop?2Phys@ 00000001801bb6b0     GuSDF.obj
 0002:00003700       ??_C@_0EI@JBNMMEMN@C?3?2Users?2livinamuk?2Desktop?2Phys@ 00000001801bb700     GuSDF.obj
 0002:00003750       ??_C@_0FB@BMPPMNBJ@C?3?2Users?2livinamuk?2Desktop?2Phys@ 00000001801bb750     GuSDF.obj
 0002:000037a4       __real@37800080            00000001801bb7a4     GuSDF.obj
 0002:000037a8       __real@3b808081            00000001801bb7a8     GuSDF.obj
 0002:000037ac       __real@3e2aaaab            00000001801bb7ac     GuSDF.obj
 0002:000037b0       __real@3eaaaaab            00000001801bb7b0     GuSDF.obj
 0002:000037b4       __real@3f7d70a4            00000001801bb7b4     GuSDF.obj
 0002:000037b8       __real@7e7fffff            00000001801bb7b8     GuSDF.obj
 0002:000037bc       __real@bf000000            00000001801bb7bc     GuSDF.obj
 0002:000037c0       __real@fe7fffff            00000001801bb7c0     GuSDF.obj
 0002:000037d0       __xmm@00000001000000010000000100000000 00000001801bb7d0     GuSDF.obj
 0002:000037e0       __real@437f0000            00000001801bb7e0     GuCookingSDF.obj
 0002:000037e4       __real@477fff00            00000001801bb7e4     GuCookingSDF.obj
 0002:00003810       ??_7?$RelativeConvex@UCustomConvexV@@@Gu@physx@@6B@ 00000001801bb810     GuGjkQuery.obj
 0002:00003840       ??_7?$LocalConvex@UCustomConvexV@@@Gu@physx@@6B@ 00000001801bb840     GuGjkQuery.obj
 0002:00003870       ??_7?$LocalConvex@UPointConvexV@@@Gu@physx@@6B@ 00000001801bb870     GuGjkQuery.obj
 0002:000038c0       __real@3da2f983            00000001801bb8c0     GuWindingNumber.obj
 0002:000038c4       __real@3e22f983            00000001801bb8c4     GuWindingNumber.obj
 0002:000038c8       __real@3f99999a            00000001801bb8c8     GuWindingNumber.obj
 0002:00003930       __real@3c343958            00000001801bb930     GuCCDSweepConvexMesh.obj
 0002:00003934       __real@3ca3d70a            00000001801bb934     GuCCDSweepConvexMesh.obj
 0002:00003938       __real@3f0ccccd            00000001801bb938     GuCCDSweepConvexMesh.obj
 0002:0000393c       __real@3f8ccccd            00000001801bb93c     GuCCDSweepConvexMesh.obj
 0002:00003940       __real@b58637bd            00000001801bb940     GuCCDSweepConvexMesh.obj
 0002:00003970       ??_7?$RelativeConvex@VCapsuleV@Gu@physx@@@Gu@physx@@6B@ 00000001801bb970     GuCCDSweepPrimitives.obj
 0002:000039a0       ??_7?$RelativeConvex@VTriangleV@Gu@physx@@@Gu@physx@@6B@ 00000001801bb9a0     GuCCDSweepPrimitives.obj
 0002:000039d0       __real@3ba3d70a            00000001801bb9d0     GuCCDSweepPrimitives.obj
 0002:000039d4       __real@501502f9            00000001801bb9d4     GuCCDSweepPrimitives.obj
 0002:00003a00       ??_C@_0FK@PBIGADOL@C?3?2Users?2livinamuk?2Desktop?2Phys@ 00000001801bba00     GuAdjacencies.obj
 0002:00003a60       ??_C@_0DA@FMEHLBKI@Adjacencies?3?3UpdateLink?3?5invali@ 00000001801bba60     GuAdjacencies.obj
 0002:00003a90       ??_C@_0EA@CPHOACLK@Adjacencies?3?3CreateDatabase?3?5ca@ 00000001801bba90     GuAdjacencies.obj
 0002:00003ad0       ??_C@_0FH@LFEKBGPG@C?3?2Users?2livinamuk?2Desktop?2Phys@ 00000001801bbad0     GuEdgeList.obj
 0002:00003b28       ??_C@_0CO@GBNJFPN@EdgeList?3?3CreateFacesToEdges?3?5N@ 00000001801bbb28     GuEdgeList.obj
 0002:00003b58       ??_C@_0CO@EHJBBMNK@EdgeList?3?3ComputeActiveEdges?3?5N@ 00000001801bbb58     GuEdgeList.obj
 0002:00003b88       ??_C@_0DI@GBHLFOFP@ActiveEdges?3?3ComputeConvexEdges@ 00000001801bbb88     GuEdgeList.obj
 0002:00003bc0       ??_C@_0DM@JOGBLHDI@ActiveEdges?3?3ComputeConvexEdges@ 00000001801bbbc0     GuEdgeList.obj
 0002:00003c00       ??_C@_0ED@FEMJKPEL@ActiveEdges?3?3ComputeConvexEdges@ 00000001801bbc00     GuEdgeList.obj
 0002:00003c50       ??_C@_0EB@BFDPMFCD@ActiveEdges?3?3ComputeConvexEdges@ 00000001801bbc50     GuEdgeList.obj
 0002:00003c94       __real@bf7fbe77            00000001801bbc94     GuEdgeList.obj
 0002:00003c98       ??_7Quantizer@Gu@physx@@6B@ 00000001801bbc98     GuQuantizer.obj
 0002:00003cc0       ??_7QuantizerImpl@@6B@     00000001801bbcc0     GuQuantizer.obj
 0002:00003cf0       ??_C@_0FI@JNIGGINN@C?3?2Users?2livinamuk?2Desktop?2Phys@ 00000001801bbcf0     GuQuantizer.obj
 0002:00003d48       __real@3f0020c5            00000001801bbd48     GuQuantizer.obj
 0002:00003d4c       __real@3f8020c5            00000001801bbd4c     GuQuantizer.obj
 0002:00003d50       ??_C@_0FK@NENNCOLP@C?3?2Users?2livinamuk?2Desktop?2Phys@ 00000001801bbd50     GuMeshCleaner.obj
 0002:00003dac       __real@40800000            00000001801bbdac     GuMeshCleaner.obj
 0002:00003db0       ??_C@_0FM@GJEEDLMP@C?3?2Users?2livinamuk?2Desktop?2Phys@ 00000001801bbdb0     GuVertexReducer.obj
 0002:00003f10       __real@3f7fbe77            00000001801bbf10     GuContactBoxBox.obj
 0002:00003f60       __real@3f7ff2e5            00000001801bbf60     GuContactCapsuleCapsule.obj
 0002:00003ff0       __real@358637be            00000001801bbff0     GuContactCapsuleMesh.obj
 0002:00003ff4       __real@ba83126f            00000001801bbff4     GuContactCapsuleMesh.obj
 0002:00004050       ??_7ConvexMeshContactGenerationCallback@@6B@ 00000001801bc050     GuContactConvexMesh.obj
 0002:000040d0       __real@3ec90fdb            00000001801bc0d0     GuContactPolygonPolygon.obj
 0002:000040d4       __real@3f490fdb            00000001801bc0d4     GuContactPolygonPolygon.obj
 0002:000040d8       __real@3f96cbe4            00000001801bc0d8     GuContactPolygonPolygon.obj
 0002:000040dc       __real@3fc90fdb            00000001801bc0dc     GuContactPolygonPolygon.obj
 0002:000040e0       __real@3ffb53d2            00000001801bc0e0     GuContactPolygonPolygon.obj
 0002:000040e4       __real@4016cbe4            00000001801bc0e4     GuContactPolygonPolygon.obj
 0002:000040e8       __real@402feddf            00000001801bc0e8     GuContactPolygonPolygon.obj
 0002:00004150       ??_C@_0FM@DLMHFPOL@C?3?2Users?2livinamuk?2Desktop?2Phys@ 00000001801bc150     GuBigConvexData.obj
 0002:000041d0       ??_C@_0N@CDGINLLF@PxConvexMesh@ 00000001801bc1d0     GuConvexMesh.obj
 0002:000041e0       ??_7PxBase@physx@@6B@      00000001801bc1e0     GuConvexMesh.obj
 0002:00004208       ??_C@_0CE@IDAGNPDH@isKindOf?5called?5with?5invalid?5st@ 00000001801bc208     GuConvexMesh.obj
 0002:00004230       ??_C@_0N@OPPDBGAG@PxRefCounted@ 00000001801bc230     GuConvexMesh.obj
 0002:00004240       ??_C@_0EM@ICMLKHPI@C?3?2Users?2livinamuk?2Desktop?2Phys@ 00000001801bc240     GuConvexMesh.obj
 0002:00004290       ??_7ConvexMesh@Gu@physx@@6B@ 00000001801bc290     GuConvexMesh.obj
 0002:00004330       ??_C@_0FJ@CHMDKJHN@C?3?2Users?2livinamuk?2Desktop?2Phys@ 00000001801bc330     GuConvexMesh.obj
 0002:00004390       ??_C@_0DM@NEJKOFIP@Loading?5convex?5mesh?5failed?3?5Dep@ 00000001801bc390     GuConvexMesh.obj
 0002:000043d0       ??_C@_0DB@PAHEPIEL@PxConvexMesh?3?3release?3?5double?5d@ 00000001801bc3d0     GuConvexMesh.obj
 0002:00004410       ??_C@_0FB@KFMHNJC@C?3?2Users?2livinamuk?2Desktop?2Phys@ 00000001801bc410     GuConvexMesh.obj
 0002:00004490       __xmm@000000000000000000000000ffffffff 00000001801bc490     GuConvexSupportTable.obj
 0002:000044a0       __xmm@0000000000000000ffffffff00000000 00000001801bc4a0     GuConvexSupportTable.obj
 0002:000044b0       __xmm@0000000000000000ffffffffffffffff 00000001801bc4b0     GuConvexSupportTable.obj
 0002:000044c0       __xmm@00000000ffffffff0000000000000000 00000001801bc4c0     GuConvexSupportTable.obj
 0002:000044d0       __xmm@00000000ffffffff00000000ffffffff 00000001801bc4d0     GuConvexSupportTable.obj
 0002:000044e0       __xmm@00000000ffffffffffffffff00000000 00000001801bc4e0     GuConvexSupportTable.obj
 0002:00004570       __xmm@2b8cbccc2b8cbccc2b8cbccc2b8cbccc 00000001801bc570     GuDistancePointTriangle.obj
 0002:000045c0       __xmm@3f0000003f0000003f0000003f000000 00000001801bc5c0     GuDistanceSegmentSegment.obj
 0002:000045f0       __real@2b8cbccc            00000001801bc5f0     GuDistanceSegmentTriangle.obj
 0002:00004600       __xmm@3f8000013f8000013f8000013f800001 00000001801bc600     GuDistanceSegmentTriangle.obj
 0002:00004610       __xmm@b4000000b4000000b4000000b4000000 00000001801bc610     GuDistanceSegmentTriangle.obj
 0002:00004640       __real@26901d7d            00000001801bc640     GuDistanceTriangleTriangle.obj
 0002:000046c0       __xmm@38d1b71738d1b71738d1b71738d1b717 00000001801bc6c0     GuGJKSimplex.obj
 0002:000046f0       ??_C@_0O@PBAKPCEC@PxHeightField@ 00000001801bc6f0     GuHeightField.obj
 0002:00004700       ??_C@_0EN@FJPGPPIC@C?3?2Users?2livinamuk?2Desktop?2Phys@ 00000001801bc700     GuHeightField.obj
 0002:00004750       ??_7HeightField@Gu@physx@@6B@ 00000001801bc750     GuHeightField.obj
 0002:00004808       ??_C@_0DC@BDMMBOKH@PxHeightField?3?3release?3?5double?5@ 00000001801bc808     GuHeightField.obj
 0002:00004840       ??_C@_0FG@JGFBHKO@C?3?2Users?2livinamuk?2Desktop?2Phys@ 00000001801bc840     GuHeightField.obj
 0002:00004898       ??_C@_0CI@DMKEKGNK@Gu?3?3HeightField?3?3load?3?5PX_ALLOC@ 00000001801bc898     GuHeightField.obj
 0002:000048c0       ??_C@_0EK@PNFDIDB@C?3?2Users?2livinamuk?2Desktop?2Phys@ 00000001801bc8c0     GuHeightField.obj
 0002:00004930       __real@3a03126f            00000001801bc930     GuHeightFieldUtil.obj
 0002:00004934       __real@3f19999a            00000001801bc934     GuHeightFieldUtil.obj
 0002:00004940       __xmm@40000000000000000000000000000000 00000001801bc940     GuHeightFieldUtil.obj
 0002:000049d0       ??_7HeightFieldTraceSegmentReport@@6B@ 00000001801bc9d0     GuSweepsHF.obj
 0002:000049e0       ??_7CapsuleTraceSegmentReport@@6B@ 00000001801bc9e0     GuSweepsHF.obj
 0002:000049f0       ??_7ConvexTraceSegmentReport@@6B@ 00000001801bc9f0     GuSweepsHF.obj
 0002:00004a00       ??_7BoxTraceSegmentReport@@6B@ 00000001801bca00     GuSweepsHF.obj
 0002:00004a10       __real@aedbe6ff            00000001801bca10     GuSweepsHF.obj
 0002:00004a40       __real@3089705f            00000001801bca40     GuIntersectionRayBox.obj
 0002:00004a44       __real@b4000000            00000001801bca44     GuIntersectionRayBox.obj
 0002:00004a50       __xmm@000000003089705f3089705f3089705f 00000001801bca50     GuIntersectionRayBox.obj
 0002:00004a60       __xmm@00000000bf800000bf800000bf800000 00000001801bca60     GuIntersectionRayBox.obj
 0002:00004ab0       ??_7SourceMeshBase@Gu@physx@@6B@ 00000001801bcab0     GuBV4.obj
 0002:00004ad8       ??_7SourceMesh@Gu@physx@@6B@ 00000001801bcad8     GuBV4.obj
 0002:00004b00       ??_7TetrahedronSourceMesh@Gu@physx@@6B@ 00000001801bcb00     GuBV4.obj
 0002:00004b30       ??_C@_0FA@GNFJPDFA@C?3?2Users?2livinamuk?2Desktop?2Phys@ 00000001801bcb30     GuBV4.obj
 0002:00004b80       __xmm@ff7fffffff7fffffff7fffffff7fffff 00000001801bcb80     GuBV4.obj
 0002:00004bb0       ??_C@_0FF@HHLMOAIK@C?3?2Users?2livinamuk?2Desktop?2Phys@ 00000001801bcbb0     GuBV4Build.obj
 0002:00004c08       __real@38000100            00000001801bcc08     GuBV4Build.obj
 0002:00004c0c       __real@3e93cd3a            00000001801bcc0c     GuBV4Build.obj
 0002:00004c10       __real@46fffe00            00000001801bcc10     GuBV4Build.obj
 0002:00004c14       __real@be93cd3a            00000001801bcc14     GuBV4Build.obj
 0002:00004c40       __xmm@0000ffff0000ffff0000ffff0000ffff 00000001801bcc40     GuBV4_AABBSweep.obj
 0002:00004c50       __xmm@3089705f3089705f3089705f3089705f 00000001801bcc50     GuBV4_AABBSweep.obj
 0002:00004c60       __xmm@33d6bf9533d6bf9533d6bf9533d6bf95 00000001801bcc60     GuBV4_AABBSweep.obj
 0002:00004c70       __xmm@40000000400000004000000040000000 00000001801bcc70     GuBV4_AABBSweep.obj
 0002:00004d00       __xmm@322bcc77322bcc77322bcc77322bcc77 00000001801bcd00     GuBV4_MeshMeshOverlap.obj
 0002:00004d50       __real@00000000            00000001801bcd50     GuBV4_Raycast.obj
 0002:00004d80       __real@4f7fffff            00000001801bcd80     GuBV4_SphereOverlap.obj
 0002:00004dd0       __xmm@000000007f7fffff0000000000000000 00000001801bcdd0     GuMidphaseBV4.obj
 0002:00004e40       ??_C@_0FD@EHCCILIF@Adjacency?5information?5not?5creat@ 00000001801bce40     GuMeshQuery.obj
 0002:00004ea0       ??_C@_0FG@KINOPMF@C?3?2Users?2livinamuk?2Desktop?2Phys@ 00000001801bcea0     GuMeshQuery.obj
 0002:00004f00       ??_C@_0FL@BKNMAHIA@PxMeshQuery?3?3findOverlapTriangl@ 00000001801bcf00     GuMeshQuery.obj
 0002:00004f5c       __real@4cbebc20            00000001801bcf5c     GuMeshQuery.obj
 0002:00004f80       ??_7Callback@RTree@Gu@physx@@6B@ 00000001801bcf80     GuMidphaseRTree.obj
 0002:00004f98       ??_7?$RayRTreeCallback@$00$0A@@@6BCallbackRaycast@RTree@Gu@physx@@@ 00000001801bcf98     GuMidphaseRTree.obj
 0002:00004f98       ??_7?$RayRTreeCallback@$0A@$0A@@@6BCallbackRaycast@RTree@Gu@physx@@@ 00000001801bcf98     GuMidphaseRTree.obj
 0002:00004fa8       ??_7?$RayRTreeCallback@$00$0A@@@6BCallback@RTree@Gu@physx@@@ 00000001801bcfa8     GuMidphaseRTree.obj
 0002:00004fa8       ??_7?$RayRTreeCallback@$0A@$0A@@@6BCallback@RTree@Gu@physx@@@ 00000001801bcfa8     GuMidphaseRTree.obj
 0002:00004fc0       ??_7RayMeshColliderCallback@@6B@ 00000001801bcfc0     GuMidphaseRTree.obj
 0002:00004fd0       ??_C@_0EN@DPPFLBLF@Point?9mesh?5distance?5query?5not?5s@ 00000001801bcfd0     GuMidphaseRTree.obj
 0002:00005020       ??_C@_0FK@LFFOONJJ@C?3?2Users?2livinamuk?2Desktop?2Phys@ 00000001801bd020     GuMidphaseRTree.obj
 0002:00005080       ??_7?$RayRTreeCallback@$0A@$00@@6BCallbackRaycast@RTree@Gu@physx@@@ 00000001801bd080     GuMidphaseRTree.obj
 0002:00005090       ??_7?$RayRTreeCallback@$0A@$00@@6BCallback@RTree@Gu@physx@@@ 00000001801bd090     GuMidphaseRTree.obj
 0002:000050a8       ??_7?$RayRTreeCallback@$00$00@@6BCallbackRaycast@RTree@Gu@physx@@@ 00000001801bd0a8     GuMidphaseRTree.obj
 0002:000050b8       ??_7?$RayRTreeCallback@$00$00@@6BCallback@RTree@Gu@physx@@@ 00000001801bd0b8     GuMidphaseRTree.obj
 0002:00005130       __xmm@7f7fffff000000000000000000000000 00000001801bd130     GuMidphaseRTree.obj
 0002:000051b0       ??_7?$PxReportCallback@UPxGeomIndexPair@physx@@@physx@@6B@ 00000001801bd1b0     GuOverlapTestsMesh.obj
 0002:000051d0       ??_C@_0EP@CEFGCJKJ@PxGeometryQuery?3?3overlap?$CI?$CJ?3?5onl@ 00000001801bd1d0     GuOverlapTestsMesh.obj
 0002:00005220       ??_C@_0FN@KPJLJDHL@C?3?2Users?2livinamuk?2Desktop?2Phys@ 00000001801bd220     GuOverlapTestsMesh.obj
 0002:000052a0       ?MN@RTreePage@Gu@physx@@2MB 00000001801bd2a0     GuRTree.obj
 0002:000052a4       ?MX@RTreePage@Gu@physx@@2MB 00000001801bd2a4     GuRTree.obj
 0002:000052b0       ??_C@_0FC@FGLBKLEM@C?3?2Users?2livinamuk?2Desktop?2Phys@ 00000001801bd2b0     GuRTree.obj
 0002:00005380       ??_7SweepShapeMeshHitCallback@Gu@physx@@6B@ 00000001801bd380     GuSweepsMesh.obj
 0002:00005390       ??_7SweepCapsuleMeshHitCallback@Gu@physx@@6B@ 00000001801bd390     GuSweepsMesh.obj
 0002:000053a0       ??_7SweepBoxMeshHitCallback@Gu@physx@@6B@ 00000001801bd3a0     GuSweepsMesh.obj
 0002:000053b0       ??_7SweepConvexMeshHitCallback@Gu@physx@@6B@ 00000001801bd3b0     GuSweepsMesh.obj
 0002:000053e0       ??_C@_0P@GGNFNHKF@PxTriangleMesh@ 00000001801bd3e0     GuTriangleMesh.obj
 0002:000053f0       ??_C@_0EO@OELHIGFD@C?3?2Users?2livinamuk?2Desktop?2Phys@ 00000001801bd3f0     GuTriangleMesh.obj
 0002:00005440       ??_7TriangleMesh@Gu@physx@@6B@ 00000001801bd440     GuTriangleMesh.obj
 0002:00005518       ??_C@_0DD@LOOPMCGG@PxTriangleMesh?3?3release?3?5double@ 00000001801bd518     GuTriangleMesh.obj
 0002:00005550       ??_C@_0FH@PMPAJDGI@PxTriangleMesh?3?3getVerticesForM@ 00000001801bd550     GuTriangleMesh.obj
 0002:000055b0       ??_C@_0FJ@BJJDAGJM@C?3?2Users?2livinamuk?2Desktop?2Phys@ 00000001801bd5b0     GuTriangleMesh.obj
 0002:00005610       ??_C@_0EF@GMNFLDH@PxTriangleMesh?3?3refitBVH?$CI?$CJ?5is?5n@ 00000001801bd610     GuTriangleMesh.obj
 0002:00005660       __xmm@38383838383838383838383838383838 00000001801bd660     GuTriangleMesh.obj
 0002:00005690       ??_C@_0BE@CNJKIINO@PxBVH34TriangleMesh@ 00000001801bd690     GuTriangleMeshBV4.obj
 0002:000056a8       ??_7BV4TriangleMesh@Gu@physx@@6B@ 00000001801bd6a8     GuTriangleMeshBV4.obj
 0002:00005780       ??_C@_0EF@JLFNNPLP@BVH34?5trees?3?5refit?5operation?5on@ 00000001801bd780     GuTriangleMeshBV4.obj
 0002:000057d0       ??_C@_0FM@PHPNGLGP@C?3?2Users?2livinamuk?2Desktop?2Phys@ 00000001801bd7d0     GuTriangleMeshBV4.obj
 0002:0000582c       __real@3951b717            00000001801bd82c     GuTriangleMeshBV4.obj
 0002:00005850       ??_C@_0BE@EIFHCCBO@PxBVH33TriangleMesh@ 00000001801bd850     GuTriangleMeshRTree.obj
 0002:00005868       ??_7RTreeTriangleMesh@Gu@physx@@6B@ 00000001801bd868     GuTriangleMeshRTree.obj
 0002:00005940       ??_7?$RefitCallback@G@physx@@6B@ 00000001801bd940     GuTriangleMeshRTree.obj
 0002:00005950       ??_7?$RefitCallback@I@physx@@6B@ 00000001801bd950     GuTriangleMeshRTree.obj
 0002:00005980       ??_C@_0FB@BHEFOJBG@C?3?2Users?2livinamuk?2Desktop?2Phys@ 00000001801bd980     GuBV32.obj
 0002:00005a00       ??_C@_0FG@FPEHDBPA@C?3?2Users?2livinamuk?2Desktop?2Phys@ 00000001801bda00     GuBV32Build.obj
 0002:00005a80       ??_C@_0BC@FDAIDHBP@PxTetrahedronMesh@ 00000001801bda80     GuTetrahedronMesh.obj
 0002:00005aa0       ??_C@_0FB@JDHDAJMF@C?3?2Users?2livinamuk?2Desktop?2Phys@ 00000001801bdaa0     GuTetrahedronMesh.obj
 0002:00005af8       ??_C@_0BC@FBICGJIB@PxSoftBodyAuxData@ 00000001801bdaf8     GuTetrahedronMesh.obj
 0002:00005b10       ??_C@_0P@CLLFGFAA@PxSoftBodyMesh@ 00000001801bdb10     GuTetrahedronMesh.obj
 0002:00005b20       ??_7SoftBodyAuxData@Gu@physx@@6B@ 00000001801bdb20     GuTetrahedronMesh.obj
 0002:00005b68       ??_7TetrahedronMesh@Gu@physx@@6B@ 00000001801bdb68     GuTetrahedronMesh.obj
 0002:00005be0       ??_7BVTetrahedronMesh@Gu@physx@@6B@ 00000001801bdbe0     GuTetrahedronMesh.obj
 0002:00005c58       ??_7SoftBodyMesh@Gu@physx@@6B@ 00000001801bdc58     GuTetrahedronMesh.obj
 0002:00005cd8       ??_C@_0DG@JJNMDPMD@PxTetrahedronMesh?3?3release?3?5dou@ 00000001801bdcd8     GuTetrahedronMesh.obj
 0002:00005d10       ??_C@_0DD@GGFGEPII@PxSoftBodyMesh?3?3release?3?5double@ 00000001801bdd10     GuTetrahedronMesh.obj
 0002:00005d50       ??_C@_0FM@BFLOIBPL@C?3?2Users?2livinamuk?2Desktop?2Phys@ 00000001801bdd50     GuTetrahedronMesh.obj
 0002:00005df0       __xmm@00000000358637bd358637bd358637bd 00000001801bddf0     GuPCMContactBoxBox.obj
 0002:00005e00       __xmm@3f4ccccd3f4ccccd3f4ccccd3f4ccccd 00000001801bde00     GuPCMContactBoxBox.obj
 0002:00005e10       __xmm@3f8003473f8003473f8003473f800347 00000001801bde10     GuPCMContactBoxBox.obj
 0002:00005e20       __xmm@ffffffff00000000ffffffffffffffff 00000001801bde20     GuPCMContactBoxBox.obj
 0002:00005e50       ??_7?$LocalConvex@VConvexHullNoScaleV@Gu@physx@@@Gu@physx@@6B@ 00000001801bde50     GuPCMContactBoxConvex.obj
 0002:00005e80       __xmm@3f3504f33f3504f33f3504f33f3504f3 00000001801bde80     GuPCMContactBoxConvex.obj
 0002:00005ed0       __xmm@ffffffffffffffffffffffff00000000 00000001801bded0     GuPCMContactCapsuleCapsule.obj
 0002:00005f00       __xmm@3fa000003fa000003fa000003fa00000 00000001801bdf00     GuPCMContactCapsuleConvex.obj
 0002:00005f30       ??_7PCMCapsuleVsHeightfieldContactGenerationCallback@@6B@ 00000001801bdf30     GuPCMContactCapsuleHeightField.obj
 0002:00005f40       __real@3f7f3b64            00000001801bdf40     GuPCMContactCapsuleHeightField.obj
 0002:00005f90       __xmm@3f7ff9723f7ff9723f7ff9723f7ff972 00000001801bdf90     GuPCMContactCapsuleMesh.obj
 0002:00005fa0       __xmm@3f7fffef3f7fffef3f7fffef3f7fffef 00000001801bdfa0     GuPCMContactCapsuleMesh.obj
 0002:00005fb0       __xmm@60ad78ec60ad78ec60ad78ec60ad78ec 00000001801bdfb0     GuPCMContactCapsuleMesh.obj
 0002:00005fe0       ??_7?$SupportLocalImpl@VTriangleV@Gu@physx@@@Gu@physx@@6B@ 00000001801bdfe0     GuPCMContactConvexCommon.obj
 0002:00006000       __xmm@3cf5c2803cf5c2803cf5c2803cf5c280 00000001801be000     GuPCMContactConvexCommon.obj
 0002:00006010       __xmm@3f7851ec3f7851ec3f7851ec3f7851ec 00000001801be010     GuPCMContactConvexCommon.obj
 0002:00006040       ??_7?$RelativeConvex@VConvexHullNoScaleV@Gu@physx@@@Gu@physx@@6B@ 00000001801be040     GuPCMContactConvexConvex.obj
 0002:000060a0       __xmm@3f19999a3f19999a3f19999a3f19999a 00000001801be0a0     GuPCMContactConvexHeightField.obj
 0002:00006110       __xmm@3f34fdf43f34fdf43f34fdf43f34fdf4 00000001801be110     GuPCMContactGenBoxConvex.obj
 0002:00006140       __xmm@3f80a3d73f80a3d73f80a3d73f80a3d7 00000001801be140     GuPCMContactGenSphereCapsule.obj
 0002:00006150       __xmm@bba3d70abba3d70abba3d70abba3d70a 00000001801be150     GuPCMContactGenSphereCapsule.obj
 0002:00006180       __xmm@3f7ffd613f7ffd613f7ffd613f7ffd61 00000001801be180     GuPCMContactPlaneBox.obj
 0002:000061b0       __real@3b23d70b            00000001801be1b0     GuPCMContactPlaneCapsule.obj
 0002:000061c0       __xmm@3ca3d70a3ca3d70a3ca3d70a3ca3d70a 00000001801be1c0     GuPCMContactPlaneCapsule.obj
 0002:000061f0       __xmm@3a03126f3a03126f3a03126f3a03126f 00000001801be1f0     GuPCMContactPlaneConvex.obj
 0002:00006310       __xmm@3727c5ac3727c5ac3727c5ac3727c5ac 00000001801be310     GuPCMContactSphereSphere.obj
 0002:00006340       __xmm@3f7f06f73f7f06f73f7f06f73f7f06f7 00000001801be340     GuPCMContactCustomGeometry.obj
 0002:00006350       ?gPCMBoxPolygonData@Gu@physx@@3QBEB 00000001801be350     GuPCMShapeConvex.obj
 0002:000063d0       ?invalidateThresholds@Gu@physx@@3QBMB 00000001801be3d0     GuPersistentContactManifold.obj
 0002:000063e8       ?invalidateQuatThresholds@Gu@physx@@3QBMB 00000001801be3e8     GuPersistentContactManifold.obj
 0002:00006400       ?invalidateThresholds2@Gu@physx@@3QBMB 00000001801be400     GuPersistentContactManifold.obj
 0002:00006410       ?invalidateQuatThresholds2@Gu@physx@@3QBMB 00000001801be410     GuPersistentContactManifold.obj
 0002:00006420       __xmm@00000000340000003400000034000000 00000001801be420     GuPersistentContactManifold.obj
 0002:00006430       __xmm@000000003f8000003f80000000000000 00000001801be430     GuPersistentContactManifold.obj
 0002:00006440       __xmm@00000000bf8000003f80000000000000 00000001801be440     GuPersistentContactManifold.obj
 0002:00006450       __xmm@ffffffffffffffff00000000ffffffff 00000001801be450     GuPersistentContactManifold.obj
 0002:00006480       __xmm@c1200000c1200000c1200000c1200000 00000001801be480     GuPCMContactGenUtil.obj
 0002:000064d0       __real@b727c5ac            00000001801be4d0     GuSweepBoxSphere.obj
 0002:00006540       ??_C@_0FN@GNLBPGCJ@C?3?2Users?2livinamuk?2Desktop?2Phys@ 00000001801be540     GuSweepCapsuleBox.obj
 0002:000065e0       __real@3f7fff58            00000001801be5e0     GuSweepCapsuleTriangle.obj
 0002:00006650       ??_C@_0CH@DHJGKCPD@Gu?3?3computeBounds?3?5Unknown?5shap@ 00000001801be650     GuBounds.obj
 0002:00006680       ??_C@_0EO@CJKPCFBP@C?3?2Users?2livinamuk?2Desktop?2Phys@ 00000001801be680     GuBounds.obj
 0002:000066d0       __real@34800000            00000001801be6d0     GuBounds.obj
 0002:000066d4       __real@3f7fffef            00000001801be6d4     GuBounds.obj
 0002:000066e0       __xmm@3f8147ae3f8147ae3f8147ae3f8147ae 00000001801be6e0     GuBounds.obj
 0002:00006710       ??_C@_0FA@FCCLLADA@C?3?2Users?2livinamuk?2Desktop?2Phys@ 00000001801be710     GuAABBTree.obj
 0002:00006760       __xmm@5a60b17f5a60b17f5a60b17f5a60b17f 00000001801be760     GuAABBTree.obj
 0002:00006770       __xmm@da60b17fda60b17fda60b17fda60b17f 00000001801be770     GuAABBTree.obj
 0002:000067e0       ??_C@_0FL@PPPLAOMD@C?3?2Users?2livinamuk?2Desktop?2Phys@ 00000001801be7e0     GuIncrementalAABBTree.obj
 0002:00006840       ??_C@_0EI@KNOJPCBD@C?3?2Users?2livinamuk?2Desktop?2Phys@ 00000001801be840     GuIncrementalAABBTree.obj
 0002:00006888       __real@40400000            00000001801be888     GuIncrementalAABBTree.obj
 0002:00006890       ??_C@_0EL@NDIACAAJ@C?3?2Users?2livinamuk?2Desktop?2Phys@ 00000001801be890     GuSAH.obj
 0002:00006900       ??_7PxBVH@physx@@6B@       00000001801be900     GuBVH.obj
 0002:00006978       ??_C@_05OKJNPKBM@PxBVH@    00000001801be978     GuBVH.obj
 0002:00006980       ??_C@_0EF@GAOHHEP@C?3?2Users?2livinamuk?2Desktop?2Phys@ 00000001801be980     GuBVH.obj
 0002:000069c8       ??_7RefCountable@Cm@physx@@6B@ 00000001801be9c8     GuBVH.obj
 0002:000069d8       ??_7BVH@Gu@physx@@6BPxBVH@2@@ 00000001801be9d8     GuBVH.obj
 0002:00006a50       ??_7BVH@Gu@physx@@6BRefCountable@Cm@2@@ 00000001801bea50     GuBVH.obj
 0002:00006a60       ??_C@_0EL@MBOILDPM@C?3?2Users?2livinamuk?2Desktop?2Phys@ 00000001801bea60     GuBVH.obj
 0002:00006ab0       ??_C@_0CK@HAIOEINI@PxBVH?3?3release?3?5double?5deletion@ 00000001801beab0     GuBVH.obj
 0002:00006b00       ??_C@_0GB@IBKDMKP@C?3?2Users?2livinamuk?2Desktop?2Phys@ 00000001801beb00     GuIncrementalAABBPrunerCore.obj
 0002:00006b64       __real@3f80a3d7            00000001801beb64     GuIncrementalAABBPrunerCore.obj
 0002:00006b90       ??_7BasePruner@Gu@physx@@6B@ 00000001801beb90     GuIncrementalAABBPruner.obj
 0002:00006ba8       ??_7IncrementalAABBPruner@Gu@physx@@6B@ 00000001801beba8     GuIncrementalAABBPruner.obj
 0002:00006c30       ??_C@_0FN@HGNLBDBE@C?3?2Users?2livinamuk?2Desktop?2Phys@ 00000001801bec30     GuIncrementalAABBPruner.obj
 0002:00006cb0       ??_C@_0FD@NDJMKMKH@C?3?2Users?2livinamuk?2Desktop?2Phys@ 00000001801becb0     GuPruningPool.obj
 0002:00006d50       ??_7BucketPruner@Gu@physx@@6B@ 00000001801bed50     GuBucketPruner.obj
 0002:00006de0       ??_C@_0FE@HEMCBHLN@C?3?2Users?2livinamuk?2Desktop?2Phys@ 00000001801bede0     GuBucketPruner.obj
 0002:00006e34       __real@bf13cd3a            00000001801bee34     GuBucketPruner.obj
 0002:00006e40       __xmm@000000007e7fffff7e7fffff7e7fffff 00000001801bee40     GuBucketPruner.obj
 0002:00006e50       __xmm@00000000fe7ffffffe7ffffffe7fffff 00000001801bee50     GuBucketPruner.obj
 0002:00006e60       __xmm@3f13cd3a3f13cd3a3f13cd3a3f13cd3a 00000001801bee60     GuBucketPruner.obj
 0002:00006e70       __xmm@bf13cd3abf13cd3abf13cd3a3f13cd3a 00000001801bee70     GuBucketPruner.obj
 0002:00006e80       __xmm@bf8000003f8000003f800000bf800000 00000001801bee80     GuBucketPruner.obj
 0002:00006e90       __xmm@bf8000003f800000bf8000003f800000 00000001801bee90     GuBucketPruner.obj
 0002:00006ea0       __xmm@bf800000bf8000003f8000003f800000 00000001801beea0     GuBucketPruner.obj
 0002:00006eb0       __xmm@bf800000bf800000bf8000003f800000 00000001801beeb0     GuBucketPruner.obj
 0002:00006ec0       ?mIndices@MaverickNode@Gu@physx@@2QBIB 00000001801beec0     GuMaverickNode.obj
 0002:00006f20       ??_C@_0FM@EBPEECBG@C?3?2Users?2livinamuk?2Desktop?2Phys@ 00000001801bef20     GuExtendedBucketPruner.obj
 0002:00006fa0       ??_7CompanionPruner@Gu@physx@@6B@ 00000001801befa0     GuSecondaryPruner.obj
 0002:00007020       ??_7CompanionPrunerBucket@@6B@ 00000001801bf020     GuSecondaryPruner.obj
 0002:000070a0       ??_7CompanionPrunerIncremental@@6B@ 00000001801bf0a0     GuSecondaryPruner.obj
 0002:00007120       ??_7CompanionPrunerAABBTree@@6B@ 00000001801bf120     GuSecondaryPruner.obj
 0002:000071a0       ??_C@_0FH@HMBKGDFF@C?3?2Users?2livinamuk?2Desktop?2Phys@ 00000001801bf1a0     GuSecondaryPruner.obj
 0002:00007220       ??_7AABBPruner@Gu@physx@@6B@ 00000001801bf220     GuAABBPruner.obj
 0002:000072c0       ??_C@_0LA@IHBEIKND@SceneQuery?5static?5AABB?5Tree?5reb@ 00000001801bf2c0     GuAABBPruner.obj
 0002:00007370       ??_C@_0FC@GFJDJCDB@C?3?2Users?2livinamuk?2Desktop?2Phys@ 00000001801bf370     GuAABBPruner.obj
 0002:000073d0       ??_C@_0FF@HFALLKFJ@C?3?2Users?2livinamuk?2Desktop?2Phys@ 00000001801bf3d0     GuActorShapeMap.obj
 0002:00007450       ??_C@_0BF@DNABLJAF@Invalid?5pruner?5index@ 00000001801bf450     GuQuerySystem.obj
 0002:00007470       ??_C@_0FD@INPKFECN@C?3?2Users?2livinamuk?2Desktop?2Phys@ 00000001801bf470     GuQuerySystem.obj
 0002:00007520       ??_C@_0EP@OIGJLJDL@C?3?2Users?2livinamuk?2Desktop?2Phys@ 00000001801bf520     GuFactory.obj
 0002:00007570       ?reductionFactors@SubSortQuick@physx@@2QBMB 00000001801bf570     GuRTreeCooking.obj
 0002:00007580       ?stopAtTrisPerLeaf1@SubSortQuick@physx@@2QBIB 00000001801bf580     GuRTreeCooking.obj
 0002:00007650       ??_C@_0FM@KHCAAIOD@C?3?2Users?2livinamuk?2Desktop?2Phys@ 00000001801bf650     GuRTreeCooking.obj
 0002:000076ac       __real@41100000            00000001801bf6ac     GuRTreeCooking.obj
 0002:000076b0       __real@41700000            00000001801bf6b0     GuRTreeCooking.obj
 0002:000076b4       __real@42200000            00000001801bf6b4     GuRTreeCooking.obj
 0002:000076c0       __xmm@00000004000000030000000200000001 00000001801bf6c0     GuRTreeCooking.obj
 0002:000076f0       ??_C@_0FK@HDCPJEOJ@C?3?2Users?2livinamuk?2Desktop?2Phys@ 00000001801bf6f0     GuCookingBVH.obj
 0002:00007750       ??_C@_0DL@JHPKHGFA@Cooking?3?3cookBVH?3?5user?9provided@ 00000001801bf750     GuCookingBVH.obj
 0002:00007790       ??_C@_0DN@PLNPGFEB@Cooking?3?3createBVH?3?5user?9provid@ 00000001801bf790     GuCookingBVH.obj
 0002:000077d0       ??_C@_0EL@JCJBAPHL@Cooking?3?3cookHeightField?3?5user?9@ 00000001801bf7d0     GuCookingHF.obj
 0002:00007820       ??_C@_0FJ@GFENFJEK@C?3?2Users?2livinamuk?2Desktop?2Phys@ 00000001801bf820     GuCookingHF.obj
 0002:00007880       ??_C@_0EN@FCEPCAFC@Cooking?3?3createHeightField?3?5use@ 00000001801bf880     GuCookingHF.obj
 0002:000078d0       ??_C@_0EK@EKAIJEBL@Cooking?3?3cookConvexMesh?3?5user?9p@ 00000001801bf8d0     GuCookingConvexMesh.obj
 0002:00007920       ??_C@_0FA@GFFGAPML@Cooking?3?3cookConvexMesh?3?5provid@ 00000001801bf920     GuCookingConvexMesh.obj
 0002:00007970       ??_C@_0EP@PKDCPNNO@Cooking?3?3cookConvexMesh?3?5provid@ 00000001801bf970     GuCookingConvexMesh.obj
 0002:000079c0       ??_C@_0EO@LKFMMDE@Cooking?3?3cookConvexMesh?3?5user?9p@ 00000001801bf9c0     GuCookingConvexMesh.obj
 0002:00007a10       ??_C@_0EL@KJEPJALG@Cooking?3?3cookConvexMesh?3?5user?9p@ 00000001801bfa10     GuCookingConvexMesh.obj
 0002:00007a60       ??_C@_0FM@LHMEBKMM@Cooking?3?3cookConvexMesh?3?5GPU?9co@ 00000001801bfa60     GuCookingConvexMesh.obj
 0002:00007ac0       ??_C@_0FJ@FHCFFABE@Cooking?3?3cookConvexMesh?3?5GPU?9co@ 00000001801bfac0     GuCookingConvexMesh.obj
 0002:00007b20       ??_C@_0LM@CHONPBFM@Cooking?3?3cookConvexMesh?3?5GPU?9co@ 00000001801bfb20     GuCookingConvexMesh.obj
 0002:00007be0       ??_C@_0GB@BGNPEELC@C?3?2Users?2livinamuk?2Desktop?2Phys@ 00000001801bfbe0     GuCookingConvexMesh.obj
 0002:00007c70       ??_7TriangleMeshBuilder@physx@@6B@ 00000001801bfc70     GuCookingTriangleMesh.obj
 0002:00007c98       ??_7RTreeTriangleMeshBuilder@physx@@6B@ 00000001801bfc98     GuCookingTriangleMesh.obj
 0002:00007cc0       ??_7BV4TriangleMeshBuilder@physx@@6B@ 00000001801bfcc0     GuCookingTriangleMesh.obj
 0002:00007cf0       ??_C@_0GD@NCLHCMEK@C?3?2Users?2livinamuk?2Desktop?2Phys@ 00000001801bfcf0     GuCookingTriangleMesh.obj
 0002:00007d60       ??_C@_0EM@DBPINPE@TriangleMeshBuilder?3?3cleanMesh?3@ 00000001801bfd60     GuCookingTriangleMesh.obj
 0002:00007db0       ??_C@_0EF@MLNDPEDJ@TriangleMeshBuilder?3?3cleanMesh?3@ 00000001801bfdb0     GuCookingTriangleMesh.obj
 0002:00007e00       ??_C@_0FJ@HHJLKGDF@TriangleMesh?3?5triangles?5are?5too@ 00000001801bfe00     GuCookingTriangleMesh.obj
 0002:00007e60       ??_C@_0CN@KGPHHHLK@TriangleMesh?3?5mesh?5is?5too?5big?5f@ 00000001801bfe60     GuCookingTriangleMesh.obj
 0002:00007e90       ??_C@_0DD@CMJGDCNN@TriangleMesh?3?3loadFromDesc?3?5des@ 00000001801bfe90     GuCookingTriangleMesh.obj
 0002:00007ed0       ??_C@_0ED@ILJJNHIP@TriangleMesh?3?3loadFromDesc?3?5mPa@ 00000001801bfed0     GuCookingTriangleMesh.obj
 0002:00007f18       ??_C@_0BK@JIDHMMCE@BV4?5tree?5failed?5to?5build?4@ 00000001801bff18     GuCookingTriangleMesh.obj
 0002:00007f38       ??_C@_0BL@DHNECNBE@BV32?5tree?5failed?5to?5build?4@ 00000001801bff38     GuCookingTriangleMesh.obj
 0002:00007f58       ??_7RTreeCookerRemap@@6B@  00000001801bff58     GuCookingTriangleMesh.obj
 0002:00007f70       ??_C@_0FC@PJIHAFK@Cooking?3?3validateTriangleMesh?3?5@ 00000001801bff70     GuCookingTriangleMesh.obj
 0002:00008050       ??_7PxCollisionTetrahedronMeshData@physx@@6B@ 00000001801c0050     GuCookingTetrahedronMesh.obj
 0002:00008080       ??_7PxSimulationTetrahedronMeshData@physx@@6B@ 00000001801c0080     GuCookingTetrahedronMesh.obj
 0002:000080a0       ??_7CollisionTetrahedronMeshData@Gu@physx@@6B@ 00000001801c00a0     GuCookingTetrahedronMesh.obj
 0002:000080d0       ??_7SimulationTetrahedronMeshData@Gu@physx@@6B@ 00000001801c00d0     GuCookingTetrahedronMesh.obj
 0002:000080f0       ??_C@_0GG@MPNCOAEL@C?3?2Users?2livinamuk?2Desktop?2Phys@ 00000001801c00f0     GuCookingTetrahedronMesh.obj
 0002:00008158       ??_7?$LocalConvex@VTetrahedronV@Gu@physx@@@Gu@physx@@6B@ 00000001801c0158     GuCookingTetrahedronMesh.obj
 0002:00008188       ??_C@_0CD@OJGNHLOE@BV4_AABBTree?5tree?5failed?5to?5bui@ 00000001801c0188     GuCookingTetrahedronMesh.obj
 0002:000081b0       ??_C@_0DG@NCNIEEHB@TetrahedronMesh?3?3loadFromDesc?3?5@ 00000001801c01b0     GuCookingTetrahedronMesh.obj
 0002:000081f0       ??_C@_0EG@CJIFGLMC@TetrahedronMesh?3?3loadFromDesc?3?5@ 00000001801c01f0     GuCookingTetrahedronMesh.obj
 0002:00008238       __real@be2aaaab            00000001801c0238     GuCookingTetrahedronMesh.obj
 0002:00008240       __xmm@00000003000000030000000300000003 00000001801c0240     GuCookingTetrahedronMesh.obj
 0002:00008270       __real@3bc79ca10c924223    00000001801c0270     GuCookingVolumeIntegration.obj
 0002:00008278       __real@3f91111111111111    00000001801c0278     GuCookingVolumeIntegration.obj
 0002:00008280       __real@3fa5555555555555    00000001801c0280     GuCookingVolumeIntegration.obj
 0002:00008288       __real@3fa999999999999a    00000001801c0288     GuCookingVolumeIntegration.obj
 0002:00008290       __real@3fb5555555555555    00000001801c0290     GuCookingVolumeIntegration.obj
 0002:00008298       __real@3fc5555555555555    00000001801c0298     GuCookingVolumeIntegration.obj
 0002:000082a0       __real@3fe0000000000000    00000001801c02a0     GuCookingVolumeIntegration.obj
 0002:000082a8       __real@3ff0000000000000    00000001801c02a8     GuCookingVolumeIntegration.obj
 0002:000082b0       __real@4008000000000000    00000001801c02b0     GuCookingVolumeIntegration.obj
 0002:000082b8       __real@4010000000000000    00000001801c02b8     GuCookingVolumeIntegration.obj
 0002:000082c0       __real@bf91111111111111    00000001801c02c0     GuCookingVolumeIntegration.obj
 0002:000082c8       __real@bfa999999999999a    00000001801c02c8     GuCookingVolumeIntegration.obj
 0002:000082d0       __real@bfb5555555555555    00000001801c02d0     GuCookingVolumeIntegration.obj
 0002:000082d8       __real@bfc5555555555555    00000001801c02d8     GuCookingVolumeIntegration.obj
 0002:000082e0       __xmm@3c0888893c0888893c0888893c088889 00000001801c02e0     GuCookingVolumeIntegration.obj
 0002:000082f0       __xmm@3c8888893c8888893c8888893c888889 00000001801c02f0     GuCookingVolumeIntegration.obj
 0002:00008300       __xmm@3d2aaaab3d2aaaab3d2aaaab3d2aaaab 00000001801c0300     GuCookingVolumeIntegration.obj
 0002:00008310       __xmm@3e2aaaab3e2aaaab3e2aaaab3e2aaaab 00000001801c0310     GuCookingVolumeIntegration.obj
 0002:00008320       __xmm@3f811111111111113f81111111111111 00000001801c0320     GuCookingVolumeIntegration.obj
 0002:00008330       __xmm@3f811111111111113f91111111111111 00000001801c0330     GuCookingVolumeIntegration.obj
 0002:00008340       __xmm@3f911111111111113f91111111111111 00000001801c0340     GuCookingVolumeIntegration.obj
 0002:00008350       __xmm@3fa55555555555553fa5555555555555 00000001801c0350     GuCookingVolumeIntegration.obj
 0002:00008360       __xmm@3fa55555555555553fc5555555555555 00000001801c0360     GuCookingVolumeIntegration.obj
 0002:00008370       __xmm@3fd55555555555553fd5555555555555 00000001801c0370     GuCookingVolumeIntegration.obj
 0002:00008380       __xmm@3fe00000000000003fe0000000000000 00000001801c0380     GuCookingVolumeIntegration.obj
 0002:00008390       __xmm@7fffffffffffffff7fffffffffffffff 00000001801c0390     GuCookingVolumeIntegration.obj
 0002:000083a0       __xmm@80000000000000008000000000000000 00000001801c03a0     GuCookingVolumeIntegration.obj
 0002:000083b0       ??_7ConvexHullLib@physx@@6B@ 00000001801c03b0     GuCookingQuickHullConvexHullLib.obj
 0002:000083d0       ??_7QuickHullConvexHullLib@physx@@6B@ 00000001801c03d0     GuCookingQuickHullConvexHullLib.obj
 0002:000083f0       ??_C@_0GN@LAFIACKE@C?3?2Users?2livinamuk?2Desktop?2Phys@ 00000001801c03f0     GuCookingQuickHullConvexHullLib.obj
 0002:00008460       ??_C@_0GA@EPPAEJPM@QuickHullConvexHullLib?3?3findSim@ 00000001801c0460     GuCookingQuickHullConvexHullLib.obj
 0002:000084c0       ??_C@_0FB@NEBIJMML@QuickHullConvexHullLib?3?3findSim@ 00000001801c04c0     GuCookingQuickHullConvexHullLib.obj
 0002:00008520       ??_C@_0FB@CLLCBEMM@QuickHullConvexHullLib?3?3findSim@ 00000001801c0520     GuCookingQuickHullConvexHullLib.obj
 0002:00008574       __real@34c00000            00000001801c0574     GuCookingQuickHullConvexHullLib.obj
 0002:00008578       ??_C@_0DP@PJBJBEGF@Meshmerizer?3?3extractHullPolygon@ 00000001801c0578     GuCookingConvexPolygonsBuilder.obj
 0002:000085c0       ??_C@_0GM@HIHKNLP@C?3?2Users?2livinamuk?2Desktop?2Phys@ 00000001801c05c0     GuCookingConvexPolygonsBuilder.obj
 0002:00008630       ??_C@_0DL@IAFKOCCK@ConvexHullBuilder?3?5convex?5hull?5@ 00000001801c0630     GuCookingConvexPolygonsBuilder.obj
 0002:00008670       ??_C@_0GF@OJLJHAMH@ConvexHullBuilder?3?3CreateTriang@ 00000001801c0670     GuCookingConvexPolygonsBuilder.obj
 0002:00008700       ??_C@_0DF@LLFJIJGM@Gu?3?3ConvexMesh?3?3loadFromDesc?3?5d@ 00000001801c0700     GuCookingConvexMeshBuilder.obj
 0002:00008740       ??_C@_0HK@JOGKIEAA@Gu?3?3ConvexMesh?3?5Mesh?5has?5a?5nega@ 00000001801c0740     GuCookingConvexMeshBuilder.obj
 0002:000087c0       ??_C@_0DH@NJPPHFFD@Gu?3?3ConvexMesh?3?5Error?5computing@ 00000001801c07c0     GuCookingConvexMeshBuilder.obj
 0002:000087f8       ??_C@_0DJ@LJDLGLDJ@Gu?3?3ConvexMesh?3?3loadConvexHull?3@ 00000001801c07f8     GuCookingConvexMeshBuilder.obj
 0002:00008840       ??_C@_0HJ@KJANPPOE@ConvexMeshBuilder?3?3computeHullP@ 00000001801c0840     GuCookingConvexMeshBuilder.obj
 0002:000088c0       ??_C@_0GI@EAMJHLJJ@C?3?2Users?2livinamuk?2Desktop?2Phys@ 00000001801c08c0     GuCookingConvexMeshBuilder.obj
 0002:00008928       ??_C@_0O@JMAGMMGG@PxHullPolygon@ 00000001801c0928     GuCookingConvexMeshBuilder.obj
 0002:00008938       __real@3f13cd3a            00000001801c0938     GuCookingConvexMeshBuilder.obj
 0002:00008960       ??_C@_0GG@LOFFLAFA@C?3?2Users?2livinamuk?2Desktop?2Phys@ 00000001801c0960     GuCookingConvexHullUtils.obj
 0002:000089c8       __real@3e20d97c            00000001801c09c8     GuCookingConvexHullUtils.obj
 0002:000089d0       ??_C@_0GE@FEGBDEGH@C?3?2Users?2livinamuk?2Desktop?2Phys@ 00000001801c09d0     GuCookingConvexHullLib.obj
 0002:00008a40       ??_C@_0JE@PABBNGEL@ConvexHullLib?3?3cleanupVertices?3@ 00000001801c0a40     GuCookingConvexHullLib.obj
 0002:00008b00       ??_C@_0GI@IOGNNLMM@C?3?2Users?2livinamuk?2Desktop?2Phys@ 00000001801c0b00     GuCookingConvexHullBuilder.obj
 0002:00008b70       ??_C@_0EB@DCEIFDGC@ConvexHullBuilder?3?3init?3?5convex@ 00000001801c0b70     GuCookingConvexHullBuilder.obj
 0002:00008bc0       ??_C@_0FM@KICBLCBH@Gu?3?3ConvexMesh?3?3checkHullPolygo@ 00000001801c0bc0     GuCookingConvexHullBuilder.obj
 0002:00008c20       ??_C@_0GO@HBFIOGLL@Gu?3?3ConvexMesh?3?3checkHullPolygo@ 00000001801c0c20     GuCookingConvexHullBuilder.obj
 0002:00008c90       ??_C@_0HF@OLJFBIEL@ConvexHullBuilder?3?5convex?5hull?5@ 00000001801c0c90     GuCookingConvexHullBuilder.obj
 0002:00008d10       ??_C@_0OG@JNHFOIL@ConvexHullBuilder?3?5convex?5hull?5@ 00000001801c0d10     GuCookingConvexHullBuilder.obj
 0002:00008e00       ??_C@_0EJ@NIOIBAKH@Cooking?3?3cookConvexMesh?3?5non?9ma@ 00000001801c0e00     GuCookingConvexHullBuilder.obj
 0002:00008e70       ??_C@_0GL@PKJADHBH@C?3?2Users?2livinamuk?2Desktop?2Phys@ 00000001801c0e70     GuCookingBigConvexDataBuilder.obj
 0002:00008ee0       __sz_PhysXFoundation_64_dll 00000001801c0ee0     PhysXFoundation_64:PhysXFoundation_64.dll
 0002:00008ef8       ??_C@_1BK@DBDEIDLH@?$AAK?$AAE?$AAR?$AAN?$AAE?$AAL?$AA3?$AA2?$AA?4?$AAD?$AAL?$AAL@ 00000001801c0ef8     Delayimp:delayhlp.obj
 0002:00008f18       ??_C@_0BI@OMNLIJDB@AcquireSRWLockExclusive@ 00000001801c0f18     Delayimp:delayhlp.obj
 0002:00008f30       ??_C@_0BI@HMIEPCNJ@ReleaseSRWLockExclusive@ 00000001801c0f30     Delayimp:delayhlp.obj
 0002:00008f48       __pfnDliFailureHook2       00000001801c0f48     Delayimp:delayhk1.obj
 0002:00008f58       ??_7type_info@@6B@         00000001801c0f58     MSVCRT:std_type_info_static.obj
 0002:00008fc0       _pDefaultRawDllMain        00000001801c0fc0     MSVCRT:dll_dllmain.obj
 0002:00008fc0       _pRawDllMain               00000001801c0fc0     MSVCRT:dll_dllmain.obj
 0002:00008fd0       _load_config_used          00000001801c0fd0     MSVCRT:loadcfg.obj
 0002:00009180       ??_R4type_info@@6B@        00000001801c1180     MSVCRT:std_type_info_static.obj
 0002:000091a8       ??_R3type_info@@8          00000001801c11a8     MSVCRT:std_type_info_static.obj
 0002:000091c0       ??_R2type_info@@8          00000001801c11c0     MSVCRT:std_type_info_static.obj
 0002:000091d0       ??_R1A@?0A@EA@type_info@@8 00000001801c11d0     MSVCRT:std_type_info_static.obj
 0002:000091f4       __volatile_metadata        00000001801c11f4     <linker-defined>
 0002:00009738       __rtc_iaa                  00000001801c1738     MSVCRT:initsect.obj
 0002:00009740       __rtc_izz                  00000001801c1740     MSVCRT:initsect.obj
 0002:00009748       __rtc_taa                  00000001801c1748     MSVCRT:initsect.obj
 0002:00009750       __rtc_tzz                  00000001801c1750     MSVCRT:initsect.obj
 0002:0001d2c0       __DELAY_IMPORT_DESCRIPTOR_physxfoundation_64_dll 00000001801d52c0     PhysXFoundation_64:PhysXFoundation_64.dll
 0002:0001d2e0       __NULL_DELAY_IMPORT_DESCRIPTOR 00000001801d52e0     PhysXFoundation_64:PhysXFoundation_64.dll
 0002:0001d3c0       \177PhysXFoundation_64_NULL_THUNK_DATA_DLN 00000001801d53c0     PhysXFoundation_64:PhysXFoundation_64.dll
 0002:0001d7e8       \177PhysXFoundation_64_NULL_THUNK_DATA_DLB 00000001801d57e8     PhysXFoundation_64:PhysXFoundation_64.dll
 0002:00029ec4       __IMPORT_DESCRIPTOR_KERNEL32 00000001801e1ec4     kernel32:KERNEL32.dll
 0002:00029ed8       __IMPORT_DESCRIPTOR_VCRUNTIME140 00000001801e1ed8     vcruntime:VCRUNTIME140.dll
 0002:00029eec       __IMPORT_DESCRIPTOR_api-ms-win-crt-math-l1-1-0 00000001801e1eec     ucrt:api-ms-win-crt-math-l1-1-0.dll
 0002:00029f00       __IMPORT_DESCRIPTOR_api-ms-win-crt-stdio-l1-1-0 00000001801e1f00     ucrt:api-ms-win-crt-stdio-l1-1-0.dll
 0002:00029f14       __IMPORT_DESCRIPTOR_api-ms-win-crt-heap-l1-1-0 00000001801e1f14     ucrt:api-ms-win-crt-heap-l1-1-0.dll
 0002:00029f28       __IMPORT_DESCRIPTOR_api-ms-win-crt-runtime-l1-1-0 00000001801e1f28     ucrt:api-ms-win-crt-runtime-l1-1-0.dll
 0002:00029f3c       __NULL_IMPORT_DESCRIPTOR   00000001801e1f3c     kernel32:KERNEL32.dll
 0003:00000000       __pfnDliNotifyHook2        00000001801e3000     CmWindowsDelayLoadHook.obj
 0003:00000030       ?gGeomMTDMethodTable@@3PAY0L@P6A_NAEAV?$PxVec3T@M@physx@@AEAMAEBVPxGeometry@2@AEBUPxTransformPadded@2@23@ZA 00000001801e3030     GuMTD.obj
 0003:00000400       ?gGeomOverlapMethodTable@@3PAY0L@P6A_NAEBVPxGeometry@physx@@AEBV?$PxTransformT@M@2@01PEAUTriggerCache@Gu@2@PEAUPxQueryThreadContext@2@@ZA 00000001801e3400     GuOverlapTests.obj
 0003:000007d0       ?gRaycastMap@@3PAP6AIAEBVPxGeometry@physx@@AEBV?$PxTransformT@M@2@AEBV?$PxVec3T@M@2@2MV?$PxFlags@W4Enum@PxHitFlag@physx@@G@2@IPEIAUPxGeomRaycastHit@2@IPEAUPxQueryThreadContext@2@@ZA 00000001801e37d0     GuRaycastTests.obj
 0003:00000830       ?gGeomSweepFuncs@@3UGeomSweepFuncs@Gu@physx@@A 00000001801e3830     GuSweepTests.obj
 0003:000009f0       ?g_SweepMethodTable@Gu@physx@@3PAY0L@P6AMAEBUCCDShape@12@0AEBUPxTransformPadded@2@111MAEAV?$PxVec3T@M@2@2MAEAIM@ZA 00000001801e39f0     GuCCDSweepPrimitives.obj
 0003:00000dc0       ?g_TriangleSweepMethodTable@Gu@physx@@3PAP6AMAEBVPxGeometry@2@0AEBUPxTransformPadded@2@111MAEAV?$PxVec3T@M@2@2AEBVFastVertex2ShapeScaling@Cm@2@AEAVTriangleV@12@M@ZA 00000001801e3dc0     GuCCDSweepPrimitives.obj
 0003:000011ec       _fltused                   00000001801e41ec     MSVCRT:fltused.obj
 0003:000011f0       __scrt_native_dllmain_reason 00000001801e41f0     MSVCRT:utility.obj
 0003:000011f8       __isa_available            00000001801e41f8     MSVCRT:cpu_disp.obj
 0003:000011fc       __isa_enabled              00000001801e41fc     MSVCRT:cpu_disp.obj
 0003:00001200       __memset_fast_string_threshold 00000001801e4200     MSVCRT:cpu_disp.obj
 0003:00001208       __memset_nt_threshold      00000001801e4208     MSVCRT:cpu_disp.obj
 0003:00001210       __security_cookie_complement 00000001801e4210     MSVCRT:gs_cookie.obj
 0003:00001218       __security_cookie          00000001801e4218     MSVCRT:gs_cookie.obj
 0003:00001220       __scrt_ucrt_dll_is_in_use  00000001801e4220     MSVCRT:ucrt_stubs.obj
 0003:00001230       ??_R0?AVCollection@Cm@physx@@@8 00000001801e4230     CmCollection.obj
 0003:00001260       ??_R0I@8                   00000001801e4260     GuGeometryQuery.obj
 0003:00001278       ??_R0?AVPxMutexImpl@physx@@@8 00000001801e4278     GuMeshFactory.obj
 0003:000012a0       ??_R0?AVBVH@Gu@physx@@@8   00000001801e42a0     GuMeshFactory.obj
 0003:000012c8       ??_R0?AVHeightField@Gu@physx@@@8 00000001801e42c8     GuMeshFactory.obj
 0003:000012f8       ??_R0?AVConvexMesh@Gu@physx@@@8 00000001801e42f8     GuMeshFactory.obj
 0003:00001328       ??_R0?AVSoftBodyMesh@Gu@physx@@@8 00000001801e4328     GuMeshFactory.obj
 0003:00001358       ??_R0?AVTetrahedronMesh@Gu@physx@@@8 00000001801e4358     GuMeshFactory.obj
 0003:00001388       ??_R0?AVTetrahedronMeshData@Gu@physx@@@8 00000001801e4388     GuMeshFactory.obj
 0003:000013c0       ??_R0?AVBV4TriangleMesh@Gu@physx@@@8 00000001801e43c0     GuMeshFactory.obj
 0003:000013f0       ??_R0?AVRTreeTriangleMesh@Gu@physx@@@8 00000001801e43f0     GuMeshFactory.obj
 0003:00001428       ??_R0?AVBV32Tree@Gu@physx@@@8 00000001801e4428     GuMeshFactory.obj
 0003:00001450       ??_R0?AVBV4TriangleData@Gu@physx@@@8 00000001801e4450     GuMeshFactory.obj
 0003:00001480       ??_R0?AVRTreeTriangleData@Gu@physx@@@8 00000001801e4480     GuMeshFactory.obj
 0003:000014b8       ??_R0?AUSlab@NodeAllocator@Gu@physx@@@8 00000001801e44b8     GuMeshFactory.obj
 0003:000014f0       ??_R0PEAVMeshFactoryListener@Gu@physx@@@8 00000001801e44f0     GuMeshFactory.obj
 0003:00001528       ??_R0?AVPxThreadImpl@physx@@@8 00000001801e4528     GuSDF.obj
 0003:00001558       ??_R0?AUMap@Gu@physx@@@8   00000001801e4558     GuSDF.obj
 0003:00001580       ??_R0?AV?$PxThreadT@V?$PxReflectionAllocator@VPxThreadImpl@physx@@@physx@@@physx@@@8 00000001801e4580     GuSDF.obj
 0003:000015e0       ??_R0?AVPointOntoTriangleMeshProjector@Gu@physx@@@8 00000001801e45e0     GuSDF.obj
 0003:00001620       ??_R0?AUIsosurfaceThreadData@Gu@physx@@@8 00000001801e4620     GuSDF.obj
 0003:00001658       ??_R0?AV?$PxVec3T@M@physx@@@8 00000001801e4658     GuSDF.obj
 0003:00001680       ??_R0M@8                   00000001801e4680     GuSDF.obj
 0003:00001698       ??_R0?AUSDFCalculationData@Gu@physx@@@8 00000001801e4698     GuSDF.obj
 0003:000016d0       ??_R0PEAV?$PxThreadT@V?$PxReflectionAllocator@VPxThreadImpl@physx@@@physx@@@physx@@@8 00000001801e46d0     GuSDF.obj
 0003:00001730       ??_R0?AUMutation@Gu@physx@@@8 00000001801e4730     GuSDF.obj
 0003:00001758       ??_R0?AURange@Gu@physx@@@8 00000001801e4758     GuSDF.obj
 0003:00001780       ??_R0?AUBVHNode@Gu@physx@@@8 00000001801e4780     GuSDF.obj
 0003:000017a8       ??_R0H@8                   00000001801e47a8     GuSDF.obj
 0003:000017c0       ??_R0?AURange@MeshAnalyzer@Gu@physx@@@8 00000001801e47c0     GuSDF.obj
 0003:000017f8       ??_R0PEAUMap@Gu@physx@@@8  00000001801e47f8     GuSDF.obj
 0003:00001820       ??_R0E@8                   00000001801e4820     GuCookingSDF.obj
 0003:00001838       ??_R0?AUSection@Gu@physx@@@8 00000001801e4838     GuWindingNumber.obj
 0003:00001860       ??_R0?AVAdjEdge@@@8        00000001801e4860     GuAdjacencies.obj
 0003:00001880       ??_R0?AVAdjTriangle@Gu@physx@@@8 00000001801e4880     GuAdjacencies.obj
 0003:000018b0       ??_R0?AVQuantizerImpl@@@8  00000001801e48b0     GuQuantizer.obj
 0003:000018e0       ??_R0?AV?$PxArray@IV?$PxReflectionAllocator@I@physx@@@physx@@@8 00000001801e48e0     GuMeshAnalysis.obj
 0003:00001930       ??_R0_N@8                  00000001801e4930     GuMeshAnalysis.obj
 0003:00001948       ??_R0?AVSDF@Gu@physx@@@8   00000001801e4948     GuConvexMesh.obj
 0003:00001970       ??_R0?AVBigConvexData@physx@@@8 00000001801e4970     GuConvexMesh.obj
 0003:000019a0       ??_R0?AU?$IndexedTriangleT@G@Gu@physx@@@8 00000001801e49a0     GuBV4.obj
 0003:000019d8       ??_R0?AU?$IndexedTriangleT@I@Gu@physx@@@8 00000001801e49d8     GuBV4.obj
 0003:00001a10       ??_R0?AVIndTetrahedron16@Gu@physx@@@8 00000001801e4a10     GuBV4.obj
 0003:00001a40       ??_R0?AVIndTetrahedron32@Gu@physx@@@8 00000001801e4a40     GuBV4.obj
 0003:00001a70       ??_R0?AUSlab@BV4BuildParams@@@8 00000001801e4a70     GuBV4Build.obj
 0003:00001aa0       ??_R0?AVAABBTreeNode@Gu@physx@@@8 00000001801e4aa0     GuBV4Build.obj
 0003:00001ad0       ??_R0?AVEdgeList@Gu@physx@@@8 00000001801e4ad0     GuTriangleMesh.obj
 0003:00001af8       ??_R0?AUBV32Data@Gu@physx@@@8 00000001801e4af8     GuBV32Build.obj
 0003:00001b20       ??_R0?AUBV32Node@@@8       00000001801e4b20     GuBV32Build.obj
 0003:00001b40       ??_R0?AVBVTetrahedronMesh@Gu@physx@@@8 00000001801e4b40     GuTetrahedronMesh.obj
 0003:00001b78       ??_R0?AVSoftBodyAuxData@Gu@physx@@@8 00000001801e4b78     GuTetrahedronMesh.obj
 0003:00001ba8       ??_R0?AUSortedTriangle@Gu@physx@@@8 00000001801e4ba8     GuPCMContactSphereHeightField.obj
 0003:00001bd8       ??_R0?AVFIFOStack@Gu@physx@@@8 00000001801e4bd8     GuAABBTree.obj
 0003:00001c08       ??_R0?AVAABBTreeBuildNode@Gu@physx@@@8 00000001801e4c08     GuAABBTree.obj
 0003:00001c40       ??_R0PEAVAABBTreeBuildNode@Gu@physx@@@8 00000001801e4c40     GuAABBTree.obj
 0003:00001c78       ??_R0?AUIncrementalAABBTreeNodePair@Gu@physx@@@8 00000001801e4c78     GuIncrementalAABBTree.obj
 0003:00001cb8       ??_R0?AUAABBTreeIndices@Gu@physx@@@8 00000001801e4cb8     GuIncrementalAABBTree.obj
 0003:00001ce8       ??_R0PEAVIncrementalAABBTreeNode@Gu@physx@@@8 00000001801e4ce8     GuIncrementalAABBTree.obj
 0003:00001d20       ??_R0PEBUBVHNode@Gu@physx@@@8 00000001801e4d20     GuBVH.obj
 0003:00001d48       ??_R0PEBVIncrementalAABBTreeNode@Gu@physx@@@8 00000001801e4d48     GuIncrementalAABBPrunerCore.obj
 0003:00001d80       ??_R0?AVIncrementalAABBTree@Gu@physx@@@8 00000001801e4d80     GuIncrementalAABBPrunerCore.obj
 0003:00001db8       ??_R0?AVAABBTree@Gu@physx@@@8 00000001801e4db8     GuExtendedBucketPruner.obj
 0003:00001de0       ??_R0?AVCompanionPrunerIncremental@@@8 00000001801e4de0     GuSecondaryPruner.obj
 0003:00001e18       ??_R0?AVCompanionPrunerBucket@@@8 00000001801e4e18     GuSecondaryPruner.obj
 0003:00001e48       ??_R0?AVCompanionPrunerAABBTree@@@8 00000001801e4e48     GuSecondaryPruner.obj
 0003:00001e78       ??_R0?AULocalData@CompanionPrunerAABBTree@@@8 00000001801e4e78     GuSecondaryPruner.obj
 0003:00001eb0       ??_R0?AUNewTreeFixup@AABBPruner@Gu@physx@@@8 00000001801e4eb0     GuAABBPruner.obj
 0003:00001ee8       ??_R0?AUPrunerExt@QuerySystem@Gu@physx@@@8 00000001801e4ee8     GuQuerySystem.obj
 0003:00001f20       ??_R0PEAUPrunerExt@QuerySystem@Gu@physx@@@8 00000001801e4f20     GuQuerySystem.obj
 0003:00001f58       ??_R0?AUData@PrunerExt@QuerySystem@Gu@physx@@@8 00000001801e4f58     GuQuerySystem.obj
 0003:00001f98       ??_R0?AVIncrementalAABBPruner@Gu@physx@@@8 00000001801e4f98     GuFactory.obj
 0003:00001fd0       ??_R0?AVAABBPruner@Gu@physx@@@8 00000001801e4fd0     GuFactory.obj
 0003:00002000       ??_R0?AVBucketPruner@Gu@physx@@@8 00000001801e5000     GuFactory.obj
 0003:00002030       ??_R0?AUInterval@physx@@@8 00000001801e5030     GuRTreeCooking.obj
 0003:00002058       ??_R0?AURTreeNodeQ@Gu@physx@@@8 00000001801e5058     GuRTreeCooking.obj
 0003:00002088       ??_R0?AURTreeNodeNQ@physx@@@8 00000001801e5088     GuRTreeCooking.obj
 0003:000020b0       ??_R0?AUPxBounds3V@physx@@@8 00000001801e50b0     GuRTreeCooking.obj
 0003:000020d8       ??_R0?AVQuickHullConvexHullLib@physx@@@8 00000001801e50d8     GuCookingConvexMesh.obj
 0003:00002110       ??_R0?AVSimulationTetrahedronMeshData@Gu@physx@@@8 00000001801e5110     GuCookingTetrahedronMesh.obj
 0003:00002150       ??_R0?AVSoftBodySimulationData@Gu@physx@@@8 00000001801e5150     GuCookingTetrahedronMesh.obj
 0003:00002188       ??_R0?AVCollisionTetrahedronMeshData@Gu@physx@@@8 00000001801e5188     GuCookingTetrahedronMesh.obj
 0003:000021c8       ??_R0?AVSoftBodyCollisionData@Gu@physx@@@8 00000001801e51c8     GuCookingTetrahedronMesh.obj
 0003:00002200       ??_R0?AVCollisionMeshMappingData@Gu@physx@@@8 00000001801e5200     GuCookingTetrahedronMesh.obj
 0003:00002238       ??_R0?AVConvexHull@physx@@@8 00000001801e5238     GuCookingQuickHullConvexHullLib.obj
 0003:00002260       ??_R0?AVQuickHull@local@@@8 00000001801e5260     GuCookingQuickHullConvexHullLib.obj
 0003:00002288       ??_R0?AUExpandPoint@local@@@8 00000001801e5288     GuCookingQuickHullConvexHullLib.obj
 0003:000022b0       ??_R0PEAUQuickHullVertex@local@@@8 00000001801e52b0     GuCookingQuickHullConvexHullLib.obj
 0003:000022e0       ??_R0PEAUQuickHullFace@local@@@8 00000001801e52e0     GuCookingQuickHullConvexHullLib.obj
 0003:00002310       ??_R0PEAUQuickHullHalfEdge@local@@@8 00000001801e5310     GuCookingQuickHullConvexHullLib.obj
 0003:00002340       ??_R0?AVPxPlane@physx@@@8  00000001801e5340     GuCookingQuickHullConvexHullLib.obj
 0003:00002368       ??_R0?AVPair@@@8           00000001801e5368     GuCookingConvexPolygonsBuilder.obj
 0003:00002388       ??_R0?AVHalfEdge@ConvexHull@physx@@@8 00000001801e5388     GuCookingConvexHullUtils.obj
 0003:000023b8       ??_R0?AVtype_info@@@8      00000001801e53b8     MSVCRT:std_type_info_static.obj
 0003:000023d8       __imp_PxGetFoundation      00000001801e53d8     PhysXFoundation_64:PhysXFoundation_64.dll
 0003:000023e0       __imp_??1PxFPUGuard@physx@@QEAA@XZ 00000001801e53e0     PhysXFoundation_64:PhysXFoundation_64.dll
 0003:000023e8       __imp_PxGetBroadcastAllocator 00000001801e53e8     PhysXFoundation_64:PhysXFoundation_64.dll
 0003:000023f0       __imp_?PxAtomicIncrement@physx@@YAHPECH@Z 00000001801e53f0     PhysXFoundation_64:PhysXFoundation_64.dll
 0003:000023f8       __imp_??0PxMutexImpl@physx@@QEAA@XZ 00000001801e53f8     PhysXFoundation_64:PhysXFoundation_64.dll
 0003:00002400       __imp_??1PxMutexImpl@physx@@QEAA@XZ 00000001801e5400     PhysXFoundation_64:PhysXFoundation_64.dll
 0003:00002408       __imp_?lock@PxMutexImpl@physx@@QEAAXXZ 00000001801e5408     PhysXFoundation_64:PhysXFoundation_64.dll
 0003:00002410       __imp_?unlock@PxMutexImpl@physx@@QEAAXXZ 00000001801e5410     PhysXFoundation_64:PhysXFoundation_64.dll
 0003:00002418       __imp_?getSize@PxMutexImpl@physx@@SAIXZ 00000001801e5418     PhysXFoundation_64:PhysXFoundation_64.dll
 0003:00002420       __imp_?PxTransformFromSegment@physx@@YA?AV?$PxTransformT@M@1@AEBV?$PxVec3T@M@1@0PEAM@Z 00000001801e5420     PhysXFoundation_64:PhysXFoundation_64.dll
 0003:00002428       __imp_?PxAtomicAdd@physx@@YAHPECHH@Z 00000001801e5428     PhysXFoundation_64:PhysXFoundation_64.dll
 0003:00002430       __imp_?getDefaultStackSize@PxThreadImpl@physx@@SAIXZ 00000001801e5430     PhysXFoundation_64:PhysXFoundation_64.dll
 0003:00002438       __imp_??0PxThreadImpl@physx@@QEAA@P6APEAXPEAX@Z0PEBD@Z 00000001801e5438     PhysXFoundation_64:PhysXFoundation_64.dll
 0003:00002440       __imp_??1PxThreadImpl@physx@@QEAA@XZ 00000001801e5440     PhysXFoundation_64:PhysXFoundation_64.dll
 0003:00002448       __imp_?start@PxThreadImpl@physx@@QEAAXIPEAVPxRunnable@2@@Z 00000001801e5448     PhysXFoundation_64:PhysXFoundation_64.dll
 0003:00002450       __imp_?waitForQuit@PxThreadImpl@physx@@QEAA_NXZ 00000001801e5450     PhysXFoundation_64:PhysXFoundation_64.dll
 0003:00002458       __imp_?getSize@PxThreadImpl@physx@@SAIXZ 00000001801e5458     PhysXFoundation_64:PhysXFoundation_64.dll
 0003:00002460       __imp_?allocate@PxTempAllocator@physx@@QEAAPEAX_KPEBDH@Z 00000001801e5460     PhysXFoundation_64:PhysXFoundation_64.dll
 0003:00002468       __imp_?deallocate@PxTempAllocator@physx@@QEAAXPEAX@Z 00000001801e5468     PhysXFoundation_64:PhysXFoundation_64.dll
 0003:00002470       __imp_?PxOptimizeBoundingBox@physx@@YA?AV?$PxVec3T@M@1@AEAV?$PxMat33T@M@1@@Z 00000001801e5470     PhysXFoundation_64:PhysXFoundation_64.dll
 0003:00002478       __imp_?Pxstrcmp@physx@@YAHPEBD0@Z 00000001801e5478     PhysXFoundation_64:PhysXFoundation_64.dll
 0003:00002480       __imp_?PxAtomicDecrement@physx@@YAHPECH@Z 00000001801e5480     PhysXFoundation_64:PhysXFoundation_64.dll
 0003:00002488       __imp_??0PxFPUGuard@physx@@QEAA@XZ 00000001801e5488     PhysXFoundation_64:PhysXFoundation_64.dll
 0003:00002490       __imp_?PxDiagonalize@physx@@YA?AV?$PxVec3T@M@1@AEBV?$PxMat33T@M@1@AEAV?$PxQuatT@M@1@@Z 00000001801e5490     PhysXFoundation_64:PhysXFoundation_64.dll
 0003:00002498       \177PhysXFoundation_64_NULL_THUNK_DATA_DLA 00000001801e5498     PhysXFoundation_64:PhysXFoundation_64.dll
 0003:000024a0       ?_OptionsStorage@?1??__local_stdio_printf_options@@9@4_KA 00000001801e54a0     CmWindowsModuleUpdateLoader.obj
 0003:00003060       ?boxVertexTable@physx@@3QBT__m128@@B 00000001801e6060     GuConvexSupportTable.obj
 0003:000058d0       __hmod__PhysXFoundation_64_dll 00000001801e88d0     PhysXFoundation_64:PhysXFoundation_64.dll
 0003:000058d8       ?DloadKernel32@@3PEAUHINSTANCE__@@EA 00000001801e88d8     Delayimp:delayhlp.obj
 0003:000058e0       ?DloadAcquireSRWLockExclusive@@3P6AXPEA_K@ZEA 00000001801e88e0     Delayimp:delayhlp.obj
 0003:000058e8       ?DloadReleaseSRWLockExclusive@@3P6AXPEA_K@ZEA 00000001801e88e8     Delayimp:delayhlp.obj
 0003:000058f0       ?DloadSrwLock@@3_KA        00000001801e88f0     Delayimp:delayhlp.obj
 0003:000058f8       ?DloadSectionLockCount@@3KA 00000001801e88f8     Delayimp:delayhlp.obj
 0003:000058fc       ?DloadSectionOldProtection@@3KA 00000001801e88fc     Delayimp:delayhlp.obj
 0003:00005900       ?DloadSectionCommitPermanent@@3KA 00000001801e8900     Delayimp:delayhlp.obj
 0003:00005910       ?__type_info_root_node@@3U__type_info_node@@A 00000001801e8910     MSVCRT:tncleanup.obj
 0003:00005920       __scrt_current_native_startup_state 00000001801e8920     MSVCRT:utility.obj
 0003:00005928       __scrt_native_startup_lock 00000001801e8928     MSVCRT:utility.obj
 0003:00005968       __favor                    00000001801e8968     MSVCRT:cpu_disp.obj
 0003:00005970       __scrt_debugger_hook_flag  00000001801e8970     MSVCRT:utility_desktop.obj
 0003:00005978       ?_OptionsStorage@?1??__local_stdio_scanf_options@@9@4_KA 00000001801e8978     MSVCRT:default_local_stdio_options.obj
 0003:00005980       __dyn_tls_init_callback    00000001801e8980     <common>
 0005:00000100       __common_ssin_reduction_data 00000001801f4100     MSVCRT:svml_s_sin_data.obj
 0005:00000d00       __common_ssin_data         00000001801f4d00     MSVCRT:svml_s_sin_data.obj

 entry point at        0001:001b4dc4

 Static symbols

 0000:ffe05000       .debug$S                   0000000180000000     PhysXCommon_64.exp
 0000:ffe05000       .debug$S                   0000000180000000     ucrt:api-ms-win-crt-heap-l1-1-0.dll
 0000:ffe05000       .debug$S                   0000000180000000     ucrt:api-ms-win-crt-math-l1-1-0.dll
 0000:ffe05000       .debug$S                   0000000180000000     ucrt:api-ms-win-crt-math-l1-1-0.dll
 0000:ffe05000       .debug$S                   0000000180000000     ucrt:api-ms-win-crt-math-l1-1-0.dll
 0000:ffe05000       .debug$S                   0000000180000000     ucrt:api-ms-win-crt-math-l1-1-0.dll
 0000:ffe05000       .debug$S                   0000000180000000     ucrt:api-ms-win-crt-math-l1-1-0.dll
 0000:ffe05000       .debug$S                   0000000180000000     ucrt:api-ms-win-crt-math-l1-1-0.dll
 0000:ffe05000       .debug$S                   0000000180000000     ucrt:api-ms-win-crt-math-l1-1-0.dll
 0000:ffe05000       .debug$S                   0000000180000000     ucrt:api-ms-win-crt-runtime-l1-1-0.dll
 0000:ffe05000       .debug$S                   0000000180000000     ucrt:api-ms-win-crt-runtime-l1-1-0.dll
 0000:ffe05000       .debug$S                   0000000180000000     ucrt:api-ms-win-crt-runtime-l1-1-0.dll
 0000:ffe05000       .debug$S                   0000000180000000     ucrt:api-ms-win-crt-runtime-l1-1-0.dll
 0000:ffe05000       .debug$S                   0000000180000000     ucrt:api-ms-win-crt-runtime-l1-1-0.dll
 0000:ffe05000       .debug$S                   0000000180000000     ucrt:api-ms-win-crt-runtime-l1-1-0.dll
 0000:ffe05000       .debug$S                   0000000180000000     ucrt:api-ms-win-crt-runtime-l1-1-0.dll
 0000:ffe05000       .debug$S                   0000000180000000     ucrt:api-ms-win-crt-runtime-l1-1-0.dll
 0000:ffe05000       .debug$S                   0000000180000000     ucrt:api-ms-win-crt-runtime-l1-1-0.dll
 0000:ffe05000       .debug$S                   0000000180000000     ucrt:api-ms-win-crt-runtime-l1-1-0.dll
 0000:ffe05000       .debug$S                   0000000180000000     ucrt:api-ms-win-crt-runtime-l1-1-0.dll
 0000:ffe05000       .debug$S                   0000000180000000     ucrt:api-ms-win-crt-runtime-l1-1-0.dll
 0000:ffe05000       .debug$S                   0000000180000000     ucrt:api-ms-win-crt-stdio-l1-1-0.dll
 0000:ffe05000       .debug$S                   0000000180000000     ucrt:api-ms-win-crt-stdio-l1-1-0.dll
 0000:ffe05000       .debug$S                   0000000180000000     kernel32:KERNEL32.dll
 0000:ffe05000       .debug$S                   0000000180000000     kernel32:KERNEL32.dll
 0000:ffe05000       .debug$S                   0000000180000000     kernel32:KERNEL32.dll
 0000:ffe05000       .debug$S                   0000000180000000     kernel32:KERNEL32.dll
 0000:ffe05000       .debug$S                   0000000180000000     kernel32:KERNEL32.dll
 0000:ffe05000       .debug$S                   0000000180000000     kernel32:KERNEL32.dll
 0000:ffe05000       .debug$S                   0000000180000000     kernel32:KERNEL32.dll
 0000:ffe05000       .debug$S                   0000000180000000     kernel32:KERNEL32.dll
 0000:ffe05000       .debug$S                   0000000180000000     kernel32:KERNEL32.dll
 0000:ffe05000       .debug$S                   0000000180000000     kernel32:KERNEL32.dll
 0000:ffe05000       .debug$S                   0000000180000000     kernel32:KERNEL32.dll
 0000:ffe05000       .debug$S                   0000000180000000     kernel32:KERNEL32.dll
 0000:ffe05000       .debug$S                   0000000180000000     kernel32:KERNEL32.dll
 0000:ffe05000       .debug$S                   0000000180000000     kernel32:KERNEL32.dll
 0000:ffe05000       .debug$S                   0000000180000000     kernel32:KERNEL32.dll
 0000:ffe05000       .debug$S                   0000000180000000     kernel32:KERNEL32.dll
 0000:ffe05000       .debug$S                   0000000180000000     kernel32:KERNEL32.dll
 0000:ffe05000       .debug$S                   0000000180000000     kernel32:KERNEL32.dll
 0000:ffe05000       .debug$S                   0000000180000000     kernel32:KERNEL32.dll
 0000:ffe05000       .debug$S                   0000000180000000     kernel32:KERNEL32.dll
 0000:ffe05000       .debug$S                   0000000180000000     kernel32:KERNEL32.dll
 0000:ffe05000       .debug$S                   0000000180000000     kernel32:KERNEL32.dll
 0000:ffe05000       .debug$S                   0000000180000000     kernel32:KERNEL32.dll
 0000:ffe05000       .debug$S                   0000000180000000     kernel32:KERNEL32.dll
 0000:ffe05000       .debug$S                   0000000180000000     vcruntime:VCRUNTIME140.dll
 0000:ffe05000       .debug$S                   0000000180000000     vcruntime:VCRUNTIME140.dll
 0000:ffe05000       .debug$S                   0000000180000000     vcruntime:VCRUNTIME140.dll
 0000:ffe05000       .debug$S                   0000000180000000     vcruntime:VCRUNTIME140.dll
 0000:ffe05000       .debug$S                   0000000180000000     vcruntime:VCRUNTIME140.dll
 0000:ffe05000       .debug$S                   0000000180000000     vcruntime:VCRUNTIME140.dll
 0000:ffe05000       .debug$S                   0000000180000000     vcruntime:VCRUNTIME140.dll
 0000:ffe05000       .debug$S                   0000000180000000     vcruntime:VCRUNTIME140.dll
 0000:ffe05000       .debug$S                   0000000180000000     vcruntime:VCRUNTIME140.dll
 0000:ffe05000       .debug$S                   0000000180000000     PhysXFoundation_64:PhysXFoundation_64.dll
 0000:ffe05000       .debug$S                   0000000180000000     PhysXFoundation_64:PhysXFoundation_64.dll
 0000:ffe05000       .debug$S                   0000000180000000     PhysXFoundation_64:PhysXFoundation_64.dll
 0000:ffe05000       .debug$S                   0000000180000000     PhysXFoundation_64:PhysXFoundation_64.dll
 0000:ffe05000       .debug$S                   0000000180000000     PhysXFoundation_64:PhysXFoundation_64.dll
 0000:ffe05000       .debug$S                   0000000180000000     PhysXFoundation_64:PhysXFoundation_64.dll
 0000:ffe05000       .debug$S                   0000000180000000     PhysXFoundation_64:PhysXFoundation_64.dll
 0000:ffe05000       .debug$S                   0000000180000000     PhysXFoundation_64:PhysXFoundation_64.dll
 0000:ffe05000       .debug$S                   0000000180000000     PhysXFoundation_64:PhysXFoundation_64.dll
 0000:ffe05000       .debug$S                   0000000180000000     PhysXFoundation_64:PhysXFoundation_64.dll
 0000:ffe05000       .debug$S                   0000000180000000     PhysXFoundation_64:PhysXFoundation_64.dll
 0000:ffe05000       .debug$S                   0000000180000000     PhysXFoundation_64:PhysXFoundation_64.dll
 0000:ffe05000       .debug$S                   0000000180000000     PhysXFoundation_64:PhysXFoundation_64.dll
 0000:ffe05000       .debug$S                   0000000180000000     PhysXFoundation_64:PhysXFoundation_64.dll
 0000:ffe05000       .debug$S                   0000000180000000     PhysXFoundation_64:PhysXFoundation_64.dll
 0000:ffe05000       .debug$S                   0000000180000000     PhysXFoundation_64:PhysXFoundation_64.dll
 0000:ffe05000       .debug$S                   0000000180000000     PhysXFoundation_64:PhysXFoundation_64.dll
 0000:ffe05000       .debug$S                   0000000180000000     PhysXFoundation_64:PhysXFoundation_64.dll
 0000:ffe05000       .debug$S                   0000000180000000     PhysXFoundation_64:PhysXFoundation_64.dll
 0000:ffe05000       .debug$S                   0000000180000000     PhysXFoundation_64:PhysXFoundation_64.dll
 0000:ffe05000       .debug$S                   0000000180000000     PhysXFoundation_64:PhysXFoundation_64.dll
 0000:ffe05000       .debug$S                   0000000180000000     PhysXFoundation_64:PhysXFoundation_64.dll
 0000:ffe05000       .debug$S                   0000000180000000     PhysXFoundation_64:PhysXFoundation_64.dll
 0000:ffe05000       .debug$S                   0000000180000000     PhysXFoundation_64:PhysXFoundation_64.dll
 0001:00000000       ??__EmaxFError@vecMathTests@aos@physx@@YAXXZ 0000000180001000 f   GuBox.obj
 0001:00000010       ??__EmaxV3Error@vecMathTests@aos@physx@@YAXXZ 0000000180001010 f   GuBox.obj
 0001:00000020       ??__EmaxV4Error@vecMathTests@aos@physx@@YAXXZ 0000000180001020 f   GuBox.obj
 0001:00000030       ??__EminFError@vecMathTests@aos@physx@@YAXXZ 0000000180001030 f   GuBox.obj
 0001:00000040       ??__EminV3Error@vecMathTests@aos@physx@@YAXXZ 0000000180001040 f   GuBox.obj
 0001:00000050       ??__EminV4Error@vecMathTests@aos@physx@@YAXXZ 0000000180001050 f   GuBox.obj
 0001:00000060       ??__EmaxFError@vecMathTests@aos@physx@@YAXXZ 0000000180001060 f   GuCCTSweepTests.obj
 0001:00000070       ??__EmaxV3Error@vecMathTests@aos@physx@@YAXXZ 0000000180001070 f   GuCCTSweepTests.obj
 0001:00000080       ??__EmaxV4Error@vecMathTests@aos@physx@@YAXXZ 0000000180001080 f   GuCCTSweepTests.obj
 0001:00000090       ??__EminFError@vecMathTests@aos@physx@@YAXXZ 0000000180001090 f   GuCCTSweepTests.obj
 0001:000000a0       ??__EminV3Error@vecMathTests@aos@physx@@YAXXZ 00000001800010a0 f   GuCCTSweepTests.obj
 0001:000000b0       ??__EminV4Error@vecMathTests@aos@physx@@YAXXZ 00000001800010b0 f   GuCCTSweepTests.obj
 0001:000000c0       ??__EmaxFError@vecMathTests@aos@physx@@YAXXZ 00000001800010c0 f   GuGeometryQuery.obj
 0001:000000d0       ??__EmaxV3Error@vecMathTests@aos@physx@@YAXXZ 00000001800010d0 f   GuGeometryQuery.obj
 0001:000000e0       ??__EmaxV4Error@vecMathTests@aos@physx@@YAXXZ 00000001800010e0 f   GuGeometryQuery.obj
 0001:000000f0       ??__EminFError@vecMathTests@aos@physx@@YAXXZ 00000001800010f0 f   GuGeometryQuery.obj
 0001:00000100       ??__EminV3Error@vecMathTests@aos@physx@@YAXXZ 0000000180001100 f   GuGeometryQuery.obj
 0001:00000110       ??__EminV4Error@vecMathTests@aos@physx@@YAXXZ 0000000180001110 f   GuGeometryQuery.obj
 0001:00000120       ??__EmaxFError@vecMathTests@aos@physx@@YAXXZ 0000000180001120 f   GuInternal.obj
 0001:00000130       ??__EmaxV3Error@vecMathTests@aos@physx@@YAXXZ 0000000180001130 f   GuInternal.obj
 0001:00000140       ??__EmaxV4Error@vecMathTests@aos@physx@@YAXXZ 0000000180001140 f   GuInternal.obj
 0001:00000150       ??__EminFError@vecMathTests@aos@physx@@YAXXZ 0000000180001150 f   GuInternal.obj
 0001:00000160       ??__EminV3Error@vecMathTests@aos@physx@@YAXXZ 0000000180001160 f   GuInternal.obj
 0001:00000170       ??__EminV4Error@vecMathTests@aos@physx@@YAXXZ 0000000180001170 f   GuInternal.obj
 0001:00000180       ??__EgSAIC@?A0x901d1001@@YAXXZ 0000000180001180 f   GuMeshFactory.obj
 0001:00000190       ??__EmaxFError@vecMathTests@aos@physx@@YAXXZ 0000000180001190 f   GuMeshFactory.obj
 0001:000001a0       ??__EmaxV3Error@vecMathTests@aos@physx@@YAXXZ 00000001800011a0 f   GuMeshFactory.obj
 0001:000001b0       ??__EmaxV4Error@vecMathTests@aos@physx@@YAXXZ 00000001800011b0 f   GuMeshFactory.obj
 0001:000001c0       ??__EminFError@vecMathTests@aos@physx@@YAXXZ 00000001800011c0 f   GuMeshFactory.obj
 0001:000001d0       ??__EminV3Error@vecMathTests@aos@physx@@YAXXZ 00000001800011d0 f   GuMeshFactory.obj
 0001:000001e0       ??__EminV4Error@vecMathTests@aos@physx@@YAXXZ 00000001800011e0 f   GuMeshFactory.obj
 0001:000001f0       ??__EmaxFError@vecMathTests@aos@physx@@YAXXZ 00000001800011f0 f   GuMetaData.obj
 0001:00000200       ??__EmaxV3Error@vecMathTests@aos@physx@@YAXXZ 0000000180001200 f   GuMetaData.obj
 0001:00000210       ??__EmaxV4Error@vecMathTests@aos@physx@@YAXXZ 0000000180001210 f   GuMetaData.obj
 0001:00000220       ??__EminFError@vecMathTests@aos@physx@@YAXXZ 0000000180001220 f   GuMetaData.obj
 0001:00000230       ??__EminV3Error@vecMathTests@aos@physx@@YAXXZ 0000000180001230 f   GuMetaData.obj
 0001:00000240       ??__EminV4Error@vecMathTests@aos@physx@@YAXXZ 0000000180001240 f   GuMetaData.obj
 0001:00000250       ??__EmaxFError@vecMathTests@aos@physx@@YAXXZ 0000000180001250 f   GuMTD.obj
 0001:00000260       ??__EmaxV3Error@vecMathTests@aos@physx@@YAXXZ 0000000180001260 f   GuMTD.obj
 0001:00000270       ??__EmaxV4Error@vecMathTests@aos@physx@@YAXXZ 0000000180001270 f   GuMTD.obj
 0001:00000280       ??__EminFError@vecMathTests@aos@physx@@YAXXZ 0000000180001280 f   GuMTD.obj
 0001:00000290       ??__EminV3Error@vecMathTests@aos@physx@@YAXXZ 0000000180001290 f   GuMTD.obj
 0001:000002a0       ??__EminV4Error@vecMathTests@aos@physx@@YAXXZ 00000001800012a0 f   GuMTD.obj
 0001:000002b0       ??__EmaxFError@vecMathTests@aos@physx@@YAXXZ 00000001800012b0 f   GuOverlapTests.obj
 0001:000002c0       ??__EmaxV3Error@vecMathTests@aos@physx@@YAXXZ 00000001800012c0 f   GuOverlapTests.obj
 0001:000002d0       ??__EmaxV4Error@vecMathTests@aos@physx@@YAXXZ 00000001800012d0 f   GuOverlapTests.obj
 0001:000002e0       ??__EminFError@vecMathTests@aos@physx@@YAXXZ 00000001800012e0 f   GuOverlapTests.obj
 0001:000002f0       ??__EminV3Error@vecMathTests@aos@physx@@YAXXZ 00000001800012f0 f   GuOverlapTests.obj
 0001:00000300       ??__EminV4Error@vecMathTests@aos@physx@@YAXXZ 0000000180001300 f   GuOverlapTests.obj
 0001:00000310       ??__EmaxFError@vecMathTests@aos@physx@@YAXXZ 0000000180001310 f   GuRaycastTests.obj
 0001:00000320       ??__EmaxV3Error@vecMathTests@aos@physx@@YAXXZ 0000000180001320 f   GuRaycastTests.obj
 0001:00000330       ??__EmaxV4Error@vecMathTests@aos@physx@@YAXXZ 0000000180001330 f   GuRaycastTests.obj
 0001:00000340       ??__EminFError@vecMathTests@aos@physx@@YAXXZ 0000000180001340 f   GuRaycastTests.obj
 0001:00000350       ??__EminV3Error@vecMathTests@aos@physx@@YAXXZ 0000000180001350 f   GuRaycastTests.obj
 0001:00000360       ??__EminV4Error@vecMathTests@aos@physx@@YAXXZ 0000000180001360 f   GuRaycastTests.obj
 0001:00000370       ??__EmaxFError@vecMathTests@aos@physx@@YAXXZ 0000000180001370 f   GuSweepMTD.obj
 0001:00000380       ??__EmaxV3Error@vecMathTests@aos@physx@@YAXXZ 0000000180001380 f   GuSweepMTD.obj
 0001:00000390       ??__EmaxV4Error@vecMathTests@aos@physx@@YAXXZ 0000000180001390 f   GuSweepMTD.obj
 0001:000003a0       ??__EminFError@vecMathTests@aos@physx@@YAXXZ 00000001800013a0 f   GuSweepMTD.obj
 0001:000003b0       ??__EminV3Error@vecMathTests@aos@physx@@YAXXZ 00000001800013b0 f   GuSweepMTD.obj
 0001:000003c0       ??__EminV4Error@vecMathTests@aos@physx@@YAXXZ 00000001800013c0 f   GuSweepMTD.obj
 0001:000003d0       ??__EmaxFError@vecMathTests@aos@physx@@YAXXZ 00000001800013d0 f   GuSweepSharedTests.obj
 0001:000003e0       ??__EmaxV3Error@vecMathTests@aos@physx@@YAXXZ 00000001800013e0 f   GuSweepSharedTests.obj
 0001:000003f0       ??__EmaxV4Error@vecMathTests@aos@physx@@YAXXZ 00000001800013f0 f   GuSweepSharedTests.obj
 0001:00000400       ??__EminFError@vecMathTests@aos@physx@@YAXXZ 0000000180001400 f   GuSweepSharedTests.obj
 0001:00000410       ??__EminV3Error@vecMathTests@aos@physx@@YAXXZ 0000000180001410 f   GuSweepSharedTests.obj
 0001:00000420       ??__EminV4Error@vecMathTests@aos@physx@@YAXXZ 0000000180001420 f   GuSweepSharedTests.obj
 0001:00000430       ??__EmaxFError@vecMathTests@aos@physx@@YAXXZ 0000000180001430 f   GuSweepTests.obj
 0001:00000440       ??__EmaxV3Error@vecMathTests@aos@physx@@YAXXZ 0000000180001440 f   GuSweepTests.obj
 0001:00000450       ??__EmaxV4Error@vecMathTests@aos@physx@@YAXXZ 0000000180001450 f   GuSweepTests.obj
 0001:00000460       ??__EminFError@vecMathTests@aos@physx@@YAXXZ 0000000180001460 f   GuSweepTests.obj
 0001:00000470       ??__EminV3Error@vecMathTests@aos@physx@@YAXXZ 0000000180001470 f   GuSweepTests.obj
 0001:00000480       ??__EminV4Error@vecMathTests@aos@physx@@YAXXZ 0000000180001480 f   GuSweepTests.obj
 0001:00000490       ??__EmaxFError@vecMathTests@aos@physx@@YAXXZ 0000000180001490 f   GuSDF.obj
 0001:000004a0       ??__EmaxV3Error@vecMathTests@aos@physx@@YAXXZ 00000001800014a0 f   GuSDF.obj
 0001:000004b0       ??__EmaxV4Error@vecMathTests@aos@physx@@YAXXZ 00000001800014b0 f   GuSDF.obj
 0001:000004c0       ??__EminFError@vecMathTests@aos@physx@@YAXXZ 00000001800014c0 f   GuSDF.obj
 0001:000004d0       ??__EminV3Error@vecMathTests@aos@physx@@YAXXZ 00000001800014d0 f   GuSDF.obj
 0001:000004e0       ??__EminV4Error@vecMathTests@aos@physx@@YAXXZ 00000001800014e0 f   GuSDF.obj
 0001:000004f0       ??__EmaxFError@vecMathTests@aos@physx@@YAXXZ 00000001800014f0 f   GuGjkQuery.obj
 0001:00000500       ??__EmaxV3Error@vecMathTests@aos@physx@@YAXXZ 0000000180001500 f   GuGjkQuery.obj
 0001:00000510       ??__EmaxV4Error@vecMathTests@aos@physx@@YAXXZ 0000000180001510 f   GuGjkQuery.obj
 0001:00000520       ??__EminFError@vecMathTests@aos@physx@@YAXXZ 0000000180001520 f   GuGjkQuery.obj
 0001:00000530       ??__EminV3Error@vecMathTests@aos@physx@@YAXXZ 0000000180001530 f   GuGjkQuery.obj
 0001:00000540       ??__EminV4Error@vecMathTests@aos@physx@@YAXXZ 0000000180001540 f   GuGjkQuery.obj
 0001:00000550       ??__EmaxFError@vecMathTests@aos@physx@@YAXXZ 0000000180001550 f   GuWindingNumber.obj
 0001:00000560       ??__EmaxV3Error@vecMathTests@aos@physx@@YAXXZ 0000000180001560 f   GuWindingNumber.obj
 0001:00000570       ??__EmaxV4Error@vecMathTests@aos@physx@@YAXXZ 0000000180001570 f   GuWindingNumber.obj
 0001:00000580       ??__EminFError@vecMathTests@aos@physx@@YAXXZ 0000000180001580 f   GuWindingNumber.obj
 0001:00000590       ??__EminV3Error@vecMathTests@aos@physx@@YAXXZ 0000000180001590 f   GuWindingNumber.obj
 0001:000005a0       ??__EminV4Error@vecMathTests@aos@physx@@YAXXZ 00000001800015a0 f   GuWindingNumber.obj
 0001:000005b0       ??__EmaxFError@vecMathTests@aos@physx@@YAXXZ 00000001800015b0 f   GuCCDSweepConvexMesh.obj
 0001:000005c0       ??__EmaxV3Error@vecMathTests@aos@physx@@YAXXZ 00000001800015c0 f   GuCCDSweepConvexMesh.obj
 0001:000005d0       ??__EmaxV4Error@vecMathTests@aos@physx@@YAXXZ 00000001800015d0 f   GuCCDSweepConvexMesh.obj
 0001:000005e0       ??__EminFError@vecMathTests@aos@physx@@YAXXZ 00000001800015e0 f   GuCCDSweepConvexMesh.obj
 0001:000005f0       ??__EminV3Error@vecMathTests@aos@physx@@YAXXZ 00000001800015f0 f   GuCCDSweepConvexMesh.obj
 0001:00000600       ??__EminV4Error@vecMathTests@aos@physx@@YAXXZ 0000000180001600 f   GuCCDSweepConvexMesh.obj
 0001:00000610       ??__EmaxFError@vecMathTests@aos@physx@@YAXXZ 0000000180001610 f   GuCCDSweepPrimitives.obj
 0001:00000620       ??__EmaxV3Error@vecMathTests@aos@physx@@YAXXZ 0000000180001620 f   GuCCDSweepPrimitives.obj
 0001:00000630       ??__EmaxV4Error@vecMathTests@aos@physx@@YAXXZ 0000000180001630 f   GuCCDSweepPrimitives.obj
 0001:00000640       ??__EminFError@vecMathTests@aos@physx@@YAXXZ 0000000180001640 f   GuCCDSweepPrimitives.obj
 0001:00000650       ??__EminV3Error@vecMathTests@aos@physx@@YAXXZ 0000000180001650 f   GuCCDSweepPrimitives.obj
 0001:00000660       ??__EminV4Error@vecMathTests@aos@physx@@YAXXZ 0000000180001660 f   GuCCDSweepPrimitives.obj
 0001:00000670       ??__EmaxFError@vecMathTests@aos@physx@@YAXXZ 0000000180001670 f   GuBarycentricCoordinates.obj
 0001:00000680       ??__EmaxV3Error@vecMathTests@aos@physx@@YAXXZ 0000000180001680 f   GuBarycentricCoordinates.obj
 0001:00000690       ??__EmaxV4Error@vecMathTests@aos@physx@@YAXXZ 0000000180001690 f   GuBarycentricCoordinates.obj
 0001:000006a0       ??__EminFError@vecMathTests@aos@physx@@YAXXZ 00000001800016a0 f   GuBarycentricCoordinates.obj
 0001:000006b0       ??__EminV3Error@vecMathTests@aos@physx@@YAXXZ 00000001800016b0 f   GuBarycentricCoordinates.obj
 0001:000006c0       ??__EminV4Error@vecMathTests@aos@physx@@YAXXZ 00000001800016c0 f   GuBarycentricCoordinates.obj
 0001:000006d0       ??__EmaxFError@vecMathTests@aos@physx@@YAXXZ 00000001800016d0 f   GuContactBoxBox.obj
 0001:000006e0       ??__EmaxV3Error@vecMathTests@aos@physx@@YAXXZ 00000001800016e0 f   GuContactBoxBox.obj
 0001:000006f0       ??__EmaxV4Error@vecMathTests@aos@physx@@YAXXZ 00000001800016f0 f   GuContactBoxBox.obj
 0001:00000700       ??__EminFError@vecMathTests@aos@physx@@YAXXZ 0000000180001700 f   GuContactBoxBox.obj
 0001:00000710       ??__EminV3Error@vecMathTests@aos@physx@@YAXXZ 0000000180001710 f   GuContactBoxBox.obj
 0001:00000720       ??__EminV4Error@vecMathTests@aos@physx@@YAXXZ 0000000180001720 f   GuContactBoxBox.obj
 0001:00000730       ??__EmaxFError@vecMathTests@aos@physx@@YAXXZ 0000000180001730 f   GuContactCapsuleBox.obj
 0001:00000740       ??__EmaxV3Error@vecMathTests@aos@physx@@YAXXZ 0000000180001740 f   GuContactCapsuleBox.obj
 0001:00000750       ??__EmaxV4Error@vecMathTests@aos@physx@@YAXXZ 0000000180001750 f   GuContactCapsuleBox.obj
 0001:00000760       ??__EminFError@vecMathTests@aos@physx@@YAXXZ 0000000180001760 f   GuContactCapsuleBox.obj
 0001:00000770       ??__EminV3Error@vecMathTests@aos@physx@@YAXXZ 0000000180001770 f   GuContactCapsuleBox.obj
 0001:00000780       ??__EminV4Error@vecMathTests@aos@physx@@YAXXZ 0000000180001780 f   GuContactCapsuleBox.obj
 0001:00000790       ??__EmaxFError@vecMathTests@aos@physx@@YAXXZ 0000000180001790 f   GuContactCapsuleCapsule.obj
 0001:000007a0       ??__EmaxV3Error@vecMathTests@aos@physx@@YAXXZ 00000001800017a0 f   GuContactCapsuleCapsule.obj
 0001:000007b0       ??__EmaxV4Error@vecMathTests@aos@physx@@YAXXZ 00000001800017b0 f   GuContactCapsuleCapsule.obj
 0001:000007c0       ??__EminFError@vecMathTests@aos@physx@@YAXXZ 00000001800017c0 f   GuContactCapsuleCapsule.obj
 0001:000007d0       ??__EminV3Error@vecMathTests@aos@physx@@YAXXZ 00000001800017d0 f   GuContactCapsuleCapsule.obj
 0001:000007e0       ??__EminV4Error@vecMathTests@aos@physx@@YAXXZ 00000001800017e0 f   GuContactCapsuleCapsule.obj
 0001:000007f0       ??__EmaxFError@vecMathTests@aos@physx@@YAXXZ 00000001800017f0 f   GuContactCapsuleConvex.obj
 0001:00000800       ??__EmaxV3Error@vecMathTests@aos@physx@@YAXXZ 0000000180001800 f   GuContactCapsuleConvex.obj
 0001:00000810       ??__EmaxV4Error@vecMathTests@aos@physx@@YAXXZ 0000000180001810 f   GuContactCapsuleConvex.obj
 0001:00000820       ??__EminFError@vecMathTests@aos@physx@@YAXXZ 0000000180001820 f   GuContactCapsuleConvex.obj
 0001:00000830       ??__EminV3Error@vecMathTests@aos@physx@@YAXXZ 0000000180001830 f   GuContactCapsuleConvex.obj
 0001:00000840       ??__EminV4Error@vecMathTests@aos@physx@@YAXXZ 0000000180001840 f   GuContactCapsuleConvex.obj
 0001:00000850       ??__EmaxFError@vecMathTests@aos@physx@@YAXXZ 0000000180001850 f   GuContactCapsuleMesh.obj
 0001:00000860       ??__EmaxV3Error@vecMathTests@aos@physx@@YAXXZ 0000000180001860 f   GuContactCapsuleMesh.obj
 0001:00000870       ??__EmaxV4Error@vecMathTests@aos@physx@@YAXXZ 0000000180001870 f   GuContactCapsuleMesh.obj
 0001:00000880       ??__EminFError@vecMathTests@aos@physx@@YAXXZ 0000000180001880 f   GuContactCapsuleMesh.obj
 0001:00000890       ??__EminV3Error@vecMathTests@aos@physx@@YAXXZ 0000000180001890 f   GuContactCapsuleMesh.obj
 0001:000008a0       ??__EminV4Error@vecMathTests@aos@physx@@YAXXZ 00000001800018a0 f   GuContactCapsuleMesh.obj
 0001:000008b0       ??__EmaxFError@vecMathTests@aos@physx@@YAXXZ 00000001800018b0 f   GuContactConvexConvex.obj
 0001:000008c0       ??__EmaxV3Error@vecMathTests@aos@physx@@YAXXZ 00000001800018c0 f   GuContactConvexConvex.obj
 0001:000008d0       ??__EmaxV4Error@vecMathTests@aos@physx@@YAXXZ 00000001800018d0 f   GuContactConvexConvex.obj
 0001:000008e0       ??__EminFError@vecMathTests@aos@physx@@YAXXZ 00000001800018e0 f   GuContactConvexConvex.obj
 0001:000008f0       ??__EminV3Error@vecMathTests@aos@physx@@YAXXZ 00000001800018f0 f   GuContactConvexConvex.obj
 0001:00000900       ??__EminV4Error@vecMathTests@aos@physx@@YAXXZ 0000000180001900 f   GuContactConvexConvex.obj
 0001:00000910       ??__EmaxFError@vecMathTests@aos@physx@@YAXXZ 0000000180001910 f   GuContactConvexMesh.obj
 0001:00000920       ??__EmaxV3Error@vecMathTests@aos@physx@@YAXXZ 0000000180001920 f   GuContactConvexMesh.obj
 0001:00000930       ??__EmaxV4Error@vecMathTests@aos@physx@@YAXXZ 0000000180001930 f   GuContactConvexMesh.obj
 0001:00000940       ??__EminFError@vecMathTests@aos@physx@@YAXXZ 0000000180001940 f   GuContactConvexMesh.obj
 0001:00000950       ??__EminV3Error@vecMathTests@aos@physx@@YAXXZ 0000000180001950 f   GuContactConvexMesh.obj
 0001:00000960       ??__EminV4Error@vecMathTests@aos@physx@@YAXXZ 0000000180001960 f   GuContactConvexMesh.obj
 0001:00000970       ??__EmaxFError@vecMathTests@aos@physx@@YAXXZ 0000000180001970 f   GuContactPlaneBox.obj
 0001:00000980       ??__EmaxV3Error@vecMathTests@aos@physx@@YAXXZ 0000000180001980 f   GuContactPlaneBox.obj
 0001:00000990       ??__EmaxV4Error@vecMathTests@aos@physx@@YAXXZ 0000000180001990 f   GuContactPlaneBox.obj
 0001:000009a0       ??__EminFError@vecMathTests@aos@physx@@YAXXZ 00000001800019a0 f   GuContactPlaneBox.obj
 0001:000009b0       ??__EminV3Error@vecMathTests@aos@physx@@YAXXZ 00000001800019b0 f   GuContactPlaneBox.obj
 0001:000009c0       ??__EminV4Error@vecMathTests@aos@physx@@YAXXZ 00000001800019c0 f   GuContactPlaneBox.obj
 0001:000009d0       ??__EmaxFError@vecMathTests@aos@physx@@YAXXZ 00000001800019d0 f   GuContactPlaneConvex.obj
 0001:000009e0       ??__EmaxV3Error@vecMathTests@aos@physx@@YAXXZ 00000001800019e0 f   GuContactPlaneConvex.obj
 0001:000009f0       ??__EmaxV4Error@vecMathTests@aos@physx@@YAXXZ 00000001800019f0 f   GuContactPlaneConvex.obj
 0001:00000a00       ??__EminFError@vecMathTests@aos@physx@@YAXXZ 0000000180001a00 f   GuContactPlaneConvex.obj
 0001:00000a10       ??__EminV3Error@vecMathTests@aos@physx@@YAXXZ 0000000180001a10 f   GuContactPlaneConvex.obj
 0001:00000a20       ??__EminV4Error@vecMathTests@aos@physx@@YAXXZ 0000000180001a20 f   GuContactPlaneConvex.obj
 0001:00000a30       ??__EmaxFError@vecMathTests@aos@physx@@YAXXZ 0000000180001a30 f   GuContactPolygonPolygon.obj
 0001:00000a40       ??__EmaxV3Error@vecMathTests@aos@physx@@YAXXZ 0000000180001a40 f   GuContactPolygonPolygon.obj
 0001:00000a50       ??__EmaxV4Error@vecMathTests@aos@physx@@YAXXZ 0000000180001a50 f   GuContactPolygonPolygon.obj
 0001:00000a60       ??__EminFError@vecMathTests@aos@physx@@YAXXZ 0000000180001a60 f   GuContactPolygonPolygon.obj
 0001:00000a70       ??__EminV3Error@vecMathTests@aos@physx@@YAXXZ 0000000180001a70 f   GuContactPolygonPolygon.obj
 0001:00000a80       ??__EminV4Error@vecMathTests@aos@physx@@YAXXZ 0000000180001a80 f   GuContactPolygonPolygon.obj
 0001:00000a90       ??__EmaxFError@vecMathTests@aos@physx@@YAXXZ 0000000180001a90 f   GuContactSphereMesh.obj
 0001:00000aa0       ??__EmaxV3Error@vecMathTests@aos@physx@@YAXXZ 0000000180001aa0 f   GuContactSphereMesh.obj
 0001:00000ab0       ??__EmaxV4Error@vecMathTests@aos@physx@@YAXXZ 0000000180001ab0 f   GuContactSphereMesh.obj
 0001:00000ac0       ??__EminFError@vecMathTests@aos@physx@@YAXXZ 0000000180001ac0 f   GuContactSphereMesh.obj
 0001:00000ad0       ??__EminV3Error@vecMathTests@aos@physx@@YAXXZ 0000000180001ad0 f   GuContactSphereMesh.obj
 0001:00000ae0       ??__EminV4Error@vecMathTests@aos@physx@@YAXXZ 0000000180001ae0 f   GuContactSphereMesh.obj
 0001:00000af0       ??__EmaxFError@vecMathTests@aos@physx@@YAXXZ 0000000180001af0 f   GuConvexHelper.obj
 0001:00000b00       ??__EmaxV3Error@vecMathTests@aos@physx@@YAXXZ 0000000180001b00 f   GuConvexHelper.obj
 0001:00000b10       ??__EmaxV4Error@vecMathTests@aos@physx@@YAXXZ 0000000180001b10 f   GuConvexHelper.obj
 0001:00000b20       ??__EminFError@vecMathTests@aos@physx@@YAXXZ 0000000180001b20 f   GuConvexHelper.obj
 0001:00000b30       ??__EminV3Error@vecMathTests@aos@physx@@YAXXZ 0000000180001b30 f   GuConvexHelper.obj
 0001:00000b40       ??__EminV4Error@vecMathTests@aos@physx@@YAXXZ 0000000180001b40 f   GuConvexHelper.obj
 0001:00000b50       ??__EboxVertexTable@physx@@YAXXZ 0000000180001b50 f   GuConvexSupportTable.obj
 0001:00000bd0       ??__EmaxFError@vecMathTests@aos@physx@@YAXXZ 0000000180001bd0 f   GuConvexSupportTable.obj
 0001:00000be0       ??__EmaxV3Error@vecMathTests@aos@physx@@YAXXZ 0000000180001be0 f   GuConvexSupportTable.obj
 0001:00000bf0       ??__EmaxV4Error@vecMathTests@aos@physx@@YAXXZ 0000000180001bf0 f   GuConvexSupportTable.obj
 0001:00000c00       ??__EminFError@vecMathTests@aos@physx@@YAXXZ 0000000180001c00 f   GuConvexSupportTable.obj
 0001:00000c10       ??__EminV3Error@vecMathTests@aos@physx@@YAXXZ 0000000180001c10 f   GuConvexSupportTable.obj
 0001:00000c20       ??__EminV4Error@vecMathTests@aos@physx@@YAXXZ 0000000180001c20 f   GuConvexSupportTable.obj
 0001:00000c30       ??__EmaxFError@vecMathTests@aos@physx@@YAXXZ 0000000180001c30 f   GuConvexUtilsInternal.obj
 0001:00000c40       ??__EmaxV3Error@vecMathTests@aos@physx@@YAXXZ 0000000180001c40 f   GuConvexUtilsInternal.obj
 0001:00000c50       ??__EmaxV4Error@vecMathTests@aos@physx@@YAXXZ 0000000180001c50 f   GuConvexUtilsInternal.obj
 0001:00000c60       ??__EminFError@vecMathTests@aos@physx@@YAXXZ 0000000180001c60 f   GuConvexUtilsInternal.obj
 0001:00000c70       ??__EminV3Error@vecMathTests@aos@physx@@YAXXZ 0000000180001c70 f   GuConvexUtilsInternal.obj
 0001:00000c80       ??__EminV4Error@vecMathTests@aos@physx@@YAXXZ 0000000180001c80 f   GuConvexUtilsInternal.obj
 0001:00000c90       ??__EmaxFError@vecMathTests@aos@physx@@YAXXZ 0000000180001c90 f   GuShapeConvex.obj
 0001:00000ca0       ??__EmaxV3Error@vecMathTests@aos@physx@@YAXXZ 0000000180001ca0 f   GuShapeConvex.obj
 0001:00000cb0       ??__EmaxV4Error@vecMathTests@aos@physx@@YAXXZ 0000000180001cb0 f   GuShapeConvex.obj
 0001:00000cc0       ??__EminFError@vecMathTests@aos@physx@@YAXXZ 0000000180001cc0 f   GuShapeConvex.obj
 0001:00000cd0       ??__EminV3Error@vecMathTests@aos@physx@@YAXXZ 0000000180001cd0 f   GuShapeConvex.obj
 0001:00000ce0       ??__EminV4Error@vecMathTests@aos@physx@@YAXXZ 0000000180001ce0 f   GuShapeConvex.obj
 0001:00000cf0       ??__EmaxFError@vecMathTests@aos@physx@@YAXXZ 0000000180001cf0 f   GuDistancePointTriangle.obj
 0001:00000d00       ??__EmaxV3Error@vecMathTests@aos@physx@@YAXXZ 0000000180001d00 f   GuDistancePointTriangle.obj
 0001:00000d10       ??__EmaxV4Error@vecMathTests@aos@physx@@YAXXZ 0000000180001d10 f   GuDistancePointTriangle.obj
 0001:00000d20       ??__EminFError@vecMathTests@aos@physx@@YAXXZ 0000000180001d20 f   GuDistancePointTriangle.obj
 0001:00000d30       ??__EminV3Error@vecMathTests@aos@physx@@YAXXZ 0000000180001d30 f   GuDistancePointTriangle.obj
 0001:00000d40       ??__EminV4Error@vecMathTests@aos@physx@@YAXXZ 0000000180001d40 f   GuDistancePointTriangle.obj
 0001:00000d50       ??__EmaxFError@vecMathTests@aos@physx@@YAXXZ 0000000180001d50 f   GuDistanceSegmentBox.obj
 0001:00000d60       ??__EmaxV3Error@vecMathTests@aos@physx@@YAXXZ 0000000180001d60 f   GuDistanceSegmentBox.obj
 0001:00000d70       ??__EmaxV4Error@vecMathTests@aos@physx@@YAXXZ 0000000180001d70 f   GuDistanceSegmentBox.obj
 0001:00000d80       ??__EminFError@vecMathTests@aos@physx@@YAXXZ 0000000180001d80 f   GuDistanceSegmentBox.obj
 0001:00000d90       ??__EminV3Error@vecMathTests@aos@physx@@YAXXZ 0000000180001d90 f   GuDistanceSegmentBox.obj
 0001:00000da0       ??__EminV4Error@vecMathTests@aos@physx@@YAXXZ 0000000180001da0 f   GuDistanceSegmentBox.obj
 0001:00000db0       ??__EmaxFError@vecMathTests@aos@physx@@YAXXZ 0000000180001db0 f   GuDistanceSegmentSegment.obj
 0001:00000dc0       ??__EmaxV3Error@vecMathTests@aos@physx@@YAXXZ 0000000180001dc0 f   GuDistanceSegmentSegment.obj
 0001:00000dd0       ??__EmaxV4Error@vecMathTests@aos@physx@@YAXXZ 0000000180001dd0 f   GuDistanceSegmentSegment.obj
 0001:00000de0       ??__EminFError@vecMathTests@aos@physx@@YAXXZ 0000000180001de0 f   GuDistanceSegmentSegment.obj
 0001:00000df0       ??__EminV3Error@vecMathTests@aos@physx@@YAXXZ 0000000180001df0 f   GuDistanceSegmentSegment.obj
 0001:00000e00       ??__EminV4Error@vecMathTests@aos@physx@@YAXXZ 0000000180001e00 f   GuDistanceSegmentSegment.obj
 0001:00000e10       ??__EmaxFError@vecMathTests@aos@physx@@YAXXZ 0000000180001e10 f   GuDistanceSegmentTriangle.obj
 0001:00000e20       ??__EmaxV3Error@vecMathTests@aos@physx@@YAXXZ 0000000180001e20 f   GuDistanceSegmentTriangle.obj
 0001:00000e30       ??__EmaxV4Error@vecMathTests@aos@physx@@YAXXZ 0000000180001e30 f   GuDistanceSegmentTriangle.obj
 0001:00000e40       ??__EminFError@vecMathTests@aos@physx@@YAXXZ 0000000180001e40 f   GuDistanceSegmentTriangle.obj
 0001:00000e50       ??__EminV3Error@vecMathTests@aos@physx@@YAXXZ 0000000180001e50 f   GuDistanceSegmentTriangle.obj
 0001:00000e60       ??__EminV4Error@vecMathTests@aos@physx@@YAXXZ 0000000180001e60 f   GuDistanceSegmentTriangle.obj
 0001:00000e70       ??__EmaxFError@vecMathTests@aos@physx@@YAXXZ 0000000180001e70 f   GuDistanceTriangleTriangle.obj
 0001:00000e80       ??__EmaxV3Error@vecMathTests@aos@physx@@YAXXZ 0000000180001e80 f   GuDistanceTriangleTriangle.obj
 0001:00000e90       ??__EmaxV4Error@vecMathTests@aos@physx@@YAXXZ 0000000180001e90 f   GuDistanceTriangleTriangle.obj
 0001:00000ea0       ??__EminFError@vecMathTests@aos@physx@@YAXXZ 0000000180001ea0 f   GuDistanceTriangleTriangle.obj
 0001:00000eb0       ??__EminV3Error@vecMathTests@aos@physx@@YAXXZ 0000000180001eb0 f   GuDistanceTriangleTriangle.obj
 0001:00000ec0       ??__EminV4Error@vecMathTests@aos@physx@@YAXXZ 0000000180001ec0 f   GuDistanceTriangleTriangle.obj
 0001:00000ed0       ??__EmaxFError@vecMathTests@aos@physx@@YAXXZ 0000000180001ed0 f   GuDistancePointTetrahedron.obj
 0001:00000ee0       ??__EmaxV3Error@vecMathTests@aos@physx@@YAXXZ 0000000180001ee0 f   GuDistancePointTetrahedron.obj
 0001:00000ef0       ??__EmaxV4Error@vecMathTests@aos@physx@@YAXXZ 0000000180001ef0 f   GuDistancePointTetrahedron.obj
 0001:00000f00       ??__EminFError@vecMathTests@aos@physx@@YAXXZ 0000000180001f00 f   GuDistancePointTetrahedron.obj
 0001:00000f10       ??__EminV3Error@vecMathTests@aos@physx@@YAXXZ 0000000180001f10 f   GuDistancePointTetrahedron.obj
 0001:00000f20       ??__EminV4Error@vecMathTests@aos@physx@@YAXXZ 0000000180001f20 f   GuDistancePointTetrahedron.obj
 0001:00000f30       ??__EmaxFError@vecMathTests@aos@physx@@YAXXZ 0000000180001f30 f   GuEPA.obj
 0001:00000f40       ??__EmaxV3Error@vecMathTests@aos@physx@@YAXXZ 0000000180001f40 f   GuEPA.obj
 0001:00000f50       ??__EmaxV4Error@vecMathTests@aos@physx@@YAXXZ 0000000180001f50 f   GuEPA.obj
 0001:00000f60       ??__EminFError@vecMathTests@aos@physx@@YAXXZ 0000000180001f60 f   GuEPA.obj
 0001:00000f70       ??__EminV3Error@vecMathTests@aos@physx@@YAXXZ 0000000180001f70 f   GuEPA.obj
 0001:00000f80       ??__EminV4Error@vecMathTests@aos@physx@@YAXXZ 0000000180001f80 f   GuEPA.obj
 0001:00000f90       ??__EmaxFError@vecMathTests@aos@physx@@YAXXZ 0000000180001f90 f   GuGJKSimplex.obj
 0001:00000fa0       ??__EmaxV3Error@vecMathTests@aos@physx@@YAXXZ 0000000180001fa0 f   GuGJKSimplex.obj
 0001:00000fb0       ??__EmaxV4Error@vecMathTests@aos@physx@@YAXXZ 0000000180001fb0 f   GuGJKSimplex.obj
 0001:00000fc0       ??__EminFError@vecMathTests@aos@physx@@YAXXZ 0000000180001fc0 f   GuGJKSimplex.obj
 0001:00000fd0       ??__EminV3Error@vecMathTests@aos@physx@@YAXXZ 0000000180001fd0 f   GuGJKSimplex.obj
 0001:00000fe0       ??__EminV4Error@vecMathTests@aos@physx@@YAXXZ 0000000180001fe0 f   GuGJKSimplex.obj
 0001:00000ff0       ??__EmaxFError@vecMathTests@aos@physx@@YAXXZ 0000000180001ff0 f   GuGJKTest.obj
 0001:00001000       ??__EmaxV3Error@vecMathTests@aos@physx@@YAXXZ 0000000180002000 f   GuGJKTest.obj
 0001:00001010       ??__EmaxV4Error@vecMathTests@aos@physx@@YAXXZ 0000000180002010 f   GuGJKTest.obj
 0001:00001020       ??__EminFError@vecMathTests@aos@physx@@YAXXZ 0000000180002020 f   GuGJKTest.obj
 0001:00001030       ??__EminV3Error@vecMathTests@aos@physx@@YAXXZ 0000000180002030 f   GuGJKTest.obj
 0001:00001040       ??__EminV4Error@vecMathTests@aos@physx@@YAXXZ 0000000180002040 f   GuGJKTest.obj
 0001:00001050       ??__EmaxFError@vecMathTests@aos@physx@@YAXXZ 0000000180002050 f   GuHeightFieldUtil.obj
 0001:00001060       ??__EmaxV3Error@vecMathTests@aos@physx@@YAXXZ 0000000180002060 f   GuHeightFieldUtil.obj
 0001:00001070       ??__EmaxV4Error@vecMathTests@aos@physx@@YAXXZ 0000000180002070 f   GuHeightFieldUtil.obj
 0001:00001080       ??__EminFError@vecMathTests@aos@physx@@YAXXZ 0000000180002080 f   GuHeightFieldUtil.obj
 0001:00001090       ??__EminV3Error@vecMathTests@aos@physx@@YAXXZ 0000000180002090 f   GuHeightFieldUtil.obj
 0001:000010a0       ??__EminV4Error@vecMathTests@aos@physx@@YAXXZ 00000001800020a0 f   GuHeightFieldUtil.obj
 0001:000010b0       ??__EmaxFError@vecMathTests@aos@physx@@YAXXZ 00000001800020b0 f   GuOverlapTestsHF.obj
 0001:000010c0       ??__EmaxV3Error@vecMathTests@aos@physx@@YAXXZ 00000001800020c0 f   GuOverlapTestsHF.obj
 0001:000010d0       ??__EmaxV4Error@vecMathTests@aos@physx@@YAXXZ 00000001800020d0 f   GuOverlapTestsHF.obj
 0001:000010e0       ??__EminFError@vecMathTests@aos@physx@@YAXXZ 00000001800020e0 f   GuOverlapTestsHF.obj
 0001:000010f0       ??__EminV3Error@vecMathTests@aos@physx@@YAXXZ 00000001800020f0 f   GuOverlapTestsHF.obj
 0001:00001100       ??__EminV4Error@vecMathTests@aos@physx@@YAXXZ 0000000180002100 f   GuOverlapTestsHF.obj
 0001:00001110       ??__EmaxFError@vecMathTests@aos@physx@@YAXXZ 0000000180002110 f   GuSweepsHF.obj
 0001:00001120       ??__EmaxV3Error@vecMathTests@aos@physx@@YAXXZ 0000000180002120 f   GuSweepsHF.obj
 0001:00001130       ??__EmaxV4Error@vecMathTests@aos@physx@@YAXXZ 0000000180002130 f   GuSweepsHF.obj
 0001:00001140       ??__EminFError@vecMathTests@aos@physx@@YAXXZ 0000000180002140 f   GuSweepsHF.obj
 0001:00001150       ??__EminV3Error@vecMathTests@aos@physx@@YAXXZ 0000000180002150 f   GuSweepsHF.obj
 0001:00001160       ??__EminV4Error@vecMathTests@aos@physx@@YAXXZ 0000000180002160 f   GuSweepsHF.obj
 0001:00001170       ??__EmaxFError@vecMathTests@aos@physx@@YAXXZ 0000000180002170 f   GuIntersectionRayBox.obj
 0001:00001180       ??__EmaxV3Error@vecMathTests@aos@physx@@YAXXZ 0000000180002180 f   GuIntersectionRayBox.obj
 0001:00001190       ??__EmaxV4Error@vecMathTests@aos@physx@@YAXXZ 0000000180002190 f   GuIntersectionRayBox.obj
 0001:000011a0       ??__EminFError@vecMathTests@aos@physx@@YAXXZ 00000001800021a0 f   GuIntersectionRayBox.obj
 0001:000011b0       ??__EminV3Error@vecMathTests@aos@physx@@YAXXZ 00000001800021b0 f   GuIntersectionRayBox.obj
 0001:000011c0       ??__EminV4Error@vecMathTests@aos@physx@@YAXXZ 00000001800021c0 f   GuIntersectionRayBox.obj
 0001:000011d0       ??__EmaxFError@vecMathTests@aos@physx@@YAXXZ 00000001800021d0 f   GuIntersectionTriangleBox.obj
 0001:000011e0       ??__EmaxV3Error@vecMathTests@aos@physx@@YAXXZ 00000001800021e0 f   GuIntersectionTriangleBox.obj
 0001:000011f0       ??__EmaxV4Error@vecMathTests@aos@physx@@YAXXZ 00000001800021f0 f   GuIntersectionTriangleBox.obj
 0001:00001200       ??__EminFError@vecMathTests@aos@physx@@YAXXZ 0000000180002200 f   GuIntersectionTriangleBox.obj
 0001:00001210       ??__EminV3Error@vecMathTests@aos@physx@@YAXXZ 0000000180002210 f   GuIntersectionTriangleBox.obj
 0001:00001220       ??__EminV4Error@vecMathTests@aos@physx@@YAXXZ 0000000180002220 f   GuIntersectionTriangleBox.obj
 0001:00001230       ??__EsignV@@YAXXZ          0000000180002230 f   GuIntersectionTriangleBox.obj
 0001:00001270       ??__EmaxFError@vecMathTests@aos@physx@@YAXXZ 0000000180002270 f   GuBV4.obj
 0001:00001280       ??__EmaxV3Error@vecMathTests@aos@physx@@YAXXZ 0000000180002280 f   GuBV4.obj
 0001:00001290       ??__EmaxV4Error@vecMathTests@aos@physx@@YAXXZ 0000000180002290 f   GuBV4.obj
 0001:000012a0       ??__EminFError@vecMathTests@aos@physx@@YAXXZ 00000001800022a0 f   GuBV4.obj
 0001:000012b0       ??__EminV3Error@vecMathTests@aos@physx@@YAXXZ 00000001800022b0 f   GuBV4.obj
 0001:000012c0       ??__EminV4Error@vecMathTests@aos@physx@@YAXXZ 00000001800022c0 f   GuBV4.obj
 0001:000012d0       ??__EmaxFError@vecMathTests@aos@physx@@YAXXZ 00000001800022d0 f   GuBV4Build.obj
 0001:000012e0       ??__EmaxV3Error@vecMathTests@aos@physx@@YAXXZ 00000001800022e0 f   GuBV4Build.obj
 0001:000012f0       ??__EmaxV4Error@vecMathTests@aos@physx@@YAXXZ 00000001800022f0 f   GuBV4Build.obj
 0001:00001300       ??__EminFError@vecMathTests@aos@physx@@YAXXZ 0000000180002300 f   GuBV4Build.obj
 0001:00001310       ??__EminV3Error@vecMathTests@aos@physx@@YAXXZ 0000000180002310 f   GuBV4Build.obj
 0001:00001320       ??__EminV4Error@vecMathTests@aos@physx@@YAXXZ 0000000180002320 f   GuBV4Build.obj
 0001:00001330       ??__EepsFloat4@?A0x48c7087a@@YAXXZ 0000000180002330 f   GuBV4_AABBSweep.obj
 0001:00001340       ??__EepsInflateFloat4@?A0x48c7087a@@YAXXZ 0000000180002340 f   GuBV4_AABBSweep.obj
 0001:00001350       ??__EmaxFError@vecMathTests@aos@physx@@YAXXZ 0000000180002350 f   GuBV4_AABBSweep.obj
 0001:00001360       ??__EmaxV3Error@vecMathTests@aos@physx@@YAXXZ 0000000180002360 f   GuBV4_AABBSweep.obj
 0001:00001370       ??__EmaxV4Error@vecMathTests@aos@physx@@YAXXZ 0000000180002370 f   GuBV4_AABBSweep.obj
 0001:00001380       ??__EminFError@vecMathTests@aos@physx@@YAXXZ 0000000180002380 f   GuBV4_AABBSweep.obj
 0001:00001390       ??__EminV3Error@vecMathTests@aos@physx@@YAXXZ 0000000180002390 f   GuBV4_AABBSweep.obj
 0001:000013a0       ??__EminV4Error@vecMathTests@aos@physx@@YAXXZ 00000001800023a0 f   GuBV4_AABBSweep.obj
 0001:000013b0       ??__EsignMask@?A0x48c7087a@@YAXXZ 00000001800023b0 f   GuBV4_AABBSweep.obj
 0001:000013f0       ??__Etwos@?A0x48c7087a@@YAXXZ 00000001800023f0 f   GuBV4_AABBSweep.obj
 0001:00001400       ??__Ezeroes@?A0x48c7087a@@YAXXZ 0000000180002400 f   GuBV4_AABBSweep.obj
 0001:00001410       ??__EmaxFError@vecMathTests@aos@physx@@YAXXZ 0000000180002410 f   GuBV4_BoxOverlap.obj
 0001:00001420       ??__EmaxV3Error@vecMathTests@aos@physx@@YAXXZ 0000000180002420 f   GuBV4_BoxOverlap.obj
 0001:00001430       ??__EmaxV4Error@vecMathTests@aos@physx@@YAXXZ 0000000180002430 f   GuBV4_BoxOverlap.obj
 0001:00001440       ??__EminFError@vecMathTests@aos@physx@@YAXXZ 0000000180002440 f   GuBV4_BoxOverlap.obj
 0001:00001450       ??__EminV3Error@vecMathTests@aos@physx@@YAXXZ 0000000180002450 f   GuBV4_BoxOverlap.obj
 0001:00001460       ??__EminV4Error@vecMathTests@aos@physx@@YAXXZ 0000000180002460 f   GuBV4_BoxOverlap.obj
 0001:00001470       ??__EmaxFError@vecMathTests@aos@physx@@YAXXZ 0000000180002470 f   GuBV4_CapsuleSweep.obj
 0001:00001480       ??__EmaxV3Error@vecMathTests@aos@physx@@YAXXZ 0000000180002480 f   GuBV4_CapsuleSweep.obj
 0001:00001490       ??__EmaxV4Error@vecMathTests@aos@physx@@YAXXZ 0000000180002490 f   GuBV4_CapsuleSweep.obj
 0001:000014a0       ??__EminFError@vecMathTests@aos@physx@@YAXXZ 00000001800024a0 f   GuBV4_CapsuleSweep.obj
 0001:000014b0       ??__EminV3Error@vecMathTests@aos@physx@@YAXXZ 00000001800024b0 f   GuBV4_CapsuleSweep.obj
 0001:000014c0       ??__EminV4Error@vecMathTests@aos@physx@@YAXXZ 00000001800024c0 f   GuBV4_CapsuleSweep.obj
 0001:000014d0       ??__EepsFloat4@?A0xdf83ad97@@YAXXZ 00000001800024d0 f   GuBV4_CapsuleSweepAA.obj
 0001:000014e0       ??__EepsInflateFloat4@?A0xdf83ad97@@YAXXZ 00000001800024e0 f   GuBV4_CapsuleSweepAA.obj
 0001:000014f0       ??__EmaxFError@vecMathTests@aos@physx@@YAXXZ 00000001800024f0 f   GuBV4_CapsuleSweepAA.obj
 0001:00001500       ??__EmaxV3Error@vecMathTests@aos@physx@@YAXXZ 0000000180002500 f   GuBV4_CapsuleSweepAA.obj
 0001:00001510       ??__EmaxV4Error@vecMathTests@aos@physx@@YAXXZ 0000000180002510 f   GuBV4_CapsuleSweepAA.obj
 0001:00001520       ??__EminFError@vecMathTests@aos@physx@@YAXXZ 0000000180002520 f   GuBV4_CapsuleSweepAA.obj
 0001:00001530       ??__EminV3Error@vecMathTests@aos@physx@@YAXXZ 0000000180002530 f   GuBV4_CapsuleSweepAA.obj
 0001:00001540       ??__EminV4Error@vecMathTests@aos@physx@@YAXXZ 0000000180002540 f   GuBV4_CapsuleSweepAA.obj
 0001:00001550       ??__EsignMask@?A0xdf83ad97@@YAXXZ 0000000180002550 f   GuBV4_CapsuleSweepAA.obj
 0001:00001590       ??__Etwos@?A0xdf83ad97@@YAXXZ 0000000180002590 f   GuBV4_CapsuleSweepAA.obj
 0001:000015a0       ??__Ezeroes@?A0xdf83ad97@@YAXXZ 00000001800025a0 f   GuBV4_CapsuleSweepAA.obj
 0001:000015b0       ??__EmaxFError@vecMathTests@aos@physx@@YAXXZ 00000001800025b0 f   GuBV4_MeshMeshOverlap.obj
 0001:000015c0       ??__EmaxV3Error@vecMathTests@aos@physx@@YAXXZ 00000001800025c0 f   GuBV4_MeshMeshOverlap.obj
 0001:000015d0       ??__EmaxV4Error@vecMathTests@aos@physx@@YAXXZ 00000001800025d0 f   GuBV4_MeshMeshOverlap.obj
 0001:000015e0       ??__EminFError@vecMathTests@aos@physx@@YAXXZ 00000001800025e0 f   GuBV4_MeshMeshOverlap.obj
 0001:000015f0       ??__EminV3Error@vecMathTests@aos@physx@@YAXXZ 00000001800025f0 f   GuBV4_MeshMeshOverlap.obj
 0001:00001600       ??__EminV4Error@vecMathTests@aos@physx@@YAXXZ 0000000180002600 f   GuBV4_MeshMeshOverlap.obj
 0001:00001610       ??__EmaxFError@vecMathTests@aos@physx@@YAXXZ 0000000180002610 f   GuBV4_OBBSweep.obj
 0001:00001620       ??__EmaxV3Error@vecMathTests@aos@physx@@YAXXZ 0000000180002620 f   GuBV4_OBBSweep.obj
 0001:00001630       ??__EmaxV4Error@vecMathTests@aos@physx@@YAXXZ 0000000180002630 f   GuBV4_OBBSweep.obj
 0001:00001640       ??__EminFError@vecMathTests@aos@physx@@YAXXZ 0000000180002640 f   GuBV4_OBBSweep.obj
 0001:00001650       ??__EminV3Error@vecMathTests@aos@physx@@YAXXZ 0000000180002650 f   GuBV4_OBBSweep.obj
 0001:00001660       ??__EminV4Error@vecMathTests@aos@physx@@YAXXZ 0000000180002660 f   GuBV4_OBBSweep.obj
 0001:00001670       ??__EepsFloat4@?A0xdf3d0ba4@@YAXXZ 0000000180002670 f   GuBV4_Raycast.obj
 0001:00001680       ??__EepsInflateFloat4@?A0xdf3d0ba4@@YAXXZ 0000000180002680 f   GuBV4_Raycast.obj
 0001:00001690       ??__EmaxFError@vecMathTests@aos@physx@@YAXXZ 0000000180002690 f   GuBV4_Raycast.obj
 0001:000016a0       ??__EmaxV3Error@vecMathTests@aos@physx@@YAXXZ 00000001800026a0 f   GuBV4_Raycast.obj
 0001:000016b0       ??__EmaxV4Error@vecMathTests@aos@physx@@YAXXZ 00000001800026b0 f   GuBV4_Raycast.obj
 0001:000016c0       ??__EminFError@vecMathTests@aos@physx@@YAXXZ 00000001800026c0 f   GuBV4_Raycast.obj
 0001:000016d0       ??__EminV3Error@vecMathTests@aos@physx@@YAXXZ 00000001800026d0 f   GuBV4_Raycast.obj
 0001:000016e0       ??__EminV4Error@vecMathTests@aos@physx@@YAXXZ 00000001800026e0 f   GuBV4_Raycast.obj
 0001:000016f0       ??__EsignMask@?A0xdf3d0ba4@@YAXXZ 00000001800026f0 f   GuBV4_Raycast.obj
 0001:00001730       ??__Etwos@?A0xdf3d0ba4@@YAXXZ 0000000180002730 f   GuBV4_Raycast.obj
 0001:00001740       ??__Ezeroes@?A0xdf3d0ba4@@YAXXZ 0000000180002740 f   GuBV4_Raycast.obj
 0001:00001750       ??__EmaxFError@vecMathTests@aos@physx@@YAXXZ 0000000180002750 f   GuBV4_SphereOverlap.obj
 0001:00001760       ??__EmaxV3Error@vecMathTests@aos@physx@@YAXXZ 0000000180002760 f   GuBV4_SphereOverlap.obj
 0001:00001770       ??__EmaxV4Error@vecMathTests@aos@physx@@YAXXZ 0000000180002770 f   GuBV4_SphereOverlap.obj
 0001:00001780       ??__EminFError@vecMathTests@aos@physx@@YAXXZ 0000000180002780 f   GuBV4_SphereOverlap.obj
 0001:00001790       ??__EminV3Error@vecMathTests@aos@physx@@YAXXZ 0000000180002790 f   GuBV4_SphereOverlap.obj
 0001:000017a0       ??__EminV4Error@vecMathTests@aos@physx@@YAXXZ 00000001800027a0 f   GuBV4_SphereOverlap.obj
 0001:000017b0       ??__EepsFloat4@?A0x64bc8ea9@@YAXXZ 00000001800027b0 f   GuBV4_SphereSweep.obj
 0001:000017c0       ??__EepsInflateFloat4@?A0x64bc8ea9@@YAXXZ 00000001800027c0 f   GuBV4_SphereSweep.obj
 0001:000017d0       ??__EmaxFError@vecMathTests@aos@physx@@YAXXZ 00000001800027d0 f   GuBV4_SphereSweep.obj
 0001:000017e0       ??__EmaxV3Error@vecMathTests@aos@physx@@YAXXZ 00000001800027e0 f   GuBV4_SphereSweep.obj
 0001:000017f0       ??__EmaxV4Error@vecMathTests@aos@physx@@YAXXZ 00000001800027f0 f   GuBV4_SphereSweep.obj
 0001:00001800       ??__EminFError@vecMathTests@aos@physx@@YAXXZ 0000000180002800 f   GuBV4_SphereSweep.obj
 0001:00001810       ??__EminV3Error@vecMathTests@aos@physx@@YAXXZ 0000000180002810 f   GuBV4_SphereSweep.obj
 0001:00001820       ??__EminV4Error@vecMathTests@aos@physx@@YAXXZ 0000000180002820 f   GuBV4_SphereSweep.obj
 0001:00001830       ??__EsignMask@?A0x64bc8ea9@@YAXXZ 0000000180002830 f   GuBV4_SphereSweep.obj
 0001:00001870       ??__Etwos@?A0x64bc8ea9@@YAXXZ 0000000180002870 f   GuBV4_SphereSweep.obj
 0001:00001880       ??__Ezeroes@?A0x64bc8ea9@@YAXXZ 0000000180002880 f   GuBV4_SphereSweep.obj
 0001:00001890       ??__EmaxFError@vecMathTests@aos@physx@@YAXXZ 0000000180002890 f   GuMidphaseBV4.obj
 0001:000018a0       ??__EmaxV3Error@vecMathTests@aos@physx@@YAXXZ 00000001800028a0 f   GuMidphaseBV4.obj
 0001:000018b0       ??__EmaxV4Error@vecMathTests@aos@physx@@YAXXZ 00000001800028b0 f   GuMidphaseBV4.obj
 0001:000018c0       ??__EminFError@vecMathTests@aos@physx@@YAXXZ 00000001800028c0 f   GuMidphaseBV4.obj
 0001:000018d0       ??__EminV3Error@vecMathTests@aos@physx@@YAXXZ 00000001800028d0 f   GuMidphaseBV4.obj
 0001:000018e0       ??__EminV4Error@vecMathTests@aos@physx@@YAXXZ 00000001800028e0 f   GuMidphaseBV4.obj
 0001:000018f0       ??__EmaxFError@vecMathTests@aos@physx@@YAXXZ 00000001800028f0 f   GuMeshQuery.obj
 0001:00001900       ??__EmaxV3Error@vecMathTests@aos@physx@@YAXXZ 0000000180002900 f   GuMeshQuery.obj
 0001:00001910       ??__EmaxV4Error@vecMathTests@aos@physx@@YAXXZ 0000000180002910 f   GuMeshQuery.obj
 0001:00001920       ??__EminFError@vecMathTests@aos@physx@@YAXXZ 0000000180002920 f   GuMeshQuery.obj
 0001:00001930       ??__EminV3Error@vecMathTests@aos@physx@@YAXXZ 0000000180002930 f   GuMeshQuery.obj
 0001:00001940       ??__EminV4Error@vecMathTests@aos@physx@@YAXXZ 0000000180002940 f   GuMeshQuery.obj
 0001:00001950       ??__EmaxFError@vecMathTests@aos@physx@@YAXXZ 0000000180002950 f   GuMidphaseRTree.obj
 0001:00001960       ??__EmaxV3Error@vecMathTests@aos@physx@@YAXXZ 0000000180002960 f   GuMidphaseRTree.obj
 0001:00001970       ??__EmaxV4Error@vecMathTests@aos@physx@@YAXXZ 0000000180002970 f   GuMidphaseRTree.obj
 0001:00001980       ??__EminFError@vecMathTests@aos@physx@@YAXXZ 0000000180002980 f   GuMidphaseRTree.obj
 0001:00001990       ??__EminV3Error@vecMathTests@aos@physx@@YAXXZ 0000000180002990 f   GuMidphaseRTree.obj
 0001:000019a0       ??__EminV4Error@vecMathTests@aos@physx@@YAXXZ 00000001800029a0 f   GuMidphaseRTree.obj
 0001:000019b0       ??__EmaxFError@vecMathTests@aos@physx@@YAXXZ 00000001800029b0 f   GuOverlapTestsMesh.obj
 0001:000019c0       ??__EmaxV3Error@vecMathTests@aos@physx@@YAXXZ 00000001800029c0 f   GuOverlapTestsMesh.obj
 0001:000019d0       ??__EmaxV4Error@vecMathTests@aos@physx@@YAXXZ 00000001800029d0 f   GuOverlapTestsMesh.obj
 0001:000019e0       ??__EminFError@vecMathTests@aos@physx@@YAXXZ 00000001800029e0 f   GuOverlapTestsMesh.obj
 0001:000019f0       ??__EminV3Error@vecMathTests@aos@physx@@YAXXZ 00000001800029f0 f   GuOverlapTestsMesh.obj
 0001:00001a00       ??__EminV4Error@vecMathTests@aos@physx@@YAXXZ 0000000180002a00 f   GuOverlapTestsMesh.obj
 0001:00001a10       ??__EmaxFError@vecMathTests@aos@physx@@YAXXZ 0000000180002a10 f   GuRTree.obj
 0001:00001a20       ??__EmaxV3Error@vecMathTests@aos@physx@@YAXXZ 0000000180002a20 f   GuRTree.obj
 0001:00001a30       ??__EmaxV4Error@vecMathTests@aos@physx@@YAXXZ 0000000180002a30 f   GuRTree.obj
 0001:00001a40       ??__EminFError@vecMathTests@aos@physx@@YAXXZ 0000000180002a40 f   GuRTree.obj
 0001:00001a50       ??__EminV3Error@vecMathTests@aos@physx@@YAXXZ 0000000180002a50 f   GuRTree.obj
 0001:00001a60       ??__EminV4Error@vecMathTests@aos@physx@@YAXXZ 0000000180002a60 f   GuRTree.obj
 0001:00001a70       ??__EepsFloat4@?A0xd662bac1@@YAXXZ 0000000180002a70 f   GuRTreeQueries.obj
 0001:00001a80       ??__EepsInflateFloat4@?A0xd662bac1@@YAXXZ 0000000180002a80 f   GuRTreeQueries.obj
 0001:00001a90       ??__EmaxFError@vecMathTests@aos@physx@@YAXXZ 0000000180002a90 f   GuRTreeQueries.obj
 0001:00001aa0       ??__EmaxV3Error@vecMathTests@aos@physx@@YAXXZ 0000000180002aa0 f   GuRTreeQueries.obj
 0001:00001ab0       ??__EmaxV4Error@vecMathTests@aos@physx@@YAXXZ 0000000180002ab0 f   GuRTreeQueries.obj
 0001:00001ac0       ??__EminFError@vecMathTests@aos@physx@@YAXXZ 0000000180002ac0 f   GuRTreeQueries.obj
 0001:00001ad0       ??__EminV3Error@vecMathTests@aos@physx@@YAXXZ 0000000180002ad0 f   GuRTreeQueries.obj
 0001:00001ae0       ??__EminV4Error@vecMathTests@aos@physx@@YAXXZ 0000000180002ae0 f   GuRTreeQueries.obj
 0001:00001af0       ??__EsignMask@?A0xd662bac1@@YAXXZ 0000000180002af0 f   GuRTreeQueries.obj
 0001:00001b30       ??__Etwos@?A0xd662bac1@@YAXXZ 0000000180002b30 f   GuRTreeQueries.obj
 0001:00001b40       ??__Ezeroes@?A0xd662bac1@@YAXXZ 0000000180002b40 f   GuRTreeQueries.obj
 0001:00001b50       ??__EmaxFError@vecMathTests@aos@physx@@YAXXZ 0000000180002b50 f   GuSweepsMesh.obj
 0001:00001b60       ??__EmaxV3Error@vecMathTests@aos@physx@@YAXXZ 0000000180002b60 f   GuSweepsMesh.obj
 0001:00001b70       ??__EmaxV4Error@vecMathTests@aos@physx@@YAXXZ 0000000180002b70 f   GuSweepsMesh.obj
 0001:00001b80       ??__EminFError@vecMathTests@aos@physx@@YAXXZ 0000000180002b80 f   GuSweepsMesh.obj
 0001:00001b90       ??__EminV3Error@vecMathTests@aos@physx@@YAXXZ 0000000180002b90 f   GuSweepsMesh.obj
 0001:00001ba0       ??__EminV4Error@vecMathTests@aos@physx@@YAXXZ 0000000180002ba0 f   GuSweepsMesh.obj
 0001:00001bb0       ??__EmaxFError@vecMathTests@aos@physx@@YAXXZ 0000000180002bb0 f   GuTriangleMesh.obj
 0001:00001bc0       ??__EmaxV3Error@vecMathTests@aos@physx@@YAXXZ 0000000180002bc0 f   GuTriangleMesh.obj
 0001:00001bd0       ??__EmaxV4Error@vecMathTests@aos@physx@@YAXXZ 0000000180002bd0 f   GuTriangleMesh.obj
 0001:00001be0       ??__EminFError@vecMathTests@aos@physx@@YAXXZ 0000000180002be0 f   GuTriangleMesh.obj
 0001:00001bf0       ??__EminV3Error@vecMathTests@aos@physx@@YAXXZ 0000000180002bf0 f   GuTriangleMesh.obj
 0001:00001c00       ??__EminV4Error@vecMathTests@aos@physx@@YAXXZ 0000000180002c00 f   GuTriangleMesh.obj
 0001:00001c10       ??__EmaxFError@vecMathTests@aos@physx@@YAXXZ 0000000180002c10 f   GuTriangleMeshBV4.obj
 0001:00001c20       ??__EmaxV3Error@vecMathTests@aos@physx@@YAXXZ 0000000180002c20 f   GuTriangleMeshBV4.obj
 0001:00001c30       ??__EmaxV4Error@vecMathTests@aos@physx@@YAXXZ 0000000180002c30 f   GuTriangleMeshBV4.obj
 0001:00001c40       ??__EminFError@vecMathTests@aos@physx@@YAXXZ 0000000180002c40 f   GuTriangleMeshBV4.obj
 0001:00001c50       ??__EminV3Error@vecMathTests@aos@physx@@YAXXZ 0000000180002c50 f   GuTriangleMeshBV4.obj
 0001:00001c60       ??__EminV4Error@vecMathTests@aos@physx@@YAXXZ 0000000180002c60 f   GuTriangleMeshBV4.obj
 0001:00001c70       ??__EmaxFError@vecMathTests@aos@physx@@YAXXZ 0000000180002c70 f   GuTriangleMeshRTree.obj
 0001:00001c80       ??__EmaxV3Error@vecMathTests@aos@physx@@YAXXZ 0000000180002c80 f   GuTriangleMeshRTree.obj
 0001:00001c90       ??__EmaxV4Error@vecMathTests@aos@physx@@YAXXZ 0000000180002c90 f   GuTriangleMeshRTree.obj
 0001:00001ca0       ??__EminFError@vecMathTests@aos@physx@@YAXXZ 0000000180002ca0 f   GuTriangleMeshRTree.obj
 0001:00001cb0       ??__EminV3Error@vecMathTests@aos@physx@@YAXXZ 0000000180002cb0 f   GuTriangleMeshRTree.obj
 0001:00001cc0       ??__EminV4Error@vecMathTests@aos@physx@@YAXXZ 0000000180002cc0 f   GuTriangleMeshRTree.obj
 0001:00001cd0       ??__EmaxFError@vecMathTests@aos@physx@@YAXXZ 0000000180002cd0 f   GuBV32.obj
 0001:00001ce0       ??__EmaxV3Error@vecMathTests@aos@physx@@YAXXZ 0000000180002ce0 f   GuBV32.obj
 0001:00001cf0       ??__EmaxV4Error@vecMathTests@aos@physx@@YAXXZ 0000000180002cf0 f   GuBV32.obj
 0001:00001d00       ??__EminFError@vecMathTests@aos@physx@@YAXXZ 0000000180002d00 f   GuBV32.obj
 0001:00001d10       ??__EminV3Error@vecMathTests@aos@physx@@YAXXZ 0000000180002d10 f   GuBV32.obj
 0001:00001d20       ??__EminV4Error@vecMathTests@aos@physx@@YAXXZ 0000000180002d20 f   GuBV32.obj
 0001:00001d30       ??__EmaxFError@vecMathTests@aos@physx@@YAXXZ 0000000180002d30 f   GuBV32Build.obj
 0001:00001d40       ??__EmaxV3Error@vecMathTests@aos@physx@@YAXXZ 0000000180002d40 f   GuBV32Build.obj
 0001:00001d50       ??__EmaxV4Error@vecMathTests@aos@physx@@YAXXZ 0000000180002d50 f   GuBV32Build.obj
 0001:00001d60       ??__EminFError@vecMathTests@aos@physx@@YAXXZ 0000000180002d60 f   GuBV32Build.obj
 0001:00001d70       ??__EminV3Error@vecMathTests@aos@physx@@YAXXZ 0000000180002d70 f   GuBV32Build.obj
 0001:00001d80       ??__EminV4Error@vecMathTests@aos@physx@@YAXXZ 0000000180002d80 f   GuBV32Build.obj
 0001:00001d90       ??__EmaxFError@vecMathTests@aos@physx@@YAXXZ 0000000180002d90 f   GuTetrahedronMesh.obj
 0001:00001da0       ??__EmaxV3Error@vecMathTests@aos@physx@@YAXXZ 0000000180002da0 f   GuTetrahedronMesh.obj
 0001:00001db0       ??__EmaxV4Error@vecMathTests@aos@physx@@YAXXZ 0000000180002db0 f   GuTetrahedronMesh.obj
 0001:00001dc0       ??__EminFError@vecMathTests@aos@physx@@YAXXZ 0000000180002dc0 f   GuTetrahedronMesh.obj
 0001:00001dd0       ??__EminV3Error@vecMathTests@aos@physx@@YAXXZ 0000000180002dd0 f   GuTetrahedronMesh.obj
 0001:00001de0       ??__EminV4Error@vecMathTests@aos@physx@@YAXXZ 0000000180002de0 f   GuTetrahedronMesh.obj
 0001:00001df0       ??__EmaxFError@vecMathTests@aos@physx@@YAXXZ 0000000180002df0 f   GuTetrahedronMeshUtils.obj
 0001:00001e00       ??__EmaxV3Error@vecMathTests@aos@physx@@YAXXZ 0000000180002e00 f   GuTetrahedronMeshUtils.obj
 0001:00001e10       ??__EmaxV4Error@vecMathTests@aos@physx@@YAXXZ 0000000180002e10 f   GuTetrahedronMeshUtils.obj
 0001:00001e20       ??__EminFError@vecMathTests@aos@physx@@YAXXZ 0000000180002e20 f   GuTetrahedronMeshUtils.obj
 0001:00001e30       ??__EminV3Error@vecMathTests@aos@physx@@YAXXZ 0000000180002e30 f   GuTetrahedronMeshUtils.obj
 0001:00001e40       ??__EminV4Error@vecMathTests@aos@physx@@YAXXZ 0000000180002e40 f   GuTetrahedronMeshUtils.obj
 0001:00001e50       ??__EmaxFError@vecMathTests@aos@physx@@YAXXZ 0000000180002e50 f   GuPCMContactBoxBox.obj
 0001:00001e60       ??__EmaxV3Error@vecMathTests@aos@physx@@YAXXZ 0000000180002e60 f   GuPCMContactBoxBox.obj
 0001:00001e70       ??__EmaxV4Error@vecMathTests@aos@physx@@YAXXZ 0000000180002e70 f   GuPCMContactBoxBox.obj
 0001:00001e80       ??__EminFError@vecMathTests@aos@physx@@YAXXZ 0000000180002e80 f   GuPCMContactBoxBox.obj
 0001:00001e90       ??__EminV3Error@vecMathTests@aos@physx@@YAXXZ 0000000180002e90 f   GuPCMContactBoxBox.obj
 0001:00001ea0       ??__EminV4Error@vecMathTests@aos@physx@@YAXXZ 0000000180002ea0 f   GuPCMContactBoxBox.obj
 0001:00001eb0       ??__EmaxFError@vecMathTests@aos@physx@@YAXXZ 0000000180002eb0 f   GuPCMContactBoxConvex.obj
 0001:00001ec0       ??__EmaxV3Error@vecMathTests@aos@physx@@YAXXZ 0000000180002ec0 f   GuPCMContactBoxConvex.obj
 0001:00001ed0       ??__EmaxV4Error@vecMathTests@aos@physx@@YAXXZ 0000000180002ed0 f   GuPCMContactBoxConvex.obj
 0001:00001ee0       ??__EminFError@vecMathTests@aos@physx@@YAXXZ 0000000180002ee0 f   GuPCMContactBoxConvex.obj
 0001:00001ef0       ??__EminV3Error@vecMathTests@aos@physx@@YAXXZ 0000000180002ef0 f   GuPCMContactBoxConvex.obj
 0001:00001f00       ??__EminV4Error@vecMathTests@aos@physx@@YAXXZ 0000000180002f00 f   GuPCMContactBoxConvex.obj
 0001:00001f10       ??__EmaxFError@vecMathTests@aos@physx@@YAXXZ 0000000180002f10 f   GuPCMContactCapsuleBox.obj
 0001:00001f20       ??__EmaxV3Error@vecMathTests@aos@physx@@YAXXZ 0000000180002f20 f   GuPCMContactCapsuleBox.obj
 0001:00001f30       ??__EmaxV4Error@vecMathTests@aos@physx@@YAXXZ 0000000180002f30 f   GuPCMContactCapsuleBox.obj
 0001:00001f40       ??__EminFError@vecMathTests@aos@physx@@YAXXZ 0000000180002f40 f   GuPCMContactCapsuleBox.obj
 0001:00001f50       ??__EminV3Error@vecMathTests@aos@physx@@YAXXZ 0000000180002f50 f   GuPCMContactCapsuleBox.obj
 0001:00001f60       ??__EminV4Error@vecMathTests@aos@physx@@YAXXZ 0000000180002f60 f   GuPCMContactCapsuleBox.obj
 0001:00001f70       ??__EmaxFError@vecMathTests@aos@physx@@YAXXZ 0000000180002f70 f   GuPCMContactCapsuleCapsule.obj
 0001:00001f80       ??__EmaxV3Error@vecMathTests@aos@physx@@YAXXZ 0000000180002f80 f   GuPCMContactCapsuleCapsule.obj
 0001:00001f90       ??__EmaxV4Error@vecMathTests@aos@physx@@YAXXZ 0000000180002f90 f   GuPCMContactCapsuleCapsule.obj
 0001:00001fa0       ??__EminFError@vecMathTests@aos@physx@@YAXXZ 0000000180002fa0 f   GuPCMContactCapsuleCapsule.obj
 0001:00001fb0       ??__EminV3Error@vecMathTests@aos@physx@@YAXXZ 0000000180002fb0 f   GuPCMContactCapsuleCapsule.obj
 0001:00001fc0       ??__EminV4Error@vecMathTests@aos@physx@@YAXXZ 0000000180002fc0 f   GuPCMContactCapsuleCapsule.obj
 0001:00001fd0       ??__EmaxFError@vecMathTests@aos@physx@@YAXXZ 0000000180002fd0 f   GuPCMContactCapsuleConvex.obj
 0001:00001fe0       ??__EmaxV3Error@vecMathTests@aos@physx@@YAXXZ 0000000180002fe0 f   GuPCMContactCapsuleConvex.obj
 0001:00001ff0       ??__EmaxV4Error@vecMathTests@aos@physx@@YAXXZ 0000000180002ff0 f   GuPCMContactCapsuleConvex.obj
 0001:00002000       ??__EminFError@vecMathTests@aos@physx@@YAXXZ 0000000180003000 f   GuPCMContactCapsuleConvex.obj
 0001:00002010       ??__EminV3Error@vecMathTests@aos@physx@@YAXXZ 0000000180003010 f   GuPCMContactCapsuleConvex.obj
 0001:00002020       ??__EminV4Error@vecMathTests@aos@physx@@YAXXZ 0000000180003020 f   GuPCMContactCapsuleConvex.obj
 0001:00002030       ??__EmaxFError@vecMathTests@aos@physx@@YAXXZ 0000000180003030 f   GuPCMContactCapsuleHeightField.obj
 0001:00002040       ??__EmaxV3Error@vecMathTests@aos@physx@@YAXXZ 0000000180003040 f   GuPCMContactCapsuleHeightField.obj
 0001:00002050       ??__EmaxV4Error@vecMathTests@aos@physx@@YAXXZ 0000000180003050 f   GuPCMContactCapsuleHeightField.obj
 0001:00002060       ??__EminFError@vecMathTests@aos@physx@@YAXXZ 0000000180003060 f   GuPCMContactCapsuleHeightField.obj
 0001:00002070       ??__EminV3Error@vecMathTests@aos@physx@@YAXXZ 0000000180003070 f   GuPCMContactCapsuleHeightField.obj
 0001:00002080       ??__EminV4Error@vecMathTests@aos@physx@@YAXXZ 0000000180003080 f   GuPCMContactCapsuleHeightField.obj
 0001:00002090       ??__EmaxFError@vecMathTests@aos@physx@@YAXXZ 0000000180003090 f   GuPCMContactCapsuleMesh.obj
 0001:000020a0       ??__EmaxV3Error@vecMathTests@aos@physx@@YAXXZ 00000001800030a0 f   GuPCMContactCapsuleMesh.obj
 0001:000020b0       ??__EmaxV4Error@vecMathTests@aos@physx@@YAXXZ 00000001800030b0 f   GuPCMContactCapsuleMesh.obj
 0001:000020c0       ??__EminFError@vecMathTests@aos@physx@@YAXXZ 00000001800030c0 f   GuPCMContactCapsuleMesh.obj
 0001:000020d0       ??__EminV3Error@vecMathTests@aos@physx@@YAXXZ 00000001800030d0 f   GuPCMContactCapsuleMesh.obj
 0001:000020e0       ??__EminV4Error@vecMathTests@aos@physx@@YAXXZ 00000001800030e0 f   GuPCMContactCapsuleMesh.obj
 0001:000020f0       ??__EmaxFError@vecMathTests@aos@physx@@YAXXZ 00000001800030f0 f   GuPCMContactConvexCommon.obj
 0001:00002100       ??__EmaxV3Error@vecMathTests@aos@physx@@YAXXZ 0000000180003100 f   GuPCMContactConvexCommon.obj
 0001:00002110       ??__EmaxV4Error@vecMathTests@aos@physx@@YAXXZ 0000000180003110 f   GuPCMContactConvexCommon.obj
 0001:00002120       ??__EminFError@vecMathTests@aos@physx@@YAXXZ 0000000180003120 f   GuPCMContactConvexCommon.obj
 0001:00002130       ??__EminV3Error@vecMathTests@aos@physx@@YAXXZ 0000000180003130 f   GuPCMContactConvexCommon.obj
 0001:00002140       ??__EminV4Error@vecMathTests@aos@physx@@YAXXZ 0000000180003140 f   GuPCMContactConvexCommon.obj
 0001:00002150       ??__EmaxFError@vecMathTests@aos@physx@@YAXXZ 0000000180003150 f   GuPCMContactConvexConvex.obj
 0001:00002160       ??__EmaxV3Error@vecMathTests@aos@physx@@YAXXZ 0000000180003160 f   GuPCMContactConvexConvex.obj
 0001:00002170       ??__EmaxV4Error@vecMathTests@aos@physx@@YAXXZ 0000000180003170 f   GuPCMContactConvexConvex.obj
 0001:00002180       ??__EminFError@vecMathTests@aos@physx@@YAXXZ 0000000180003180 f   GuPCMContactConvexConvex.obj
 0001:00002190       ??__EminV3Error@vecMathTests@aos@physx@@YAXXZ 0000000180003190 f   GuPCMContactConvexConvex.obj
 0001:000021a0       ??__EminV4Error@vecMathTests@aos@physx@@YAXXZ 00000001800031a0 f   GuPCMContactConvexConvex.obj
 0001:000021b0       ??__EmaxFError@vecMathTests@aos@physx@@YAXXZ 00000001800031b0 f   GuPCMContactConvexHeightField.obj
 0001:000021c0       ??__EmaxV3Error@vecMathTests@aos@physx@@YAXXZ 00000001800031c0 f   GuPCMContactConvexHeightField.obj
 0001:000021d0       ??__EmaxV4Error@vecMathTests@aos@physx@@YAXXZ 00000001800031d0 f   GuPCMContactConvexHeightField.obj
 0001:000021e0       ??__EminFError@vecMathTests@aos@physx@@YAXXZ 00000001800031e0 f   GuPCMContactConvexHeightField.obj
 0001:000021f0       ??__EminV3Error@vecMathTests@aos@physx@@YAXXZ 00000001800031f0 f   GuPCMContactConvexHeightField.obj
 0001:00002200       ??__EminV4Error@vecMathTests@aos@physx@@YAXXZ 0000000180003200 f   GuPCMContactConvexHeightField.obj
 0001:00002210       ??__EmaxFError@vecMathTests@aos@physx@@YAXXZ 0000000180003210 f   GuPCMContactConvexMesh.obj
 0001:00002220       ??__EmaxV3Error@vecMathTests@aos@physx@@YAXXZ 0000000180003220 f   GuPCMContactConvexMesh.obj
 0001:00002230       ??__EmaxV4Error@vecMathTests@aos@physx@@YAXXZ 0000000180003230 f   GuPCMContactConvexMesh.obj
 0001:00002240       ??__EminFError@vecMathTests@aos@physx@@YAXXZ 0000000180003240 f   GuPCMContactConvexMesh.obj
 0001:00002250       ??__EminV3Error@vecMathTests@aos@physx@@YAXXZ 0000000180003250 f   GuPCMContactConvexMesh.obj
 0001:00002260       ??__EminV4Error@vecMathTests@aos@physx@@YAXXZ 0000000180003260 f   GuPCMContactConvexMesh.obj
 0001:00002270       ??__EmaxFError@vecMathTests@aos@physx@@YAXXZ 0000000180003270 f   GuPCMContactGenBoxConvex.obj
 0001:00002280       ??__EmaxV3Error@vecMathTests@aos@physx@@YAXXZ 0000000180003280 f   GuPCMContactGenBoxConvex.obj
 0001:00002290       ??__EmaxV4Error@vecMathTests@aos@physx@@YAXXZ 0000000180003290 f   GuPCMContactGenBoxConvex.obj
 0001:000022a0       ??__EminFError@vecMathTests@aos@physx@@YAXXZ 00000001800032a0 f   GuPCMContactGenBoxConvex.obj
 0001:000022b0       ??__EminV3Error@vecMathTests@aos@physx@@YAXXZ 00000001800032b0 f   GuPCMContactGenBoxConvex.obj
 0001:000022c0       ??__EminV4Error@vecMathTests@aos@physx@@YAXXZ 00000001800032c0 f   GuPCMContactGenBoxConvex.obj
 0001:000022d0       ??__EmaxFError@vecMathTests@aos@physx@@YAXXZ 00000001800032d0 f   GuPCMContactGenSphereCapsule.obj
 0001:000022e0       ??__EmaxV3Error@vecMathTests@aos@physx@@YAXXZ 00000001800032e0 f   GuPCMContactGenSphereCapsule.obj
 0001:000022f0       ??__EmaxV4Error@vecMathTests@aos@physx@@YAXXZ 00000001800032f0 f   GuPCMContactGenSphereCapsule.obj
 0001:00002300       ??__EminFError@vecMathTests@aos@physx@@YAXXZ 0000000180003300 f   GuPCMContactGenSphereCapsule.obj
 0001:00002310       ??__EminV3Error@vecMathTests@aos@physx@@YAXXZ 0000000180003310 f   GuPCMContactGenSphereCapsule.obj
 0001:00002320       ??__EminV4Error@vecMathTests@aos@physx@@YAXXZ 0000000180003320 f   GuPCMContactGenSphereCapsule.obj
 0001:00002330       ??__EmaxFError@vecMathTests@aos@physx@@YAXXZ 0000000180003330 f   GuPCMContactPlaneBox.obj
 0001:00002340       ??__EmaxV3Error@vecMathTests@aos@physx@@YAXXZ 0000000180003340 f   GuPCMContactPlaneBox.obj
 0001:00002350       ??__EmaxV4Error@vecMathTests@aos@physx@@YAXXZ 0000000180003350 f   GuPCMContactPlaneBox.obj
 0001:00002360       ??__EminFError@vecMathTests@aos@physx@@YAXXZ 0000000180003360 f   GuPCMContactPlaneBox.obj
 0001:00002370       ??__EminV3Error@vecMathTests@aos@physx@@YAXXZ 0000000180003370 f   GuPCMContactPlaneBox.obj
 0001:00002380       ??__EminV4Error@vecMathTests@aos@physx@@YAXXZ 0000000180003380 f   GuPCMContactPlaneBox.obj
 0001:00002390       ??__EmaxFError@vecMathTests@aos@physx@@YAXXZ 0000000180003390 f   GuPCMContactPlaneCapsule.obj
 0001:000023a0       ??__EmaxV3Error@vecMathTests@aos@physx@@YAXXZ 00000001800033a0 f   GuPCMContactPlaneCapsule.obj
 0001:000023b0       ??__EmaxV4Error@vecMathTests@aos@physx@@YAXXZ 00000001800033b0 f   GuPCMContactPlaneCapsule.obj
 0001:000023c0       ??__EminFError@vecMathTests@aos@physx@@YAXXZ 00000001800033c0 f   GuPCMContactPlaneCapsule.obj
 0001:000023d0       ??__EminV3Error@vecMathTests@aos@physx@@YAXXZ 00000001800033d0 f   GuPCMContactPlaneCapsule.obj
 0001:000023e0       ??__EminV4Error@vecMathTests@aos@physx@@YAXXZ 00000001800033e0 f   GuPCMContactPlaneCapsule.obj
 0001:000023f0       ??__EmaxFError@vecMathTests@aos@physx@@YAXXZ 00000001800033f0 f   GuPCMContactPlaneConvex.obj
 0001:00002400       ??__EmaxV3Error@vecMathTests@aos@physx@@YAXXZ 0000000180003400 f   GuPCMContactPlaneConvex.obj
 0001:00002410       ??__EmaxV4Error@vecMathTests@aos@physx@@YAXXZ 0000000180003410 f   GuPCMContactPlaneConvex.obj
 0001:00002420       ??__EminFError@vecMathTests@aos@physx@@YAXXZ 0000000180003420 f   GuPCMContactPlaneConvex.obj
 0001:00002430       ??__EminV3Error@vecMathTests@aos@physx@@YAXXZ 0000000180003430 f   GuPCMContactPlaneConvex.obj
 0001:00002440       ??__EminV4Error@vecMathTests@aos@physx@@YAXXZ 0000000180003440 f   GuPCMContactPlaneConvex.obj
 0001:00002450       ??__EmaxFError@vecMathTests@aos@physx@@YAXXZ 0000000180003450 f   GuPCMContactSphereBox.obj
 0001:00002460       ??__EmaxV3Error@vecMathTests@aos@physx@@YAXXZ 0000000180003460 f   GuPCMContactSphereBox.obj
 0001:00002470       ??__EmaxV4Error@vecMathTests@aos@physx@@YAXXZ 0000000180003470 f   GuPCMContactSphereBox.obj
 0001:00002480       ??__EminFError@vecMathTests@aos@physx@@YAXXZ 0000000180003480 f   GuPCMContactSphereBox.obj
 0001:00002490       ??__EminV3Error@vecMathTests@aos@physx@@YAXXZ 0000000180003490 f   GuPCMContactSphereBox.obj
 0001:000024a0       ??__EminV4Error@vecMathTests@aos@physx@@YAXXZ 00000001800034a0 f   GuPCMContactSphereBox.obj
 0001:000024b0       ??__EmaxFError@vecMathTests@aos@physx@@YAXXZ 00000001800034b0 f   GuPCMContactSphereCapsule.obj
 0001:000024c0       ??__EmaxV3Error@vecMathTests@aos@physx@@YAXXZ 00000001800034c0 f   GuPCMContactSphereCapsule.obj
 0001:000024d0       ??__EmaxV4Error@vecMathTests@aos@physx@@YAXXZ 00000001800034d0 f   GuPCMContactSphereCapsule.obj
 0001:000024e0       ??__EminFError@vecMathTests@aos@physx@@YAXXZ 00000001800034e0 f   GuPCMContactSphereCapsule.obj
 0001:000024f0       ??__EminV3Error@vecMathTests@aos@physx@@YAXXZ 00000001800034f0 f   GuPCMContactSphereCapsule.obj
 0001:00002500       ??__EminV4Error@vecMathTests@aos@physx@@YAXXZ 0000000180003500 f   GuPCMContactSphereCapsule.obj
 0001:00002510       ??__EmaxFError@vecMathTests@aos@physx@@YAXXZ 0000000180003510 f   GuPCMContactSphereConvex.obj
 0001:00002520       ??__EmaxV3Error@vecMathTests@aos@physx@@YAXXZ 0000000180003520 f   GuPCMContactSphereConvex.obj
 0001:00002530       ??__EmaxV4Error@vecMathTests@aos@physx@@YAXXZ 0000000180003530 f   GuPCMContactSphereConvex.obj
 0001:00002540       ??__EminFError@vecMathTests@aos@physx@@YAXXZ 0000000180003540 f   GuPCMContactSphereConvex.obj
 0001:00002550       ??__EminV3Error@vecMathTests@aos@physx@@YAXXZ 0000000180003550 f   GuPCMContactSphereConvex.obj
